
/home/xiang/rockpi4-android/external/hello_ta/ta/out/8aaaf200-2450-11e4-abe2-0002a5d5c51b.elf:     file format elf64-littleaarch64
/home/xiang/rockpi4-android/external/hello_ta/ta/out/8aaaf200-2450-11e4-abe2-0002a5d5c51b.elf
architecture: aarch64, flags 0x00000150:
HAS_SYMS, DYNAMIC, D_PAGED
start address 0x0000000000000164

Program Header:
    LOAD off    0x0000000000001000 vaddr 0x0000000000000000 paddr 0x0000000000000000 align 2**12
         filesz 0x000000000000c3b0 memsz 0x000000000000c3b0 flags r-x
    LOAD off    0x000000000000e000 vaddr 0x000000000000d000 paddr 0x000000000000d000 align 2**12
         filesz 0x00000000000004ec memsz 0x000000000000b580 flags rw-
 DYNAMIC off    0x000000000000e000 vaddr 0x000000000000d000 paddr 0x000000000000d000 align 2**3
         filesz 0x0000000000000100 memsz 0x0000000000000100 flags rw-
   STACK off    0x0000000000000000 vaddr 0x0000000000000000 paddr 0x0000000000000000 align 2**4
         filesz 0x0000000000000000 memsz 0x0000000000000000 flags rw-

Dynamic Section:
  HASH                 0x000000000000c098
  STRTAB               0x000000000000bfb0
  SYMTAB               0x000000000000bde8
  STRSZ                0x00000000000000e8
  SYMENT               0x0000000000000018
  DEBUG                0x0000000000000000
  RELA                 0x000000000000c0f8
  RELASZ               0x0000000000000438
  RELAENT              0x0000000000000018
  FLAGS_1              0x0000000008000000
  RELACOUNT            0x000000000000001d
private flags = 0:

Sections:
Idx Name          Size      VMA               LMA               File off  Algn
  0 .ta_head      00000020  0000000000000000  0000000000000000  00001000  2**3
                  CONTENTS, ALLOC, LOAD, READONLY, DATA
  1 .text         0000ac0c  0000000000000020  0000000000000020  00001020  2**3
                  CONTENTS, ALLOC, LOAD, READONLY, CODE
  2 .rodata       000011b1  000000000000ac30  000000000000ac30  0000bc30  2**3
                  CONTENTS, ALLOC, LOAD, READONLY, DATA
  3 .dynsym       000001c8  000000000000bde8  000000000000bde8  0000cde8  2**3
                  CONTENTS, ALLOC, LOAD, READONLY, DATA
  4 .dynstr       000000e8  000000000000bfb0  000000000000bfb0  0000cfb0  2**0
                  CONTENTS, ALLOC, LOAD, READONLY, DATA
  5 .hash         00000060  000000000000c098  000000000000c098  0000d098  2**3
                  CONTENTS, ALLOC, LOAD, READONLY, DATA
  6 .rela.dyn     000002b8  000000000000c0f8  000000000000c0f8  0000d0f8  2**3
                  CONTENTS, ALLOC, LOAD, READONLY, DATA
  7 .dynamic      00000100  000000000000d000  000000000000d000  0000e000  2**3
                  CONTENTS, ALLOC, LOAD, DATA
  8 .got          000000a0  000000000000d100  000000000000d100  0000e100  2**3
                  CONTENTS, ALLOC, LOAD, DATA
  9 .rela.got     00000180  000000000000d1a0  000000000000d1a0  0000e1a0  2**3
                  CONTENTS, ALLOC, LOAD, READONLY, DATA
 10 .data         000001cc  000000000000d320  000000000000d320  0000e320  2**3
                  CONTENTS, ALLOC, LOAD, DATA
 11 .bss          0000b090  000000000000d4f0  000000000000d4f0  0000e4ec  2**3
                  ALLOC
 12 .debug_info   00014b77  0000000000000000  0000000000000000  0000e4ec  2**0
                  CONTENTS, READONLY, DEBUGGING
 13 .debug_abbrev 00003713  0000000000000000  0000000000000000  00023063  2**0
                  CONTENTS, READONLY, DEBUGGING
 14 .debug_loc    0001d975  0000000000000000  0000000000000000  00026776  2**0
                  CONTENTS, READONLY, DEBUGGING
 15 .debug_aranges 00000940  0000000000000000  0000000000000000  000440f0  2**4
                  CONTENTS, READONLY, DEBUGGING
 16 .debug_macro  000112f1  0000000000000000  0000000000000000  00044a30  2**0
                  CONTENTS, READONLY, DEBUGGING
 17 .debug_line   00006d12  0000000000000000  0000000000000000  00055d21  2**0
                  CONTENTS, READONLY, DEBUGGING
 18 .debug_str    00018357  0000000000000000  0000000000000000  0005ca33  2**0
                  CONTENTS, READONLY, DEBUGGING
 19 .comment      0000002d  0000000000000000  0000000000000000  00074d8a  2**0
                  CONTENTS, READONLY
 20 .debug_frame  00002ea8  0000000000000000  0000000000000000  00074db8  2**3
                  CONTENTS, READONLY, DEBUGGING
 21 .debug_ranges 000014a0  0000000000000000  0000000000000000  00077c60  2**4
                  CONTENTS, READONLY, DEBUGGING
SYMBOL TABLE:
0000000000000000 l    d  .ta_head	0000000000000000 .ta_head
0000000000000020 l    d  .text	0000000000000000 .text
000000000000ac30 l    d  .rodata	0000000000000000 .rodata
000000000000bde8 l    d  .dynsym	0000000000000000 .dynsym
000000000000bfb0 l    d  .dynstr	0000000000000000 .dynstr
000000000000c098 l    d  .hash	0000000000000000 .hash
000000000000c0f8 l    d  .rela.dyn	0000000000000000 .rela.dyn
000000000000d000 l    d  .dynamic	0000000000000000 .dynamic
000000000000d100 l    d  .got	0000000000000000 .got
000000000000d1a0 l    d  .rela.got	0000000000000000 .rela.got
000000000000d320 l    d  .data	0000000000000000 .data
000000000000d4f0 l    d  .bss	0000000000000000 .bss
0000000000000000 l    d  .debug_info	0000000000000000 .debug_info
0000000000000000 l    d  .debug_abbrev	0000000000000000 .debug_abbrev
0000000000000000 l    d  .debug_loc	0000000000000000 .debug_loc
0000000000000000 l    d  .debug_aranges	0000000000000000 .debug_aranges
0000000000000000 l    d  .debug_macro	0000000000000000 .debug_macro
0000000000000000 l    d  .debug_line	0000000000000000 .debug_line
0000000000000000 l    d  .debug_str	0000000000000000 .debug_str
0000000000000000 l    d  .comment	0000000000000000 .comment
0000000000000000 l    d  .debug_frame	0000000000000000 .debug_frame
0000000000000000 l    d  .debug_ranges	0000000000000000 .debug_ranges
0000000000000000 l    df *ABS*	0000000000000000 user_ta_header.c
000000000000ac38 l     O .rodata	0000000000000004 __compound_literal.5
000000000000ac3c l     O .rodata	0000000000000004 __compound_literal.4
000000000000ac40 l     O .rodata	0000000000000004 __compound_literal.3
000000000000ac44 l     O .rodata	0000000000000001 __compound_literal.2
000000000000ac45 l     O .rodata	0000000000000001 __compound_literal.1
000000000000ac46 l     O .rodata	0000000000000001 __compound_literal.0
0000000000000000 l    df *ABS*	0000000000000000 memcpy.c
0000000000000000 l    df *ABS*	0000000000000000 hello_ta.c
0000000000000000 l    df *ABS*	0000000000000000 utee_syscalls_a64.o
0000000000000000 l    df *ABS*	0000000000000000 user_ta_entry.c
000000000000042c l     F .text	00000000000000b0 _get_fn_array
00000000000004dc l     F .text	0000000000000060 _fini_iterate_phdr_cb
000000000000053c l     F .text	0000000000000028 ta_header_get_session
0000000000000564 l     F .text	0000000000000078 to_utee_params
00000000000005dc l     F .text	000000000000006c from_utee_params
0000000000000648 l     F .text	0000000000000094 _init_iterate_phdr_cb
0000000000000810 l     F .text	0000000000000098 ta_header_remove_session
00000000000154f0 l     O .bss	0000000000000008 _num_mod_init
00000000000154f8 l     O .bss	0000000000000001 init_done
000000000000ac68 l     O .rodata	0000000000000016 __func__.4685
000000000000d3f8 l     O .data	0000000000000010 ta_sessions
000000000000d408 l     O .data	0000000000000010 __phdr_info_head
0000000000000000 l    df *ABS*	0000000000000000 abort.c
0000000000000000 l    df *ABS*	0000000000000000 trace_ext.c
0000000000000000 l    df *ABS*	0000000000000000 tee_api.c
0000000000000c70 l     F .text	00000000000000b8 update_out_param
0000000000000de8 l     F .text	00000000000001d4 copy_param
0000000000015558 l     O .bss	0000000000000008 tee_api_instance_data
000000000000ac90 l     O .rodata	000000000000000b __func__.4553
0000000000000000 l    df *ABS*	0000000000000000 tee_api_arith_mpi.c
0000000000002d4c l     F .text	0000000000000030 api_panic
0000000000001420 l     F .text	0000000000000030 mpi_panic
0000000000001450 l     F .text	0000000000000098 get_mpi
00000000000014e8 l     F .text	000000000000006c copy_mpi_to_bigint
0000000000001554 l     F .text	0000000000000118 bigint_binary
000000000000166c l     F .text	0000000000000020 mpi_is_odd
000000000000168c l     F .text	0000000000000028 rng_read
00000000000016b4 l     F .text	0000000000000540 mpi_egcd
0000000000015560 l     O .bss	0000000000003000 data.4506
0000000000001f98 l     F .text	000000000000019c bigint_binary_mod
000000000000aca0 l     O .rodata	0000000000000008 __func__.4540
000000000000aca8 l     O .rodata	000000000000000e __func__.4637
000000000000acb8 l     O .rodata	0000000000000009 __func__.4783
000000000000acc8 l     O .rodata	0000000000000012 __func__.4507
000000000000ace0 l     O .rodata	000000000000000f __func__.4546
000000000000acf0 l     O .rodata	000000000000001f __func__.4564
000000000000ad10 l     O .rodata	0000000000000019 __func__.4571
000000000000ad30 l     O .rodata	0000000000000012 __func__.4656
000000000000ad48 l     O .rodata	0000000000000015 __func__.4602
000000000000ad60 l     O .rodata	000000000000000e __func__.4677
000000000000ad70 l     O .rodata	000000000000000e __func__.4706
000000000000ad80 l     O .rodata	000000000000000e __func__.4714
000000000000ad90 l     O .rodata	0000000000000011 __func__.4747
000000000000ada8 l     O .rodata	0000000000000018 __func__.4760
000000000000adc0 l     O .rodata	000000000000001d __func__.4840
000000000000ade0 l     O .rodata	0000000000000019 __func__.4893
000000000000ae00 l     O .rodata	0000000000000015 __func__.4908
0000000000000000 l    df *ABS*	0000000000000000 tee_api_panic.c
0000000000002d7c l     F .text	000000000000001c check_access
0000000000002da0 l     F .text	0000000000000010 check_res.isra.1
0000000000000000 l    df *ABS*	0000000000000000 tee_api_property.c
0000000000002edc l     F .text	0000000000000070 propset_get
0000000000002f4c l     F .text	0000000000000030 is_propset_pseudo_handle
0000000000002f7c l     F .text	0000000000000118 propget_get_ext_prop
0000000000003094 l     F .text	000000000000017c propget_get_property
000000000000b278 l     O .rodata	0000000000000004 __compound_literal.2
000000000000b27c l     O .rodata	0000000000000004 __compound_literal.1
000000000000b280 l     O .rodata	0000000000000004 __compound_literal.0
0000000000000000 l    df *ABS*	0000000000000000 tee_system_pta.c
000000000000398c l     F .text	0000000000000088 invoke_system_pta
000000000000ae18 l     O .rodata	0000000000000010 uuid.3919
000000000000ae28 l     O .rodata	000000000000000a __func__.3939
000000000000ae38 l     O .rodata	0000000000000017 __func__.3951
0000000000018560 l     O .bss	0000000000000008 sess.3918
0000000000000000 l    df *ABS*	0000000000000000 tcb.c
000000000000ae50 l     O .rodata	0000000000000010 __func__.3708
000000000000ae60 l     O .rodata	0000000000000010 __func__.3735
0000000000018568 l     O .bss	0000000000000008 _tls_size
0000000000018570 l     O .bss	0000000000000008 _tcb
0000000000000000 l    df *ABS*	0000000000000000 assert.c
0000000000000000 l    df *ABS*	0000000000000000 base64.c
000000000000ae78 l     O .rodata	0000000000000041 base64_table
0000000000000000 l    df *ABS*	0000000000000000 bignum.c
00000000000041b4 l     F .text	0000000000000060 mpi_get_digit
0000000000004214 l     F .text	00000000000004dc mpi_mul_hlp
00000000000046f0 l     F .text	0000000000000038 mpi_montg_init.isra.1
0000000000004728 l     F .text	0000000000000060 mpi_bigendian_to_host.part.0
0000000000004788 l     F .text	00000000000000c0 mpi_fill_random_internal
0000000000004848 l     F .text	0000000000000158 mpi_montmul.isra.2
00000000000049a0 l     F .text	0000000000000044 mpi_montred
0000000000004b80 l     F .text	000000000000006c mbedtls_mpi_resize_clear
00000000000067ac l     F .text	00000000000000a8 mpi_check_small_factors
0000000000007100 l     F .text	0000000000000270 mpi_miller_rabin
000000000000aec0 l     O .rodata	00000000000002a0 small_prime
000000000000b160 l     O .rodata	0000000000000024 gcd_pairs
0000000000000000 l    df *ABS*	0000000000000000 constant_time.c
00000000000080e0 l     F .text	0000000000000020 mbedtls_ct_uchar_mask_of_range
0000000000000000 l    df *ABS*	0000000000000000 platform_util.c
000000000000d460 l     O .data	0000000000000008 memset_func
0000000000000000 l    df *ABS*	0000000000000000 bget_malloc.c
00000000000088f8 l     F .text	0000000000000038 raw_malloc_return_hook
00000000000097c0 l     F .text	000000000000002c bget_buf_size.part.7
0000000000009410 l     F .text	00000000000000d8 gen_malloc_add_pool
000000000000b188 l     O .rodata	000000000000000e __func__.3629
000000000000b198 l     O .rodata	0000000000000005 __func__.3543
000000000000b1a0 l     O .rodata	0000000000000006 __func__.3563
000000000000b1a8 l     O .rodata	0000000000000005 __func__.3582
000000000000b1b0 l     O .rodata	0000000000000006 __func__.3574
000000000000b1b8 l     O .rodata	0000000000000006 __func__.3591
000000000000b1c0 l     O .rodata	0000000000000007 __func__.3601
000000000000b1c8 l     O .rodata	0000000000000014 __func__.3799
000000000000b1e0 l     O .rodata	0000000000000013 __func__.3692
000000000000d468 l     O .data	0000000000000080 malloc_ctx
0000000000000000 l    df *ABS*	0000000000000000 snprintf.c
0000000000000000 l    df *ABS*	0000000000000000 memmove.c
0000000000000000 l    df *ABS*	0000000000000000 memset.c
0000000000000000 l    df *ABS*	0000000000000000 strcmp.c
0000000000000000 l    df *ABS*	0000000000000000 strlen.c
0000000000000000 l    df *ABS*	0000000000000000 snprintk.c
0000000000009ac0 l     F .text	0000000000000c24 kprintf.constprop.0
000000000000b1f8 l     O .rodata	0000000000000011 HEXDIGITS
000000000000b210 l     O .rodata	0000000000000011 hexdigits
0000000000000000 l    df *ABS*	0000000000000000 strlcpy.c
0000000000000000 l    df *ABS*	0000000000000000 trace.c
000000000000b228 l     O .rodata	0000000000000005 lvl_strs.3247
0000000000000000 l    df *ABS*	0000000000000000 mempool.c
000000000000b230 l     O .rodata	0000000000000013 __func__.3346
000000000000b248 l     O .rodata	000000000000000b __func__.3327
000000000000b258 l     O .rodata	000000000000000e __func__.3352
0000000000000000 l    df *ABS*	0000000000000000 consttime_memcmp.c
0000000000000000 l    df *ABS*	0000000000000000 memchr.c
0000000000000000 l    df *ABS*	0000000000000000 
000000000000d000 l     O *ABS*	0000000000000000 _DYNAMIC
000000000000d118 l     O *ABS*	0000000000000000 _GLOBAL_OFFSET_TABLE_
0000000000000c34 g     F .text	000000000000003c putchar
0000000000002b98 g     F .text	0000000000000004 TEE_BigIntConvertToFMM
00000000000026f4 g     F .text	000000000000000c TEE_BigIntSquareMod
0000000000002134 g     F .text	000000000000016c TEE_BigIntShiftRight
00000000000095a4 g     F .text	0000000000000004 raw_malloc_add_pool
0000000000003b04 g     F .text	00000000000000b8 tee_invoke_supp_plugin
0000000000004a8c g     F .text	00000000000000f4 mbedtls_mpi_grow
00000000000013d8 g     F .text	0000000000000030 TEE_Realloc
0000000000002ebc g     F .text	0000000000000020 __utee_check_inout_annotation
0000000000009298 g     F .text	0000000000000010 raw_free
0000000000000b28 g     F .text	00000000000000cc printf
0000000000000198 g     F .text	000000000000000c _utee_log
00000000000010b4 g     F .text	0000000000000128 TEE_InvokeTACommand
0000000000002db0 g     F .text	000000000000004c __utee_check_outbuf_annotation
00000000000049f8 g     F .text	0000000000000028 mbedtls_mpi_init_mempool
0000000000000318 g     F .text	000000000000000c _utee_cryp_random_number_generate
000000000000520c g     F .text	00000000000000c0 mbedtls_mpi_write_binary
00000000000099f8 g     F .text	0000000000000054 vsnprintk
0000000000005a5c g     F .text	0000000000000040 mbedtls_mpi_sub_int
00000000000098b8 g     F .text	000000000000004c memmove
00000000000097ec g     F .text	0000000000000078 snprintf
0000000000001f50 g     F .text	0000000000000048 TEE_BigIntCmpS32
0000000000008654 g     F .text	0000000000000288 mbedtls_ct_rsaes_pkcs1_v15_unpadding
0000000000004bec g     F .text	000000000000012c mbedtls_mpi_shrink
000000000000232c g     F .text	000000000000000c TEE_BigIntAdd
00000000000002b8 g     F .text	000000000000000c _utee_cryp_obj_restrict_usage
000000000000ac48 g     O .rodata	0000000000000008 ta_heap_size
0000000000000360 g     F .text	000000000000000c _utee_asymm_operate
0000000000003f60 g     F .text	0000000000000018 _base64_enc_len
0000000000005ce8 g     F .text	00000000000001d8 mbedtls_mpi_read_string
0000000000002344 g     F .text	00000000000000b0 TEE_BigIntNeg
00000000000003b4 g     F .text	000000000000000c _utee_storage_free_enum
0000000000000020 g       .text	0000000000000000 __text_start
00000000000038e0 g     F .text	00000000000000ac TEE_GetNextProperty
00000000000053cc g     F .text	00000000000000bc mbedtls_mpi_shift_r
0000000000009754 g     F .text	000000000000006c malloc_buffer_overlaps_heap
0000000000000264 g     F .text	000000000000000c _utee_hash_init
00000000000026dc g     F .text	000000000000000c TEE_BigIntSubMod
00000000000079cc g     F .text	0000000000000320 mbedtls_mpi_gen_prime
0000000000003580 g     F .text	00000000000000b4 TEE_GetPropertyAsBinaryBlock
0000000000004ec4 g     F .text	0000000000000030 mbedtls_mpi_get_bit
00000000000050d0 g     F .text	0000000000000084 mbedtls_mpi_read_binary
000000000000a98c g     F .text	0000000000000070 trace_printf
000000000000685c g     F .text	0000000000000008 mbedtls_mpi_montmul
0000000000000420 g     F .text	000000000000000c _utee_cache_operation
0000000000000020 g     F .text	00000000000000f0 memcpy
0000000000002b9c g     F .text	000000000000009c TEE_BigIntConvertFromFMM
0000000000002d98 g     F .text	0000000000000008 TEE_Panic
0000000000000bf4 g     F .text	0000000000000040 puts
0000000000002c38 g     F .text	0000000000000114 TEE_BigIntComputeFMM
00000000000091d8 g     F .text	0000000000000038 malloc_get_stats
0000000000001338 g     F .text	0000000000000028 TEE_GetREETime
00000000000095a8 g     F .text	000000000000003c raw_malloc_get_stats
000000000000d320 g     O .data	00000000000000d8 ta_props
0000000000002dfc g     F .text	0000000000000030 __utee_check_instring_annotation
00000000000094e8 g     F .text	0000000000000018 malloc
00000000000037d8 g     F .text	0000000000000004 TEE_FreePropertyEnumerator
0000000000008158 g     F .text	0000000000000010 mbedtls_ct_mpi_uint_mask
0000000000009864 g     F .text	0000000000000054 vsnprintf
000000000000d4e8 g     O .data	0000000000000004 trace_level
0000000000001ee8 g     F .text	0000000000000068 TEE_BigIntCmp
000000000000ac30 g     O .rodata	0000000000000008 ta_num_props
0000000000008f80 g     F .text	00000000000000d4 bgetr
0000000000000378 g     F .text	000000000000000c _utee_storage_obj_open
000000000000ab7c g     F .text	0000000000000014 mempool_free
0000000000000270 g     F .text	000000000000000c _utee_hash_update
0000000000001d44 g     F .text	0000000000000094 TEE_BigIntConvertToOctetString
0000000000004fd4 g     F .text	000000000000006c mbedtls_mpi_bitlen
00000000000022a0 g     F .text	000000000000004c TEE_BigIntGetBit
000000000000ac50 g     O .rodata	0000000000000003 trace_ext_prefix
00000000000003d8 g     F .text	000000000000000c _utee_storage_next_enum
0000000000009288 g     F .text	0000000000000010 raw_malloc
0000000000008c38 g     F .text	0000000000000088 bgetz
0000000000008168 g     F .text	0000000000000018 mbedtls_ct_size_bool_eq
00000000000011e8 g     F .text	000000000000000c TEE_GetInstanceData
0000000000001234 g     F .text	000000000000003c TEE_Wait
0000000000005a9c g     F .text	0000000000000190 mbedtls_mpi_mul_mpi
0000000000001410 g     F .text	0000000000000008 TEE_CacheFlush
000000000000a798 g     F .text	00000000000001f4 trace_vprintf
0000000000000118 g     F .text	0000000000000004 TA_DestroyEntryPoint
00000000000049e4 g     F .text	0000000000000014 mbedtls_mpi_init
0000000000000390 g     F .text	000000000000000c _utee_storage_obj_del
0000000000004f80 g     F .text	0000000000000054 mbedtls_mpi_lsb
0000000000003f08 g     F .text	0000000000000044 _assert_log
000000000000024c g     F .text	000000000000000c _utee_cryp_state_copy
0000000000002b90 g     F .text	0000000000000008 TEE_BigIntFMMContextSizeInU32
0000000000003a78 g     F .text	000000000000008c tee_unmap
000000000000819c g     F .text	0000000000000030 mbedtls_ct_uint_if
0000000000001bf4 g     F .text	0000000000000050 _TEE_MathAPI_Init
0000000000003bbc g     F .text	0000000000000240 __utee_tcb_init
0000000000005908 g     F .text	0000000000000088 mbedtls_mpi_add_mpi
0000000000000ad8 g     F .text	0000000000000020 abort
0000000000007370 g     F .text	0000000000000184 mbedtls_mpi_random
0000000000002e78 g     F .text	0000000000000020 __utee_check_out_annotation
000000000000d4f0 g     O .bss	0000000000008000 ta_heap
0000000000002700 g     F .text	000000000000011c TEE_BigIntInvMod
00000000000006dc g     F .text	0000000000000124 __utee_call_elf_init_fn
000000000000012c g     F .text	0000000000000004 TA_CloseSessionEntryPoint
00000000000001d4 g     F .text	000000000000000c _utee_close_ta_session
0000000000005990 g     F .text	000000000000008c mbedtls_mpi_sub_mpi
000000000000ab90 g     F .text	0000000000000070 consttime_memcmp
000000000000018c g     F .text	000000000000000c _utee_return
00000000000001a4 g     F .text	000000000000000c __utee_panic
0000000000008100 g     F .text	0000000000000048 mbedtls_ct_memcmp
0000000000003dfc g     F .text	000000000000001c __tls_get_addr
0000000000000130 g     F .text	0000000000000034 TA_InvokeCommandEntryPoint
0000000000000800 g     F .text	0000000000000010 __utee_call_elf_fini_fn
0000000000009560 g     F .text	0000000000000010 free_wipe
000000000000aac8 g     F .text	0000000000000064 mempool_alloc
0000000000000180 g     F .text	000000000000000c _utee_panic
0000000000009578 g     F .text	000000000000002c raw_malloc_init_ctx
000000000000ab2c g     F .text	0000000000000050 mempool_calloc
0000000000000414 g     F .text	000000000000000c _utee_cryp_obj_generate_key
00000000000003fc g     F .text	000000000000000c _utee_storage_obj_trunc
000000000000d418 g     O .data	0000000000000048 tee_props
0000000000000204 g     F .text	000000000000000c _utee_unmask_cancellation
0000000000003784 g     F .text	000000000000000c TEE_ResetPropertyEnumerator
0000000000009500 g     F .text	000000000000001c calloc
0000000000001360 g     F .text	0000000000000068 TEE_Malloc
0000000000000dd4 g     F .text	0000000000000014 TEE_CheckMemoryAccessRights
0000000000003634 g     F .text	00000000000000a8 TEE_GetPropertyAsUUID
00000000000001b0 g     F .text	000000000000000c _utee_get_property
0000000000004e5c g     F .text	0000000000000068 mbedtls_mpi_lset
000000000000011c g     F .text	0000000000000010 TA_OpenSessionEntryPoint
0000000000003e18 g     F .text	00000000000000f0 dl_iterate_phdr
0000000000018580 g       .bss	0000000000000000 __ftrace_buf_end
0000000000015500 g     O .bss	0000000000000004 ta_param_types
00000000000063c4 g     F .text	0000000000000040 mbedtls_mpi_div_int
0000000000007914 g     F .text	00000000000000a8 mbedtls_mpi_is_prime_ext
0000000000002b28 g     F .text	0000000000000050 TEE_BigIntIsProbablePrime
0000000000005c2c g     F .text	00000000000000bc mbedtls_mpi_mul_int
0000000000006868 g     F .text	000000000000068c mbedtls_mpi_exp_mod
0000000000008394 g     F .text	00000000000000c0 mbedtls_mpi_safe_cond_assign
0000000000003210 g     F .text	0000000000000224 TEE_GetPropertyAsString
0000000000008554 g     F .text	0000000000000100 mbedtls_mpi_lt_mpi_ct
0000000000001c44 g     F .text	0000000000000064 TEE_BigIntInit
0000000000002e2c g     F .text	000000000000004c __utee_check_outstring_annotation
00000000000011f4 g     F .text	0000000000000008 TEE_MemMove
00000000000088dc g     F .text	000000000000001c mbedtls_platform_zeroize
0000000000001ca8 g     F .text	000000000000009c TEE_BigIntConvertFromOctetString
0000000000000354 g     F .text	000000000000000c _utee_authenc_dec_final
0000000000005488 g     F .text	00000000000000b0 mbedtls_mpi_cmp_abs
00000000000003e4 g     F .text	000000000000000c _utee_storage_obj_read
000000000000ac00 g     F .text	000000000000002c memchr
0000000000000d7c g     F .text	000000000000002c TEE_UnmaskCancellation
0000000000007cec g     F .text	00000000000003f4 mbedtls_mpi_self_test
0000000000000408 g     F .text	000000000000000c _utee_storage_obj_seek
00000000000001f8 g     F .text	000000000000000c _utee_check_access_rights
0000000000005628 g     F .text	0000000000000040 mbedtls_mpi_cmp_int
0000000000004090 g     F .text	0000000000000124 _base64_dec
00000000000003c0 g     F .text	000000000000000c _utee_storage_reset_enum
00000000000082c8 g     F .text	00000000000000cc mbedtls_ct_base64_dec_value
0000000000002e98 g     F .text	0000000000000024 __utee_check_attr_in_annotation
000000000000033c g     F .text	000000000000000c _utee_authenc_update_payload
0000000000002664 g     F .text	000000000000006c TEE_BigIntMod
00000000000064b8 g     F .text	00000000000000a0 mbedtls_mpi_mod_int
000000000000505c g     F .text	0000000000000074 mbedtls_mpi_read_binary_le
00000000000024e4 g     F .text	0000000000000180 TEE_BigIntDiv
00000000000002d0 g     F .text	000000000000000c _utee_cryp_obj_alloc
0000000000018580 g       .bss	0000000000000000 __ftrace_buf_start
000000000000a730 g     F .text	0000000000000038 strlcpy
0000000000008208 g     F .text	00000000000000c0 mbedtls_ct_base64_enc_char
0000000000004d18 g     F .text	00000000000000e4 mbedtls_mpi_copy
00000000000091c0 g     F .text	0000000000000018 malloc_reset_stats
00000000000036dc g     F .text	00000000000000a8 TEE_GetPropertyAsIdentity
000000000000a6e4 g     F .text	000000000000004c __vsprintf
0000000000000234 g     F .text	000000000000000c _utee_set_ta_time
00000000000001e0 g     F .text	000000000000000c _utee_invoke_ta_command
000000000000951c g     F .text	0000000000000018 realloc
0000000000004dfc g     F .text	0000000000000060 mbedtls_mpi_swap
000000000000aa00 g     F .text	00000000000000c8 mempool_alloc_pool
00000000000023f4 g     F .text	00000000000000e8 TEE_BigIntMul
0000000000009570 g     F .text	0000000000000008 raw_malloc_get_ctx_size
00000000000052cc g     F .text	0000000000000100 mbedtls_mpi_shift_l
0000000000005538 g     F .text	00000000000000f0 mbedtls_mpi_cmp_mpi
0000000000001204 g     F .text	0000000000000008 TEE_MemFill
00000000000095e4 g     F .text	0000000000000014 malloc_add_pool
000000000000a788 g     F .text	0000000000000010 trace_get_level
0000000000005668 g     F .text	000000000000013c mbedtls_mpi_add_abs
0000000000002b80 g     F .text	0000000000000010 TEE_BigIntFMMSizeInU32
0000000000003434 g     F .text	00000000000000a4 TEE_GetPropertyAsBool
0000000000009318 g     F .text	00000000000000f8 raw_realloc
0000000000002b78 g     F .text	0000000000000004 TEE_BigIntInitFMM
0000000000000288 g     F .text	000000000000000c _utee_cipher_init
00000000000008a8 g     F .text	0000000000000230 __utee_entry
00000000000034d8 g     F .text	00000000000000a8 TEE_GetPropertyAsU32
000000000000ac2c g       .text	0000000000000000 __text_end
000000000000281c g     F .text	00000000000000d4 TEE_BigIntRelativePrime
0000000000006404 g     F .text	00000000000000b4 mbedtls_mpi_mod_mpi
00000000000002ac g     F .text	000000000000000c _utee_cryp_obj_get_info
0000000000009054 g     F .text	00000000000000d4 bpool
0000000000003790 g     F .text	0000000000000048 TEE_AllocatePropertyEnumerator
0000000000000240 g     F .text	000000000000000c _utee_cryp_state_alloc
0000000000000d50 g     F .text	000000000000002c TEE_GetCancellationFlag
0000000000006ef4 g     F .text	00000000000001a4 mbedtls_mpi_gcd
00000000000012f4 g     F .text	0000000000000044 TEE_SetTAPersistentTime
0000000000005154 g     F .text	00000000000000b8 mbedtls_mpi_write_binary_le
0000000000009904 g     F .text	000000000000001c memset
0000000000009210 g     F .text	0000000000000078 raw_memalign
0000000000001270 g     F .text	0000000000000084 TEE_GetTAPersistentTime
000000000000a9fc g     F .text	0000000000000004 dhex_dump
0000000000000da8 g     F .text	000000000000002c TEE_MaskCancellation
00000000000002c4 g     F .text	000000000000000c _utee_cryp_obj_get_attr
000000000000a768 g     F .text	0000000000000020 trace_set_level
00000000000002a0 g     F .text	000000000000000c _utee_cipher_final
0000000000008180 g     F .text	000000000000001c mbedtls_ct_mpi_uint_lt
0000000000000258 g     F .text	000000000000000c _utee_cryp_state_free
0000000000009920 g     F .text	0000000000000030 strcmp
00000000000001c8 g     F .text	000000000000000c _utee_open_ta_session
0000000000001e5c g     F .text	000000000000008c TEE_BigIntConvertToS32
0000000000002338 g     F .text	000000000000000c TEE_BigIntSub
0000000000000178 g     F .text	0000000000000008 tahead_get_trace_level
00000000000003cc g     F .text	000000000000000c _utee_storage_start_enum
0000000000003a14 g     F .text	0000000000000064 tee_map_zi
0000000000006864 g     F .text	0000000000000004 mbedtls_mpi_montred
0000000000009534 g     F .text	000000000000001c memalign
0000000000008148 g     F .text	0000000000000010 mbedtls_ct_uint_mask
0000000000001dd8 g     F .text	0000000000000084 TEE_BigIntConvertFromS32
0000000000005a1c g     F .text	0000000000000040 mbedtls_mpi_add_int
0000000000000348 g     F .text	000000000000000c _utee_authenc_enc_final
00000000000095f8 g     F .text	000000000000015c malloc_buffer_is_within_alloced
00000000000002dc g     F .text	000000000000000c _utee_cryp_obj_close
0000000000002b7c g     F .text	0000000000000004 TEE_BigIntInitFMMContext
0000000000000210 g     F .text	000000000000000c _utee_mask_cancellation
000000000000039c g     F .text	000000000000000c _utee_storage_obj_rename
00000000000024dc g     F .text	0000000000000008 TEE_BigIntSquare
00000000000003f0 g     F .text	000000000000000c _utee_storage_obj_write
0000000000000110 g     F .text	0000000000000008 TA_CreateEntryPoint
0000000000000164 g     F .text	0000000000000014 __ta_entry
0000000000000330 g     F .text	000000000000000c _utee_authenc_update_aad
0000000000006854 g     F .text	0000000000000008 mbedtls_mpi_montg_init
0000000000009a4c g     F .text	0000000000000074 snprintk
00000000000022ec g     F .text	0000000000000040 TEE_BigIntGetBitCount
0000000000000300 g     F .text	000000000000000c _utee_cryp_obj_copy
00000000000026e8 g     F .text	000000000000000c TEE_BigIntMulMod
00000000000074f4 g     F .text	0000000000000420 mbedtls_mpi_inv_mod
0000000000015508 g     O .bss	0000000000000040 ta_params
0000000000005ec0 g     F .text	0000000000000504 mbedtls_mpi_div_mpi
0000000000005040 g     F .text	000000000000001c mbedtls_mpi_size
0000000000008930 g     F .text	0000000000000308 bget
00000000000037dc g     F .text	0000000000000010 TEE_StartPropertyEnumerator
000000000000021c g     F .text	000000000000000c _utee_wait
0000000000004ef4 g     F .text	000000000000008c mbedtls_mpi_set_bit
00000000000013c8 g     F .text	0000000000000010 TEE_Free
00000000000079bc g     F .text	0000000000000010 mbedtls_mpi_is_prime
0000000000001418 g     F .text	0000000000000008 TEE_CacheInvalidate
0000000000003f4c g     F .text	0000000000000014 _assert_break
00000000000026d0 g     F .text	000000000000000c TEE_BigIntAddMod
00000000000081cc g     F .text	000000000000003c mbedtls_ct_mpi_uint_cond_assign
0000000000000228 g     F .text	000000000000000c _utee_get_time
00000000000037ec g     F .text	00000000000000f4 TEE_GetPropertyName
00000000000002f4 g     F .text	000000000000000c _utee_cryp_obj_populate
00000000000011fc g     F .text	0000000000000008 TEE_MemCompare
0000000000000294 g     F .text	000000000000000c _utee_cipher_update
000000000000996c g     F .text	000000000000008c __vsnprintf
0000000000015548 g     O .bss	0000000000000010 __elf_phdr_info
0000000000000fbc g     F .text	00000000000000f8 TEE_OpenTASession
0000000000000af8 g     F .text	0000000000000028 trace_ext_puts
0000000000000b20 g     F .text	0000000000000008 trace_ext_get_thread_id
000000000000030c g     F .text	000000000000000c _utee_cryp_derive_key
0000000000004a20 g     F .text	000000000000006c mbedtls_mpi_free
00000000000002e8 g     F .text	000000000000000c _utee_cryp_obj_reset
0000000000001408 g     F .text	0000000000000008 TEE_CacheClean
00000000000001bc g     F .text	000000000000000c _utee_get_property_name_to_index
00000000000092a8 g     F .text	0000000000000070 raw_calloc
0000000000003f78 g     F .text	0000000000000118 _base64_enc
0000000000008454 g     F .text	0000000000000100 mbedtls_mpi_safe_cond_swap
0000000000000324 g     F .text	000000000000000c _utee_authenc_init
0000000000009950 g     F .text	000000000000001c strlen
00000000000028f0 g     F .text	0000000000000238 TEE_BigIntComputeExtendedGcd
00000000000003a8 g     F .text	000000000000000c _utee_storage_alloc_enum
000000000000120c g     F .text	0000000000000028 TEE_GetSystemTime
000000000000036c g     F .text	000000000000000c _utee_asymm_verify
0000000000000000 g     O .ta_head	0000000000000020 ta_head
0000000000008cc0 g     F .text	00000000000002c0 brel
00000000000057a4 g     F .text	0000000000000164 mbedtls_mpi_sub_abs
0000000000007098 g     F .text	0000000000000068 mbedtls_mpi_fill_random
00000000000011dc g     F .text	000000000000000c TEE_SetInstanceData
00000000000001ec g     F .text	000000000000000c _utee_get_cancellation_flag
0000000000006558 g     F .text	0000000000000254 mbedtls_mpi_write_string
0000000000000d28 g     F .text	0000000000000028 TEE_CloseTASession
0000000000000384 g     F .text	000000000000000c _utee_storage_obj_create
0000000000009550 g     F .text	0000000000000010 free
0000000000009128 g     F .text	0000000000000098 bstats
0000000000018578 g     O .bss	0000000000000008 mbedtls_mpi_mempool
000000000000027c g     F .text	000000000000000c _utee_hash_final



Disassembly of section .text:

0000000000000020 <memcpy>:
memcpy():
/home/xiang/rockpi4-android/optee_os/lib/libutils/isoc/newlib/memcpy.c:99
      20:	aa0003e5 	mov	x5, x0
/home/xiang/rockpi4-android/optee_os/lib/libutils/isoc/newlib/memcpy.c:106
      24:	f1007c5f 	cmp	x2, #0x1f
      28:	54000569 	b.ls	d4 <memcpy+0xb4>
/home/xiang/rockpi4-android/optee_os/lib/libutils/isoc/newlib/memcpy.c:106 (discriminator 1)
      2c:	aa000023 	orr	x3, x1, x0
      30:	f240087f 	tst	x3, #0x7
      34:	54000621 	b.ne	f8 <memcpy+0xd8>
      38:	d1008047 	sub	x7, x2, #0x20
/home/xiang/rockpi4-android/optee_os/lib/libutils/isoc/newlib/memcpy.c:106
      3c:	aa0103e4 	mov	x4, x1
      40:	927be8e6 	and	x6, x7, #0xffffffffffffffe0
      44:	aa0003e3 	mov	x3, x0
      48:	910080c6 	add	x6, x6, #0x20
      4c:	8b060006 	add	x6, x0, x6
/home/xiang/rockpi4-android/optee_os/lib/libutils/isoc/newlib/memcpy.c:112
      50:	f9400085 	ldr	x5, [x4]
      54:	91008084 	add	x4, x4, #0x20
      58:	f9000065 	str	x5, [x3]
      5c:	91008063 	add	x3, x3, #0x20
/home/xiang/rockpi4-android/optee_os/lib/libutils/isoc/newlib/memcpy.c:111
      60:	eb0300df 	cmp	x6, x3
/home/xiang/rockpi4-android/optee_os/lib/libutils/isoc/newlib/memcpy.c:113
      64:	f85e8085 	ldur	x5, [x4,#-24]
      68:	f81e8065 	stur	x5, [x3,#-24]
/home/xiang/rockpi4-android/optee_os/lib/libutils/isoc/newlib/memcpy.c:114
      6c:	f85f0085 	ldur	x5, [x4,#-16]
      70:	f81f0065 	stur	x5, [x3,#-16]
/home/xiang/rockpi4-android/optee_os/lib/libutils/isoc/newlib/memcpy.c:115
      74:	f85f8085 	ldur	x5, [x4,#-8]
      78:	f81f8065 	stur	x5, [x3,#-8]
/home/xiang/rockpi4-android/optee_os/lib/libutils/isoc/newlib/memcpy.c:111
      7c:	54fffea1 	b.ne	50 <memcpy+0x30>
      80:	927be8e4 	and	x4, x7, #0xffffffffffffffe0
      84:	92401043 	and	x3, x2, #0x1f
      88:	91008084 	add	x4, x4, #0x20
/home/xiang/rockpi4-android/optee_os/lib/libutils/isoc/newlib/memcpy.c:120
      8c:	f1001c7f 	cmp	x3, #0x7
      90:	8b040005 	add	x5, x0, x4
      94:	8b040021 	add	x1, x1, x4
      98:	54000369 	b.ls	104 <memcpy+0xe4>
      9c:	d1002067 	sub	x7, x3, #0x8
      a0:	d2800003 	mov	x3, #0x0                   	// #0
      a4:	927df0e6 	and	x6, x7, #0xfffffffffffffff8
      a8:	910020c6 	add	x6, x6, #0x8
/home/xiang/rockpi4-android/optee_os/lib/libutils/isoc/newlib/memcpy.c:121
      ac:	f8636824 	ldr	x4, [x1,x3]
      b0:	f82368a4 	str	x4, [x5,x3]
      b4:	91002063 	add	x3, x3, #0x8
/home/xiang/rockpi4-android/optee_os/lib/libutils/isoc/newlib/memcpy.c:120
      b8:	eb06007f 	cmp	x3, x6
      bc:	54ffff81 	b.ne	ac <memcpy+0x8c>
      c0:	927df0e3 	and	x3, x7, #0xfffffffffffffff8
      c4:	92400842 	and	x2, x2, #0x7
      c8:	91002063 	add	x3, x3, #0x8
/home/xiang/rockpi4-android/optee_os/lib/libutils/isoc/newlib/memcpy.c:121
      cc:	8b030021 	add	x1, x1, x3
      d0:	8b0300a5 	add	x5, x5, x3
/home/xiang/rockpi4-android/optee_os/lib/libutils/isoc/newlib/memcpy.c:130
      d4:	b4000162 	cbz	x2, 100 <memcpy+0xe0>
/home/xiang/rockpi4-android/optee_os/lib/libutils/isoc/newlib/memcpy.c:100
      d8:	d2800003 	mov	x3, #0x0                   	// #0
/home/xiang/rockpi4-android/optee_os/lib/libutils/isoc/newlib/memcpy.c:131
      dc:	38636824 	ldrb	w4, [x1,x3]
      e0:	382368a4 	strb	w4, [x5,x3]
      e4:	91000463 	add	x3, x3, #0x1
/home/xiang/rockpi4-android/optee_os/lib/libutils/isoc/newlib/memcpy.c:130
      e8:	eb02007f 	cmp	x3, x2
      ec:	54ffff81 	b.ne	dc <memcpy+0xbc>
/home/xiang/rockpi4-android/optee_os/lib/libutils/isoc/newlib/memcpy.c:135
      f0:	d65f03c0 	ret
      f4:	d503201f 	nop
/home/xiang/rockpi4-android/optee_os/lib/libutils/isoc/newlib/memcpy.c:99
      f8:	aa0003e5 	mov	x5, x0
      fc:	17fffff7 	b	d8 <memcpy+0xb8>
     100:	d65f03c0 	ret
/home/xiang/rockpi4-android/optee_os/lib/libutils/isoc/newlib/memcpy.c:120
     104:	aa0303e2 	mov	x2, x3
/home/xiang/rockpi4-android/optee_os/lib/libutils/isoc/newlib/memcpy.c:130
     108:	b5fffe82 	cbnz	x2, d8 <memcpy+0xb8>
     10c:	17fffffd 	b	100 <memcpy+0xe0>

0000000000000110 <TA_CreateEntryPoint>:
TA_CreateEntryPoint():
/home/xiang/rockpi4-android/external/hello_ta/ta/hello_ta.c:29
     110:	52800000 	mov	w0, #0x0                   	// #0
     114:	d65f03c0 	ret

0000000000000118 <TA_DestroyEntryPoint>:
TA_DestroyEntryPoint():
/home/xiang/rockpi4-android/external/hello_ta/ta/hello_ta.c:35
     118:	d65f03c0 	ret

000000000000011c <TA_OpenSessionEntryPoint>:
TA_OpenSessionEntryPoint():
/home/xiang/rockpi4-android/external/hello_ta/ta/hello_ta.c:59
     11c:	7100001f 	cmp	w0, #0x0
/home/xiang/rockpi4-android/external/hello_ta/ta/hello_ta.c:60
     120:	129fff20 	mov	w0, #0xffff0006            	// #-65530
     124:	1a9f1000 	csel	w0, w0, wzr, ne
     128:	d65f03c0 	ret

000000000000012c <TA_CloseSessionEntryPoint>:
TA_CloseSessionEntryPoint():
/home/xiang/rockpi4-android/external/hello_ta/ta/hello_ta.c:66
     12c:	d65f03c0 	ret

0000000000000130 <TA_InvokeCommandEntryPoint>:
TA_InvokeCommandEntryPoint():
/home/xiang/rockpi4-android/external/hello_ta/ta/hello_ta.c:81
     130:	34000161 	cbz	w1, 15c <TA_InvokeCommandEntryPoint+0x2c>
     134:	7100043f 	cmp	w1, #0x1
     138:	54000060 	b.eq	144 <TA_InvokeCommandEntryPoint+0x14>
/home/xiang/rockpi4-android/external/hello_ta/ta/hello_ta.c:88
     13c:	129fff20 	mov	w0, #0xffff0006            	// #-65530
/home/xiang/rockpi4-android/external/hello_ta/ta/hello_ta.c:98
     140:	d65f03c0 	ret
/home/xiang/rockpi4-android/external/hello_ta/ta/hello_ta.c:87
     144:	12000c42 	and	w2, w2, #0xf
     148:	71000c5f 	cmp	w2, #0x3
     14c:	54ffff81 	b.ne	13c <TA_InvokeCommandEntryPoint+0xc>
/home/xiang/rockpi4-android/external/hello_ta/ta/hello_ta.c:91
     150:	b9400060 	ldr	w0, [x3]
     154:	11000400 	add	w0, w0, #0x1
     158:	b9000060 	str	w0, [x3]
/home/xiang/rockpi4-android/external/hello_ta/ta/hello_ta.c:84
     15c:	52800000 	mov	w0, #0x0                   	// #0
     160:	d65f03c0 	ret

0000000000000164 <__ta_entry>:
__ta_entry():
/home/xiang/rockpi4-android/optee_os/out/arm-plat-rockchip/export-ta_arm64/src/user_ta_header.c:48
     164:	a9bf7bfd 	stp	x29, x30, [sp,#-16]!
     168:	910003fd 	mov	x29, sp
/home/xiang/rockpi4-android/optee_os/out/arm-plat-rockchip/export-ta_arm64/src/user_ta_header.c:49
     16c:	940001cf 	bl	8a8 <__utee_entry>
/home/xiang/rockpi4-android/optee_os/out/arm-plat-rockchip/export-ta_arm64/src/user_ta_header.c:60
     170:	2a0003e0 	mov	w0, w0
     174:	94000006 	bl	18c <_utee_return>

0000000000000178 <tahead_get_trace_level>:
tahead_get_trace_level():
/home/xiang/rockpi4-android/optee_os/out/arm-plat-rockchip/export-ta_arm64/src/user_ta_header.c:154
     178:	52800020 	mov	w0, #0x1                   	// #1
     17c:	d65f03c0 	ret

0000000000000180 <_utee_panic>:
_utee_panic():
/home/xiang/rockpi4-android/optee_os/lib/libutee/arch/arm/utee_syscalls_a64.S:41
     180:	a9bf7bfd 	stp	x29, x30, [sp,#-16]!
/home/xiang/rockpi4-android/optee_os/lib/libutee/arch/arm/utee_syscalls_a64.S:42
     184:	910003e1 	mov	x1, sp
/home/xiang/rockpi4-android/optee_os/lib/libutee/arch/arm/utee_syscalls_a64.S:43
     188:	94000007 	bl	1a4 <__utee_panic>

000000000000018c <_utee_return>:
_utee_return():
/home/xiang/rockpi4-android/optee_os/lib/libutee/arch/arm/utee_syscalls_asm.S:8
     18c:	d2800008 	mov	x8, #0x0                   	// #0
     190:	d4000001 	svc	#0x0
     194:	d65f03c0 	ret

0000000000000198 <_utee_log>:
_utee_log():
/home/xiang/rockpi4-android/optee_os/lib/libutee/arch/arm/utee_syscalls_asm.S:10
     198:	d2800028 	mov	x8, #0x1                   	// #1
     19c:	d4000001 	svc	#0x0
     1a0:	d65f03c0 	ret

00000000000001a4 <__utee_panic>:
__utee_panic():
/home/xiang/rockpi4-android/optee_os/lib/libutee/arch/arm/utee_syscalls_asm.S:12
     1a4:	d2800048 	mov	x8, #0x2                   	// #2
     1a8:	d4000001 	svc	#0x0
     1ac:	d65f03c0 	ret

00000000000001b0 <_utee_get_property>:
_utee_get_property():
/home/xiang/rockpi4-android/optee_os/lib/libutee/arch/arm/utee_syscalls_asm.S:14
     1b0:	d2800068 	mov	x8, #0x3                   	// #3
     1b4:	d4000001 	svc	#0x0
     1b8:	d65f03c0 	ret

00000000000001bc <_utee_get_property_name_to_index>:
_utee_get_property_name_to_index():
/home/xiang/rockpi4-android/optee_os/lib/libutee/arch/arm/utee_syscalls_asm.S:16
     1bc:	d2800088 	mov	x8, #0x4                   	// #4
     1c0:	d4000001 	svc	#0x0
     1c4:	d65f03c0 	ret

00000000000001c8 <_utee_open_ta_session>:
_utee_open_ta_session():
/home/xiang/rockpi4-android/optee_os/lib/libutee/arch/arm/utee_syscalls_asm.S:19
     1c8:	d28000a8 	mov	x8, #0x5                   	// #5
     1cc:	d4000001 	svc	#0x0
     1d0:	d65f03c0 	ret

00000000000001d4 <_utee_close_ta_session>:
_utee_close_ta_session():
/home/xiang/rockpi4-android/optee_os/lib/libutee/arch/arm/utee_syscalls_asm.S:21
     1d4:	d28000c8 	mov	x8, #0x6                   	// #6
     1d8:	d4000001 	svc	#0x0
     1dc:	d65f03c0 	ret

00000000000001e0 <_utee_invoke_ta_command>:
_utee_invoke_ta_command():
/home/xiang/rockpi4-android/optee_os/lib/libutee/arch/arm/utee_syscalls_asm.S:23
     1e0:	d28000e8 	mov	x8, #0x7                   	// #7
     1e4:	d4000001 	svc	#0x0
     1e8:	d65f03c0 	ret

00000000000001ec <_utee_get_cancellation_flag>:
_utee_get_cancellation_flag():
/home/xiang/rockpi4-android/optee_os/lib/libutee/arch/arm/utee_syscalls_asm.S:25
     1ec:	d2800128 	mov	x8, #0x9                   	// #9
     1f0:	d4000001 	svc	#0x0
     1f4:	d65f03c0 	ret

00000000000001f8 <_utee_check_access_rights>:
_utee_check_access_rights():
/home/xiang/rockpi4-android/optee_os/lib/libutee/arch/arm/utee_syscalls_asm.S:28
     1f8:	d2800108 	mov	x8, #0x8                   	// #8
     1fc:	d4000001 	svc	#0x0
     200:	d65f03c0 	ret

0000000000000204 <_utee_unmask_cancellation>:
_utee_unmask_cancellation():
/home/xiang/rockpi4-android/optee_os/lib/libutee/arch/arm/utee_syscalls_asm.S:30
     204:	d2800148 	mov	x8, #0xa                   	// #10
     208:	d4000001 	svc	#0x0
     20c:	d65f03c0 	ret

0000000000000210 <_utee_mask_cancellation>:
_utee_mask_cancellation():
/home/xiang/rockpi4-android/optee_os/lib/libutee/arch/arm/utee_syscalls_asm.S:32
     210:	d2800168 	mov	x8, #0xb                   	// #11
     214:	d4000001 	svc	#0x0
     218:	d65f03c0 	ret

000000000000021c <_utee_wait>:
_utee_wait():
/home/xiang/rockpi4-android/optee_os/lib/libutee/arch/arm/utee_syscalls_asm.S:34
     21c:	d2800188 	mov	x8, #0xc                   	// #12
     220:	d4000001 	svc	#0x0
     224:	d65f03c0 	ret

0000000000000228 <_utee_get_time>:
_utee_get_time():
/home/xiang/rockpi4-android/optee_os/lib/libutee/arch/arm/utee_syscalls_asm.S:36
     228:	d28001a8 	mov	x8, #0xd                   	// #13
     22c:	d4000001 	svc	#0x0
     230:	d65f03c0 	ret

0000000000000234 <_utee_set_ta_time>:
_utee_set_ta_time():
/home/xiang/rockpi4-android/optee_os/lib/libutee/arch/arm/utee_syscalls_asm.S:38
     234:	d28001c8 	mov	x8, #0xe                   	// #14
     238:	d4000001 	svc	#0x0
     23c:	d65f03c0 	ret

0000000000000240 <_utee_cryp_state_alloc>:
_utee_cryp_state_alloc():
/home/xiang/rockpi4-android/optee_os/lib/libutee/arch/arm/utee_syscalls_asm.S:40
     240:	d28001e8 	mov	x8, #0xf                   	// #15
     244:	d4000001 	svc	#0x0
     248:	d65f03c0 	ret

000000000000024c <_utee_cryp_state_copy>:
_utee_cryp_state_copy():
/home/xiang/rockpi4-android/optee_os/lib/libutee/arch/arm/utee_syscalls_asm.S:42
     24c:	d2800208 	mov	x8, #0x10                  	// #16
     250:	d4000001 	svc	#0x0
     254:	d65f03c0 	ret

0000000000000258 <_utee_cryp_state_free>:
_utee_cryp_state_free():
/home/xiang/rockpi4-android/optee_os/lib/libutee/arch/arm/utee_syscalls_asm.S:44
     258:	d2800228 	mov	x8, #0x11                  	// #17
     25c:	d4000001 	svc	#0x0
     260:	d65f03c0 	ret

0000000000000264 <_utee_hash_init>:
_utee_hash_init():
/home/xiang/rockpi4-android/optee_os/lib/libutee/arch/arm/utee_syscalls_asm.S:46
     264:	d2800248 	mov	x8, #0x12                  	// #18
     268:	d4000001 	svc	#0x0
     26c:	d65f03c0 	ret

0000000000000270 <_utee_hash_update>:
_utee_hash_update():
/home/xiang/rockpi4-android/optee_os/lib/libutee/arch/arm/utee_syscalls_asm.S:48
     270:	d2800268 	mov	x8, #0x13                  	// #19
     274:	d4000001 	svc	#0x0
     278:	d65f03c0 	ret

000000000000027c <_utee_hash_final>:
_utee_hash_final():
/home/xiang/rockpi4-android/optee_os/lib/libutee/arch/arm/utee_syscalls_asm.S:50
     27c:	d2800288 	mov	x8, #0x14                  	// #20
     280:	d4000001 	svc	#0x0
     284:	d65f03c0 	ret

0000000000000288 <_utee_cipher_init>:
_utee_cipher_init():
/home/xiang/rockpi4-android/optee_os/lib/libutee/arch/arm/utee_syscalls_asm.S:52
     288:	d28002a8 	mov	x8, #0x15                  	// #21
     28c:	d4000001 	svc	#0x0
     290:	d65f03c0 	ret

0000000000000294 <_utee_cipher_update>:
_utee_cipher_update():
/home/xiang/rockpi4-android/optee_os/lib/libutee/arch/arm/utee_syscalls_asm.S:54
     294:	d28002c8 	mov	x8, #0x16                  	// #22
     298:	d4000001 	svc	#0x0
     29c:	d65f03c0 	ret

00000000000002a0 <_utee_cipher_final>:
_utee_cipher_final():
/home/xiang/rockpi4-android/optee_os/lib/libutee/arch/arm/utee_syscalls_asm.S:56
     2a0:	d28002e8 	mov	x8, #0x17                  	// #23
     2a4:	d4000001 	svc	#0x0
     2a8:	d65f03c0 	ret

00000000000002ac <_utee_cryp_obj_get_info>:
_utee_cryp_obj_get_info():
/home/xiang/rockpi4-android/optee_os/lib/libutee/arch/arm/utee_syscalls_asm.S:58
     2ac:	d2800308 	mov	x8, #0x18                  	// #24
     2b0:	d4000001 	svc	#0x0
     2b4:	d65f03c0 	ret

00000000000002b8 <_utee_cryp_obj_restrict_usage>:
_utee_cryp_obj_restrict_usage():
/home/xiang/rockpi4-android/optee_os/lib/libutee/arch/arm/utee_syscalls_asm.S:60
     2b8:	d2800328 	mov	x8, #0x19                  	// #25
     2bc:	d4000001 	svc	#0x0
     2c0:	d65f03c0 	ret

00000000000002c4 <_utee_cryp_obj_get_attr>:
_utee_cryp_obj_get_attr():
/home/xiang/rockpi4-android/optee_os/lib/libutee/arch/arm/utee_syscalls_asm.S:63
     2c4:	d2800348 	mov	x8, #0x1a                  	// #26
     2c8:	d4000001 	svc	#0x0
     2cc:	d65f03c0 	ret

00000000000002d0 <_utee_cryp_obj_alloc>:
_utee_cryp_obj_alloc():
/home/xiang/rockpi4-android/optee_os/lib/libutee/arch/arm/utee_syscalls_asm.S:65
     2d0:	d2800368 	mov	x8, #0x1b                  	// #27
     2d4:	d4000001 	svc	#0x0
     2d8:	d65f03c0 	ret

00000000000002dc <_utee_cryp_obj_close>:
_utee_cryp_obj_close():
/home/xiang/rockpi4-android/optee_os/lib/libutee/arch/arm/utee_syscalls_asm.S:67
     2dc:	d2800388 	mov	x8, #0x1c                  	// #28
     2e0:	d4000001 	svc	#0x0
     2e4:	d65f03c0 	ret

00000000000002e8 <_utee_cryp_obj_reset>:
_utee_cryp_obj_reset():
/home/xiang/rockpi4-android/optee_os/lib/libutee/arch/arm/utee_syscalls_asm.S:69
     2e8:	d28003a8 	mov	x8, #0x1d                  	// #29
     2ec:	d4000001 	svc	#0x0
     2f0:	d65f03c0 	ret

00000000000002f4 <_utee_cryp_obj_populate>:
_utee_cryp_obj_populate():
/home/xiang/rockpi4-android/optee_os/lib/libutee/arch/arm/utee_syscalls_asm.S:71
     2f4:	d28003c8 	mov	x8, #0x1e                  	// #30
     2f8:	d4000001 	svc	#0x0
     2fc:	d65f03c0 	ret

0000000000000300 <_utee_cryp_obj_copy>:
_utee_cryp_obj_copy():
/home/xiang/rockpi4-android/optee_os/lib/libutee/arch/arm/utee_syscalls_asm.S:73
     300:	d28003e8 	mov	x8, #0x1f                  	// #31
     304:	d4000001 	svc	#0x0
     308:	d65f03c0 	ret

000000000000030c <_utee_cryp_derive_key>:
_utee_cryp_derive_key():
/home/xiang/rockpi4-android/optee_os/lib/libutee/arch/arm/utee_syscalls_asm.S:75
     30c:	d2800408 	mov	x8, #0x20                  	// #32
     310:	d4000001 	svc	#0x0
     314:	d65f03c0 	ret

0000000000000318 <_utee_cryp_random_number_generate>:
_utee_cryp_random_number_generate():
/home/xiang/rockpi4-android/optee_os/lib/libutee/arch/arm/utee_syscalls_asm.S:77
     318:	d2800428 	mov	x8, #0x21                  	// #33
     31c:	d4000001 	svc	#0x0
     320:	d65f03c0 	ret

0000000000000324 <_utee_authenc_init>:
_utee_authenc_init():
/home/xiang/rockpi4-android/optee_os/lib/libutee/arch/arm/utee_syscalls_asm.S:80
     324:	d2800448 	mov	x8, #0x22                  	// #34
     328:	d4000001 	svc	#0x0
     32c:	d65f03c0 	ret

0000000000000330 <_utee_authenc_update_aad>:
_utee_authenc_update_aad():
/home/xiang/rockpi4-android/optee_os/lib/libutee/arch/arm/utee_syscalls_asm.S:82
     330:	d2800468 	mov	x8, #0x23                  	// #35
     334:	d4000001 	svc	#0x0
     338:	d65f03c0 	ret

000000000000033c <_utee_authenc_update_payload>:
_utee_authenc_update_payload():
/home/xiang/rockpi4-android/optee_os/lib/libutee/arch/arm/utee_syscalls_asm.S:84
     33c:	d2800488 	mov	x8, #0x24                  	// #36
     340:	d4000001 	svc	#0x0
     344:	d65f03c0 	ret

0000000000000348 <_utee_authenc_enc_final>:
_utee_authenc_enc_final():
/home/xiang/rockpi4-android/optee_os/lib/libutee/arch/arm/utee_syscalls_asm.S:87
     348:	d28004a8 	mov	x8, #0x25                  	// #37
     34c:	d4000001 	svc	#0x0
     350:	d65f03c0 	ret

0000000000000354 <_utee_authenc_dec_final>:
_utee_authenc_dec_final():
/home/xiang/rockpi4-android/optee_os/lib/libutee/arch/arm/utee_syscalls_asm.S:89
     354:	d28004c8 	mov	x8, #0x26                  	// #38
     358:	d4000001 	svc	#0x0
     35c:	d65f03c0 	ret

0000000000000360 <_utee_asymm_operate>:
_utee_asymm_operate():
/home/xiang/rockpi4-android/optee_os/lib/libutee/arch/arm/utee_syscalls_asm.S:91
     360:	d28004e8 	mov	x8, #0x27                  	// #39
     364:	d4000001 	svc	#0x0
     368:	d65f03c0 	ret

000000000000036c <_utee_asymm_verify>:
_utee_asymm_verify():
/home/xiang/rockpi4-android/optee_os/lib/libutee/arch/arm/utee_syscalls_asm.S:93
     36c:	d2800508 	mov	x8, #0x28                  	// #40
     370:	d4000001 	svc	#0x0
     374:	d65f03c0 	ret

0000000000000378 <_utee_storage_obj_open>:
_utee_storage_obj_open():
/home/xiang/rockpi4-android/optee_os/lib/libutee/arch/arm/utee_syscalls_asm.S:95
     378:	d2800528 	mov	x8, #0x29                  	// #41
     37c:	d4000001 	svc	#0x0
     380:	d65f03c0 	ret

0000000000000384 <_utee_storage_obj_create>:
_utee_storage_obj_create():
/home/xiang/rockpi4-android/optee_os/lib/libutee/arch/arm/utee_syscalls_asm.S:97
     384:	d2800548 	mov	x8, #0x2a                  	// #42
     388:	d4000001 	svc	#0x0
     38c:	d65f03c0 	ret

0000000000000390 <_utee_storage_obj_del>:
_utee_storage_obj_del():
/home/xiang/rockpi4-android/optee_os/lib/libutee/arch/arm/utee_syscalls_asm.S:99
     390:	d2800568 	mov	x8, #0x2b                  	// #43
     394:	d4000001 	svc	#0x0
     398:	d65f03c0 	ret

000000000000039c <_utee_storage_obj_rename>:
_utee_storage_obj_rename():
/home/xiang/rockpi4-android/optee_os/lib/libutee/arch/arm/utee_syscalls_asm.S:101
     39c:	d2800588 	mov	x8, #0x2c                  	// #44
     3a0:	d4000001 	svc	#0x0
     3a4:	d65f03c0 	ret

00000000000003a8 <_utee_storage_alloc_enum>:
_utee_storage_alloc_enum():
/home/xiang/rockpi4-android/optee_os/lib/libutee/arch/arm/utee_syscalls_asm.S:103
     3a8:	d28005a8 	mov	x8, #0x2d                  	// #45
     3ac:	d4000001 	svc	#0x0
     3b0:	d65f03c0 	ret

00000000000003b4 <_utee_storage_free_enum>:
_utee_storage_free_enum():
/home/xiang/rockpi4-android/optee_os/lib/libutee/arch/arm/utee_syscalls_asm.S:105
     3b4:	d28005c8 	mov	x8, #0x2e                  	// #46
     3b8:	d4000001 	svc	#0x0
     3bc:	d65f03c0 	ret

00000000000003c0 <_utee_storage_reset_enum>:
_utee_storage_reset_enum():
/home/xiang/rockpi4-android/optee_os/lib/libutee/arch/arm/utee_syscalls_asm.S:107
     3c0:	d28005e8 	mov	x8, #0x2f                  	// #47
     3c4:	d4000001 	svc	#0x0
     3c8:	d65f03c0 	ret

00000000000003cc <_utee_storage_start_enum>:
_utee_storage_start_enum():
/home/xiang/rockpi4-android/optee_os/lib/libutee/arch/arm/utee_syscalls_asm.S:109
     3cc:	d2800608 	mov	x8, #0x30                  	// #48
     3d0:	d4000001 	svc	#0x0
     3d4:	d65f03c0 	ret

00000000000003d8 <_utee_storage_next_enum>:
_utee_storage_next_enum():
/home/xiang/rockpi4-android/optee_os/lib/libutee/arch/arm/utee_syscalls_asm.S:111
     3d8:	d2800628 	mov	x8, #0x31                  	// #49
     3dc:	d4000001 	svc	#0x0
     3e0:	d65f03c0 	ret

00000000000003e4 <_utee_storage_obj_read>:
_utee_storage_obj_read():
/home/xiang/rockpi4-android/optee_os/lib/libutee/arch/arm/utee_syscalls_asm.S:113
     3e4:	d2800648 	mov	x8, #0x32                  	// #50
     3e8:	d4000001 	svc	#0x0
     3ec:	d65f03c0 	ret

00000000000003f0 <_utee_storage_obj_write>:
_utee_storage_obj_write():
/home/xiang/rockpi4-android/optee_os/lib/libutee/arch/arm/utee_syscalls_asm.S:115
     3f0:	d2800668 	mov	x8, #0x33                  	// #51
     3f4:	d4000001 	svc	#0x0
     3f8:	d65f03c0 	ret

00000000000003fc <_utee_storage_obj_trunc>:
_utee_storage_obj_trunc():
/home/xiang/rockpi4-android/optee_os/lib/libutee/arch/arm/utee_syscalls_asm.S:117
     3fc:	d2800688 	mov	x8, #0x34                  	// #52
     400:	d4000001 	svc	#0x0
     404:	d65f03c0 	ret

0000000000000408 <_utee_storage_obj_seek>:
_utee_storage_obj_seek():
/home/xiang/rockpi4-android/optee_os/lib/libutee/arch/arm/utee_syscalls_asm.S:119
     408:	d28006a8 	mov	x8, #0x35                  	// #53
     40c:	d4000001 	svc	#0x0
     410:	d65f03c0 	ret

0000000000000414 <_utee_cryp_obj_generate_key>:
_utee_cryp_obj_generate_key():
/home/xiang/rockpi4-android/optee_os/lib/libutee/arch/arm/utee_syscalls_asm.S:121
     414:	d28006c8 	mov	x8, #0x36                  	// #54
     418:	d4000001 	svc	#0x0
     41c:	d65f03c0 	ret

0000000000000420 <_utee_cache_operation>:
_utee_cache_operation():
/home/xiang/rockpi4-android/optee_os/lib/libutee/arch/arm/utee_syscalls_asm.S:124
     420:	d28008c8 	mov	x8, #0x46                  	// #70
     424:	d4000001 	svc	#0x0
     428:	d65f03c0 	ret

000000000000042c <_get_fn_array>:
_get_fn_array():
/home/xiang/rockpi4-android/optee_os/lib/libutee/arch/arm/user_ta_entry.c:81
     42c:	79403009 	ldrh	w9, [x0,#24]
/home/xiang/rockpi4-android/optee_os/lib/libutee/arch/arm/user_ta_entry.c:92
     430:	93407c21 	sxtw	x1, w1
/home/xiang/rockpi4-android/optee_os/lib/libutee/arch/arm/user_ta_entry.c:95
     434:	93407c42 	sxtw	x2, w2
/home/xiang/rockpi4-android/optee_os/lib/libutee/arch/arm/user_ta_entry.c:81
     438:	d2800007 	mov	x7, #0x0                   	// #0
/home/xiang/rockpi4-android/optee_os/lib/libutee/arch/arm/user_ta_entry.c:82
     43c:	d280070a 	mov	x10, #0x38                  	// #56
/home/xiang/rockpi4-android/optee_os/lib/libutee/arch/arm/user_ta_entry.c:81 (discriminator 1)
     440:	eb0900ff 	cmp	x7, x9
     444:	54000043 	b.cc	44c <_get_fn_array+0x20>
/home/xiang/rockpi4-android/optee_os/lib/libutee/arch/arm/user_ta_entry.c:101
     448:	d65f03c0 	ret
/home/xiang/rockpi4-android/optee_os/lib/libutee/arch/arm/user_ta_entry.c:82
     44c:	9b0a7ce5 	mul	x5, x7, x10
     450:	f9400808 	ldr	x8, [x0,#16]
     454:	8b050106 	add	x6, x8, x5
/home/xiang/rockpi4-android/optee_os/lib/libutee/arch/arm/user_ta_entry.c:83
     458:	b8656905 	ldr	w5, [x8,x5]
     45c:	710008bf 	cmp	w5, #0x2
     460:	54000060 	b.eq	46c <_get_fn_array+0x40>
/home/xiang/rockpi4-android/optee_os/lib/libutee/arch/arm/user_ta_entry.c:81
     464:	910004e7 	add	x7, x7, #0x1
     468:	17fffff6 	b	440 <_get_fn_array+0x14>
/home/xiang/rockpi4-android/optee_os/lib/libutee/arch/arm/user_ta_entry.c:86
     46c:	f94008c5 	ldr	x5, [x6,#16]
     470:	f9400008 	ldr	x8, [x0]
/home/xiang/rockpi4-android/optee_os/lib/libutee/arch/arm/user_ta_entry.c:85
     474:	f94014c6 	ldr	x6, [x6,#40]
/home/xiang/rockpi4-android/optee_os/lib/libutee/arch/arm/user_ta_entry.c:86
     478:	8b0800a5 	add	x5, x5, x8
     47c:	927cecc6 	and	x6, x6, #0xfffffffffffffff0
     480:	8b0500c6 	add	x6, x6, x5
/home/xiang/rockpi4-android/optee_os/lib/libutee/arch/arm/user_ta_entry.c:87 (discriminator 1)
     484:	eb0600bf 	cmp	x5, x6
     488:	54fffee0 	b.eq	464 <_get_fn_array+0x38>
/home/xiang/rockpi4-android/optee_os/lib/libutee/arch/arm/user_ta_entry.c:88
     48c:	f9400068 	ldr	x8, [x3]
     490:	b4000068 	cbz	x8, 49c <_get_fn_array+0x70>
/home/xiang/rockpi4-android/optee_os/lib/libutee/arch/arm/user_ta_entry.c:88 (discriminator 1)
     494:	f9400088 	ldr	x8, [x4]
     498:	b5fffe68 	cbnz	x8, 464 <_get_fn_array+0x38>
/home/xiang/rockpi4-android/optee_os/lib/libutee/arch/arm/user_ta_entry.c:90
     49c:	f94000a8 	ldr	x8, [x5]
     4a0:	b4fffe28 	cbz	x8, 464 <_get_fn_array+0x38>
/home/xiang/rockpi4-android/optee_os/lib/libutee/arch/arm/user_ta_entry.c:92
     4a4:	eb01011f 	cmp	x8, x1
     4a8:	540000e1 	b.ne	4c4 <_get_fn_array+0x98>
/home/xiang/rockpi4-android/optee_os/lib/libutee/arch/arm/user_ta_entry.c:93
     4ac:	f940000b 	ldr	x11, [x0]
     4b0:	f94004a8 	ldr	x8, [x5,#8]
     4b4:	8b0b0108 	add	x8, x8, x11
     4b8:	f9000068 	str	x8, [x3]
/home/xiang/rockpi4-android/optee_os/lib/libutee/arch/arm/user_ta_entry.c:98 (discriminator 2)
     4bc:	910040a5 	add	x5, x5, #0x10
     4c0:	17fffff1 	b	484 <_get_fn_array+0x58>
/home/xiang/rockpi4-android/optee_os/lib/libutee/arch/arm/user_ta_entry.c:95
     4c4:	eb02011f 	cmp	x8, x2
     4c8:	54ffffa1 	b.ne	4bc <_get_fn_array+0x90>
/home/xiang/rockpi4-android/optee_os/lib/libutee/arch/arm/user_ta_entry.c:96
     4cc:	f94004a8 	ldr	x8, [x5,#8]
     4d0:	d343fd08 	lsr	x8, x8, #3
     4d4:	f9000088 	str	x8, [x4]
     4d8:	17fffff9 	b	4bc <_get_fn_array+0x90>

00000000000004dc <_fini_iterate_phdr_cb>:
_fini_iterate_phdr_cb():
/home/xiang/rockpi4-android/optee_os/lib/libutee/arch/arm/user_ta_entry.c:137
     4dc:	a9bd7bfd 	stp	x29, x30, [sp,#-48]!
/home/xiang/rockpi4-android/optee_os/lib/libutee/arch/arm/user_ta_entry.c:142
     4e0:	52800382 	mov	w2, #0x1c                  	// #28
     4e4:	52800341 	mov	w1, #0x1a                  	// #26
/home/xiang/rockpi4-android/optee_os/lib/libutee/arch/arm/user_ta_entry.c:137
     4e8:	910003fd 	mov	x29, sp
/home/xiang/rockpi4-android/optee_os/lib/libutee/arch/arm/user_ta_entry.c:139
     4ec:	9100c3a4 	add	x4, x29, #0x30
/home/xiang/rockpi4-android/optee_os/lib/libutee/arch/arm/user_ta_entry.c:137
     4f0:	f9000bf3 	str	x19, [sp,#16]
/home/xiang/rockpi4-android/optee_os/lib/libutee/arch/arm/user_ta_entry.c:144
     4f4:	d2800033 	mov	x19, #0x1                   	// #1
/home/xiang/rockpi4-android/optee_os/lib/libutee/arch/arm/user_ta_entry.c:142
     4f8:	910083a3 	add	x3, x29, #0x20
/home/xiang/rockpi4-android/optee_os/lib/libutee/arch/arm/user_ta_entry.c:138
     4fc:	f90013bf 	str	xzr, [x29,#32]
/home/xiang/rockpi4-android/optee_os/lib/libutee/arch/arm/user_ta_entry.c:139
     500:	f81f8c9f 	str	xzr, [x4,#-8]!
/home/xiang/rockpi4-android/optee_os/lib/libutee/arch/arm/user_ta_entry.c:142
     504:	97ffffca 	bl	42c <_get_fn_array>
/home/xiang/rockpi4-android/optee_os/lib/libutee/arch/arm/user_ta_entry.c:144 (discriminator 1)
     508:	f94017a0 	ldr	x0, [x29,#40]
     50c:	eb00027f 	cmp	x19, x0
     510:	540000a9 	b.ls	524 <_fini_iterate_phdr_cb+0x48>
/home/xiang/rockpi4-android/optee_os/lib/libutee/arch/arm/user_ta_entry.c:148
     514:	f9400bf3 	ldr	x19, [sp,#16]
     518:	52800000 	mov	w0, #0x0                   	// #0
     51c:	a8c37bfd 	ldp	x29, x30, [sp],#48
     520:	d65f03c0 	ret
/home/xiang/rockpi4-android/optee_os/lib/libutee/arch/arm/user_ta_entry.c:145 (discriminator 3)
     524:	f94013a1 	ldr	x1, [x29,#32]
     528:	cb130000 	sub	x0, x0, x19
/home/xiang/rockpi4-android/optee_os/lib/libutee/arch/arm/user_ta_entry.c:144 (discriminator 3)
     52c:	91000673 	add	x19, x19, #0x1
/home/xiang/rockpi4-android/optee_os/lib/libutee/arch/arm/user_ta_entry.c:145 (discriminator 3)
     530:	f8607820 	ldr	x0, [x1,x0,lsl #3]
     534:	d63f0000 	blr	x0
     538:	17fffff4 	b	508 <_fini_iterate_phdr_cb+0x2c>

000000000000053c <ta_header_get_session>:
ta_header_get_session():
/home/xiang/rockpi4-android/optee_os/lib/libutee/arch/arm/user_ta_entry.c:196
     53c:	2a0003e1 	mov	w1, w0
/home/xiang/rockpi4-android/optee_os/lib/libutee/arch/arm/user_ta_entry.c:199
     540:	b0000060 	adrp	x0, d000 <_DYNAMIC>
     544:	f941fc00 	ldr	x0, [x0,#1016]
/home/xiang/rockpi4-android/optee_os/lib/libutee/arch/arm/user_ta_entry.c:199 (discriminator 1)
     548:	b5000040 	cbnz	x0, 550 <ta_header_get_session+0x14>
/home/xiang/rockpi4-android/optee_os/lib/libutee/arch/arm/user_ta_entry.c:204
     54c:	d65f03c0 	ret
/home/xiang/rockpi4-android/optee_os/lib/libutee/arch/arm/user_ta_entry.c:200
     550:	b9400002 	ldr	w2, [x0]
     554:	6b01005f 	cmp	w2, w1
     558:	54ffffa0 	b.eq	54c <ta_header_get_session+0x10>
/home/xiang/rockpi4-android/optee_os/lib/libutee/arch/arm/user_ta_entry.c:199 (discriminator 2)
     55c:	f9400800 	ldr	x0, [x0,#16]
     560:	17fffffa 	b	548 <ta_header_get_session+0xc>

0000000000000564 <to_utee_params>:
to_utee_params():
/home/xiang/rockpi4-android/optee_os/lib/libutee/arch/arm/user_ta_entry.c:260
     564:	d0000045 	adrp	x5, a000 <kprintf.constprop.0+0x540>
     568:	913160a5 	add	x5, x5, #0xc58
/home/xiang/rockpi4-android/optee_os/lib/libutee/arch/arm/user_ta_entry.c:258
     56c:	2a0103e3 	mov	w3, w1
     570:	52800004 	mov	w4, #0x0                   	// #0
     574:	f8008403 	str	x3, [x0],#8
/home/xiang/rockpi4-android/optee_os/lib/libutee/arch/arm/user_ta_entry.c:260
     578:	1ac42423 	lsr	w3, w1, w4
     57c:	12000c63 	and	w3, w3, #0xf
     580:	51000463 	sub	w3, w3, #0x1
     584:	7100187f 	cmp	w3, #0x6
     588:	54000268 	b.hi	5d4 <to_utee_params+0x70>
     58c:	386348a3 	ldrb	w3, [x5,w3,uxtw]
     590:	10000066 	adr	x6, 59c <to_utee_params+0x38>
     594:	8b2388c3 	add	x3, x6, w3, sxtb #2
     598:	d61f0060 	br	x3
/home/xiang/rockpi4-android/optee_os/lib/libutee/arch/arm/user_ta_entry.c:264
     59c:	b9400043 	ldr	w3, [x2]
     5a0:	f9000003 	str	x3, [x0]
/home/xiang/rockpi4-android/optee_os/lib/libutee/arch/arm/user_ta_entry.c:265
     5a4:	b9400443 	ldr	w3, [x2,#4]
/home/xiang/rockpi4-android/optee_os/lib/libutee/arch/arm/user_ta_entry.c:271
     5a8:	f9000403 	str	x3, [x0,#8]
     5ac:	11001084 	add	w4, w4, #0x4
     5b0:	91004042 	add	x2, x2, #0x10
     5b4:	91004000 	add	x0, x0, #0x10
/home/xiang/rockpi4-android/optee_os/lib/libutee/arch/arm/user_ta_entry.c:259 (discriminator 2)
     5b8:	7100409f 	cmp	w4, #0x10
     5bc:	54fffde1 	b.ne	578 <to_utee_params+0x14>
/home/xiang/rockpi4-android/optee_os/lib/libutee/arch/arm/user_ta_entry.c:279
     5c0:	d65f03c0 	ret
/home/xiang/rockpi4-android/optee_os/lib/libutee/arch/arm/user_ta_entry.c:270
     5c4:	f9400043 	ldr	x3, [x2]
     5c8:	f9000003 	str	x3, [x0]
/home/xiang/rockpi4-android/optee_os/lib/libutee/arch/arm/user_ta_entry.c:271
     5cc:	b9400843 	ldr	w3, [x2,#8]
     5d0:	17fffff6 	b	5a8 <to_utee_params+0x44>
/home/xiang/rockpi4-android/optee_os/lib/libutee/arch/arm/user_ta_entry.c:275
     5d4:	a9007c1f 	stp	xzr, xzr, [x0]
/home/xiang/rockpi4-android/optee_os/lib/libutee/arch/arm/user_ta_entry.c:276
     5d8:	17fffff5 	b	5ac <to_utee_params+0x48>

00000000000005dc <from_utee_params>:
from_utee_params():
/home/xiang/rockpi4-android/optee_os/lib/libutee/arch/arm/user_ta_entry.c:286
     5dc:	f8408446 	ldr	x6, [x2],#8
/home/xiang/rockpi4-android/optee_os/lib/libutee/arch/arm/user_ta_entry.c:292
     5e0:	d0000045 	adrp	x5, a000 <kprintf.constprop.0+0x540>
     5e4:	913180a5 	add	x5, x5, #0xc60
/home/xiang/rockpi4-android/optee_os/lib/libutee/arch/arm/user_ta_entry.c:286
     5e8:	52800004 	mov	w4, #0x0                   	// #0
     5ec:	2a0603e9 	mov	w9, w6
/home/xiang/rockpi4-android/optee_os/lib/libutee/arch/arm/user_ta_entry.c:292
     5f0:	1ac42523 	lsr	w3, w9, w4
     5f4:	12000c63 	and	w3, w3, #0xf
     5f8:	51000463 	sub	w3, w3, #0x1
     5fc:	7100187f 	cmp	w3, #0x6
/home/xiang/rockpi4-android/optee_os/lib/libutee/arch/arm/user_ta_entry.c:290
     600:	a9401c48 	ldp	x8, x7, [x2]
/home/xiang/rockpi4-android/optee_os/lib/libutee/arch/arm/user_ta_entry.c:292
     604:	540000c8 	b.hi	61c <from_utee_params+0x40>
     608:	386348a3 	ldrb	w3, [x5,w3,uxtw]
     60c:	1000006a 	adr	x10, 618 <from_utee_params+0x3c>
     610:	8b238943 	add	x3, x10, w3, sxtb #2
     614:	d61f0060 	br	x3
/home/xiang/rockpi4-android/optee_os/lib/libutee/arch/arm/user_ta_entry.c:297
     618:	29001c08 	stp	w8, w7, [x0]
     61c:	11001084 	add	w4, w4, #0x4
     620:	91004042 	add	x2, x2, #0x10
     624:	91004000 	add	x0, x0, #0x10
/home/xiang/rockpi4-android/optee_os/lib/libutee/arch/arm/user_ta_entry.c:288 (discriminator 2)
     628:	7100409f 	cmp	w4, #0x10
     62c:	54fffe21 	b.ne	5f0 <from_utee_params+0x14>
/home/xiang/rockpi4-android/optee_os/lib/libutee/arch/arm/user_ta_entry.c:310
     630:	b4000041 	cbz	x1, 638 <from_utee_params+0x5c>
/home/xiang/rockpi4-android/optee_os/lib/libutee/arch/arm/user_ta_entry.c:311
     634:	b9000026 	str	w6, [x1]
     638:	d65f03c0 	ret
/home/xiang/rockpi4-android/optee_os/lib/libutee/arch/arm/user_ta_entry.c:302
     63c:	f9000008 	str	x8, [x0]
/home/xiang/rockpi4-android/optee_os/lib/libutee/arch/arm/user_ta_entry.c:303
     640:	b9000807 	str	w7, [x0,#8]
/home/xiang/rockpi4-android/optee_os/lib/libutee/arch/arm/user_ta_entry.c:304
     644:	17fffff6 	b	61c <from_utee_params+0x40>

0000000000000648 <_init_iterate_phdr_cb>:
_init_iterate_phdr_cb():
/home/xiang/rockpi4-android/optee_os/lib/libutee/arch/arm/user_ta_entry.c:57
     648:	a9bd7bfd 	stp	x29, x30, [sp,#-48]!
     64c:	910003fd 	mov	x29, sp
     650:	a90153f3 	stp	x19, x20, [sp,#16]
     654:	aa0203f4 	mov	x20, x2
     658:	f90013f5 	str	x21, [sp,#32]
     65c:	aa0003f5 	mov	x21, x0
/home/xiang/rockpi4-android/optee_os/lib/libutee/arch/arm/user_ta_entry.c:61
     660:	d2800a00 	mov	x0, #0x50                  	// #80
     664:	940023a1 	bl	94e8 <malloc>
/home/xiang/rockpi4-android/optee_os/lib/libutee/arch/arm/user_ta_entry.c:62
     668:	b5000140 	cbnz	x0, 690 <_init_iterate_phdr_cb+0x48>
/home/xiang/rockpi4-android/optee_os/lib/libutee/arch/arm/user_ta_entry.c:63
     66c:	f0000044 	adrp	x4, b000 <small_prime+0x140>
     670:	d0000040 	adrp	x0, a000 <kprintf.constprop.0+0x540>
     674:	910d8484 	add	x4, x4, #0x361
     678:	9131a000 	add	x0, x0, #0xc68
     67c:	52800023 	mov	w3, #0x1                   	// #1
     680:	52800022 	mov	w2, #0x1                   	// #1
     684:	528007e1 	mov	w1, #0x3f                  	// #63
     688:	940028c1 	bl	a98c <trace_printf>
/home/xiang/rockpi4-android/optee_os/lib/libutee/arch/arm/user_ta_entry.c:64
     68c:	94000113 	bl	ad8 <abort>
     690:	aa0003f3 	mov	x19, x0
/home/xiang/rockpi4-android/optee_os/lib/libutee/arch/arm/user_ta_entry.c:66
     694:	aa1503e1 	mov	x1, x21
     698:	d2800802 	mov	x2, #0x40                  	// #64
     69c:	97fffe61 	bl	20 <memcpy>
/home/xiang/rockpi4-android/optee_os/lib/libutee/arch/arm/user_ta_entry.c:67
     6a0:	b0000060 	adrp	x0, d000 <_DYNAMIC>
     6a4:	910fe000 	add	x0, x0, #0x3f8
/home/xiang/rockpi4-android/optee_os/lib/libutee/arch/arm/user_ta_entry.c:70
     6a8:	f94013f5 	ldr	x21, [sp,#32]
/home/xiang/rockpi4-android/optee_os/lib/libutee/arch/arm/user_ta_entry.c:67
     6ac:	f9400c01 	ldr	x1, [x0,#24]
     6b0:	a904067f 	stp	xzr, x1, [x19,#64]
     6b4:	f9000033 	str	x19, [x1]
     6b8:	91010273 	add	x19, x19, #0x40
     6bc:	f9000c13 	str	x19, [x0,#24]
/home/xiang/rockpi4-android/optee_os/lib/libutee/arch/arm/user_ta_entry.c:68
     6c0:	f9400280 	ldr	x0, [x20]
     6c4:	91000400 	add	x0, x0, #0x1
     6c8:	f9000280 	str	x0, [x20]
/home/xiang/rockpi4-android/optee_os/lib/libutee/arch/arm/user_ta_entry.c:70
     6cc:	52800000 	mov	w0, #0x0                   	// #0
     6d0:	a94153f3 	ldp	x19, x20, [sp,#16]
     6d4:	a8c37bfd 	ldp	x29, x30, [sp],#48
     6d8:	d65f03c0 	ret

00000000000006dc <__utee_call_elf_init_fn>:
__utee_call_elf_init_fn():
/home/xiang/rockpi4-android/optee_os/lib/libutee/arch/arm/user_ta_entry.c:104
     6dc:	a9b97bfd 	stp	x29, x30, [sp,#-112]!
/home/xiang/rockpi4-android/optee_os/lib/libutee/arch/arm/user_ta_entry.c:113
     6e0:	90000000 	adrp	x0, 0 <ta_head>
     6e4:	91192000 	add	x0, x0, #0x648
/home/xiang/rockpi4-android/optee_os/lib/libutee/arch/arm/user_ta_entry.c:104
     6e8:	910003fd 	mov	x29, sp
     6ec:	a90153f3 	stp	x19, x20, [sp,#16]
/home/xiang/rockpi4-android/optee_os/lib/libutee/arch/arm/user_ta_entry.c:113
     6f0:	910183a1 	add	x1, x29, #0x60
/home/xiang/rockpi4-android/optee_os/lib/libutee/arch/arm/user_ta_entry.c:104
     6f4:	a90363f7 	stp	x23, x24, [sp,#48]
/home/xiang/rockpi4-android/optee_os/lib/libutee/arch/arm/user_ta_entry.c:119
     6f8:	9101a3b8 	add	x24, x29, #0x68
/home/xiang/rockpi4-android/optee_os/lib/libutee/arch/arm/user_ta_entry.c:104
     6fc:	a9025bf5 	stp	x21, x22, [sp,#32]
/home/xiang/rockpi4-android/optee_os/lib/libutee/arch/arm/user_ta_entry.c:108
     700:	d2800013 	mov	x19, #0x0                   	// #0
/home/xiang/rockpi4-android/optee_os/lib/libutee/arch/arm/user_ta_entry.c:104
     704:	f90023f9 	str	x25, [sp,#64]
/home/xiang/rockpi4-android/optee_os/lib/libutee/arch/arm/user_ta_entry.c:119
     708:	910163b9 	add	x25, x29, #0x58
/home/xiang/rockpi4-android/optee_os/lib/libutee/arch/arm/user_ta_entry.c:106
     70c:	a905ffbf 	stp	xzr, xzr, [x29,#88]
     710:	b00000b6 	adrp	x22, 15000 <ta_heap+0x7b10>
/home/xiang/rockpi4-android/optee_os/lib/libutee/arch/arm/user_ta_entry.c:107
     714:	f90037bf 	str	xzr, [x29,#104]
/home/xiang/rockpi4-android/optee_os/lib/libutee/arch/arm/user_ta_entry.c:113
     718:	94000dc0 	bl	3e18 <dl_iterate_phdr>
/home/xiang/rockpi4-android/optee_os/lib/libutee/arch/arm/user_ta_entry.c:116
     71c:	b0000061 	adrp	x1, d000 <_DYNAMIC>
     720:	910fe020 	add	x0, x1, #0x3f8
     724:	aa0103f7 	mov	x23, x1
     728:	f9400c00 	ldr	x0, [x0,#24]
     72c:	f9400400 	ldr	x0, [x0,#8]
     730:	f9400014 	ldr	x20, [x0]
/home/xiang/rockpi4-android/optee_os/lib/libutee/arch/arm/user_ta_entry.c:116 (discriminator 1)
     734:	b40000d4 	cbz	x20, 74c <__utee_call_elf_init_fn+0x70>
/home/xiang/rockpi4-android/optee_os/lib/libutee/arch/arm/user_ta_entry.c:117
     738:	f9427ac1 	ldr	x1, [x22,#1264]
     73c:	f94033a0 	ldr	x0, [x29,#96]
     740:	cb010000 	sub	x0, x0, x1
     744:	eb00027f 	cmp	x19, x0
     748:	54000181 	b.ne	778 <__utee_call_elf_init_fn+0x9c>
/home/xiang/rockpi4-android/optee_os/lib/libutee/arch/arm/user_ta_entry.c:129
     74c:	910fe2e1 	add	x1, x23, #0x3f8
/home/xiang/rockpi4-android/optee_os/lib/libutee/arch/arm/user_ta_entry.c:127
     750:	f9427ac0 	ldr	x0, [x22,#1264]
/home/xiang/rockpi4-android/optee_os/lib/libutee/arch/arm/user_ta_entry.c:130
     754:	aa0103f4 	mov	x20, x1
/home/xiang/rockpi4-android/optee_os/lib/libutee/arch/arm/user_ta_entry.c:127
     758:	8b130013 	add	x19, x0, x19
     75c:	f9027ad3 	str	x19, [x22,#1264]
/home/xiang/rockpi4-android/optee_os/lib/libutee/arch/arm/user_ta_entry.c:129
     760:	f9400820 	ldr	x0, [x1,#16]
/home/xiang/rockpi4-android/optee_os/lib/libutee/arch/arm/user_ta_entry.c:129 (discriminator 2)
     764:	b4000420 	cbz	x0, 7e8 <__utee_call_elf_init_fn+0x10c>
     768:	a9440413 	ldp	x19, x1, [x0,#64]
/home/xiang/rockpi4-android/optee_os/lib/libutee/arch/arm/user_ta_entry.c:130 (discriminator 3)
     76c:	b5000333 	cbnz	x19, 7d0 <__utee_call_elf_init_fn+0xf4>
/home/xiang/rockpi4-android/optee_os/lib/libutee/arch/arm/user_ta_entry.c:130 (discriminator 2)
     770:	f9000e81 	str	x1, [x20,#24]
     774:	14000018 	b	7d4 <__utee_call_elf_init_fn+0xf8>
/home/xiang/rockpi4-android/optee_os/lib/libutee/arch/arm/user_ta_entry.c:121
     778:	d2800015 	mov	x21, #0x0                   	// #0
/home/xiang/rockpi4-android/optee_os/lib/libutee/arch/arm/user_ta_entry.c:119
     77c:	aa1803e4 	mov	x4, x24
     780:	aa1903e3 	mov	x3, x25
     784:	52800362 	mov	w2, #0x1b                  	// #27
     788:	52800321 	mov	w1, #0x19                  	// #25
     78c:	aa1403e0 	mov	x0, x20
     790:	97ffff27 	bl	42c <_get_fn_array>
/home/xiang/rockpi4-android/optee_os/lib/libutee/arch/arm/user_ta_entry.c:121 (discriminator 1)
     794:	f94037a0 	ldr	x0, [x29,#104]
     798:	eb0002bf 	cmp	x21, x0
     79c:	54000103 	b.cc	7bc <__utee_call_elf_init_fn+0xe0>
/home/xiang/rockpi4-android/optee_os/lib/libutee/arch/arm/user_ta_entry.c:116 (discriminator 2)
     7a0:	f9402680 	ldr	x0, [x20,#72]
/home/xiang/rockpi4-android/optee_os/lib/libutee/arch/arm/user_ta_entry.c:125 (discriminator 2)
     7a4:	91000673 	add	x19, x19, #0x1
/home/xiang/rockpi4-android/optee_os/lib/libutee/arch/arm/user_ta_entry.c:116 (discriminator 2)
     7a8:	f9400400 	ldr	x0, [x0,#8]
     7ac:	f9400014 	ldr	x20, [x0]
/home/xiang/rockpi4-android/optee_os/lib/libutee/arch/arm/user_ta_entry.c:123 (discriminator 2)
     7b0:	f9002fbf 	str	xzr, [x29,#88]
/home/xiang/rockpi4-android/optee_os/lib/libutee/arch/arm/user_ta_entry.c:124 (discriminator 2)
     7b4:	f90037bf 	str	xzr, [x29,#104]
     7b8:	17ffffdf 	b	734 <__utee_call_elf_init_fn+0x58>
/home/xiang/rockpi4-android/optee_os/lib/libutee/arch/arm/user_ta_entry.c:122 (discriminator 3)
     7bc:	f9402fa0 	ldr	x0, [x29,#88]
     7c0:	f8757800 	ldr	x0, [x0,x21,lsl #3]
/home/xiang/rockpi4-android/optee_os/lib/libutee/arch/arm/user_ta_entry.c:121 (discriminator 3)
     7c4:	910006b5 	add	x21, x21, #0x1
/home/xiang/rockpi4-android/optee_os/lib/libutee/arch/arm/user_ta_entry.c:122 (discriminator 3)
     7c8:	d63f0000 	blr	x0
     7cc:	17fffff2 	b	794 <__utee_call_elf_init_fn+0xb8>
/home/xiang/rockpi4-android/optee_os/lib/libutee/arch/arm/user_ta_entry.c:130 (discriminator 1)
     7d0:	f9002661 	str	x1, [x19,#72]
/home/xiang/rockpi4-android/optee_os/lib/libutee/arch/arm/user_ta_entry.c:130 (discriminator 4)
     7d4:	f9402401 	ldr	x1, [x0,#72]
     7d8:	f9000033 	str	x19, [x1]
/home/xiang/rockpi4-android/optee_os/lib/libutee/arch/arm/user_ta_entry.c:131 (discriminator 4)
     7dc:	9400235d 	bl	9550 <free>
/home/xiang/rockpi4-android/optee_os/lib/libutee/arch/arm/user_ta_entry.c:129 (discriminator 4)
     7e0:	aa1303e0 	mov	x0, x19
     7e4:	17ffffe0 	b	764 <__utee_call_elf_init_fn+0x88>
/home/xiang/rockpi4-android/optee_os/lib/libutee/arch/arm/user_ta_entry.c:133
     7e8:	a94153f3 	ldp	x19, x20, [sp,#16]
     7ec:	a9425bf5 	ldp	x21, x22, [sp,#32]
     7f0:	a94363f7 	ldp	x23, x24, [sp,#48]
     7f4:	f94023f9 	ldr	x25, [sp,#64]
     7f8:	a8c77bfd 	ldp	x29, x30, [sp],#112
     7fc:	d65f03c0 	ret

0000000000000800 <__utee_call_elf_fini_fn>:
__utee_call_elf_fini_fn():
/home/xiang/rockpi4-android/optee_os/lib/libutee/arch/arm/user_ta_entry.c:152
     800:	d2800001 	mov	x1, #0x0                   	// #0
     804:	90000000 	adrp	x0, 0 <ta_head>
     808:	91137000 	add	x0, x0, #0x4dc
     80c:	14000d83 	b	3e18 <dl_iterate_phdr>

0000000000000810 <ta_header_remove_session>:
ta_header_remove_session():
/home/xiang/rockpi4-android/optee_os/lib/libutee/arch/arm/user_ta_entry.c:233
     810:	a9be7bfd 	stp	x29, x30, [sp,#-32]!
     814:	2a0003e2 	mov	w2, w0
     818:	910003fd 	mov	x29, sp
     81c:	f9000bf3 	str	x19, [sp,#16]
/home/xiang/rockpi4-android/optee_os/lib/libutee/arch/arm/user_ta_entry.c:237
     820:	b0000073 	adrp	x19, d000 <_DYNAMIC>
     824:	f941fe60 	ldr	x0, [x19,#1016]
/home/xiang/rockpi4-android/optee_os/lib/libutee/arch/arm/user_ta_entry.c:237 (discriminator 1)
     828:	b5000080 	cbnz	x0, 838 <ta_header_remove_session+0x28>
/home/xiang/rockpi4-android/optee_os/lib/libutee/arch/arm/user_ta_entry.c:251
     82c:	f9400bf3 	ldr	x19, [sp,#16]
     830:	a8c27bfd 	ldp	x29, x30, [sp],#32
     834:	d65f03c0 	ret
/home/xiang/rockpi4-android/optee_os/lib/libutee/arch/arm/user_ta_entry.c:238
     838:	b9400001 	ldr	w1, [x0]
     83c:	6b02003f 	cmp	w1, w2
     840:	f9400801 	ldr	x1, [x0,#16]
     844:	540002e1 	b.ne	8a0 <ta_header_remove_session+0x90>
     848:	f9400c02 	ldr	x2, [x0,#24]
/home/xiang/rockpi4-android/optee_os/lib/libutee/arch/arm/user_ta_entry.c:239
     84c:	b4000241 	cbz	x1, 894 <ta_header_remove_session+0x84>
/home/xiang/rockpi4-android/optee_os/lib/libutee/arch/arm/user_ta_entry.c:239 (discriminator 1)
     850:	f9000c22 	str	x2, [x1,#24]
/home/xiang/rockpi4-android/optee_os/lib/libutee/arch/arm/user_ta_entry.c:239 (discriminator 4)
     854:	f9400c02 	ldr	x2, [x0,#24]
     858:	f9000041 	str	x1, [x2]
/home/xiang/rockpi4-android/optee_os/lib/libutee/arch/arm/user_ta_entry.c:240 (discriminator 4)
     85c:	940002db 	bl	13c8 <TEE_Free>
/home/xiang/rockpi4-android/optee_os/lib/libutee/arch/arm/user_ta_entry.c:245 (discriminator 4)
     860:	f941fe60 	ldr	x0, [x19,#1016]
     864:	b5fffe40 	cbnz	x0, 82c <ta_header_remove_session+0x1c>
/home/xiang/rockpi4-android/optee_os/lib/libutee/arch/arm/user_ta_entry.c:243 (discriminator 1)
     868:	b0000060 	adrp	x0, d000 <_DYNAMIC>
     86c:	52800281 	mov	w1, #0x14                  	// #20
     870:	f940c800 	ldr	x0, [x0,#400]
     874:	b9401400 	ldr	w0, [x0,#20]
     878:	0a010000 	and	w0, w0, w1
/home/xiang/rockpi4-android/optee_os/lib/libutee/arch/arm/user_ta_entry.c:245 (discriminator 1)
     87c:	6b01001f 	cmp	w0, w1
     880:	54fffd60 	b.eq	82c <ta_header_remove_session+0x1c>
uninit_instance():
/home/xiang/rockpi4-android/optee_os/lib/libutee/arch/arm/user_ta_entry.c:180
     884:	97fffe25 	bl	118 <TA_DestroyEntryPoint>
ta_header_remove_session():
/home/xiang/rockpi4-android/optee_os/lib/libutee/arch/arm/user_ta_entry.c:251
     888:	f9400bf3 	ldr	x19, [sp,#16]
     88c:	a8c27bfd 	ldp	x29, x30, [sp],#32
uninit_instance():
/home/xiang/rockpi4-android/optee_os/lib/libutee/arch/arm/user_ta_entry.c:181
     890:	17ffffdc 	b	800 <__utee_call_elf_fini_fn>
ta_header_remove_session():
/home/xiang/rockpi4-android/optee_os/lib/libutee/arch/arm/user_ta_entry.c:239 (discriminator 2)
     894:	910fe263 	add	x3, x19, #0x3f8
     898:	f9000462 	str	x2, [x3,#8]
     89c:	17ffffee 	b	854 <ta_header_remove_session+0x44>
/home/xiang/rockpi4-android/optee_os/lib/libutee/arch/arm/user_ta_entry.c:237 (discriminator 2)
     8a0:	aa0103e0 	mov	x0, x1
     8a4:	17ffffe1 	b	828 <ta_header_remove_session+0x18>

00000000000008a8 <__utee_entry>:
__utee_entry():
/home/xiang/rockpi4-android/optee_os/lib/libutee/arch/arm/user_ta_entry.c:379
     8a8:	a9b77bfd 	stp	x29, x30, [sp,#-144]!
/home/xiang/rockpi4-android/optee_os/lib/libutee/arch/arm/user_ta_entry.c:382
     8ac:	f100041f 	cmp	x0, #0x1
/home/xiang/rockpi4-android/optee_os/lib/libutee/arch/arm/user_ta_entry.c:379
     8b0:	910003fd 	mov	x29, sp
     8b4:	a90153f3 	stp	x19, x20, [sp,#16]
     8b8:	b0000074 	adrp	x20, d000 <_DYNAMIC>
     8bc:	a9025bf5 	stp	x21, x22, [sp,#32]
     8c0:	aa0103f5 	mov	x21, x1
     8c4:	a90363f7 	stp	x23, x24, [sp,#48]
/home/xiang/rockpi4-android/optee_os/lib/libutee/arch/arm/user_ta_entry.c:382
     8c8:	54000be0 	b.eq	a44 <__utee_entry+0x19c>
     8cc:	aa0203f7 	mov	x23, x2
     8d0:	b40000e0 	cbz	x0, 8ec <__utee_entry+0x44>
     8d4:	f100081f 	cmp	x0, #0x2
     8d8:	54000c80 	b.eq	a68 <__utee_entry+0x1c0>
/home/xiang/rockpi4-android/optee_os/lib/libutee/arch/arm/user_ta_entry.c:394
     8dc:	52800000 	mov	w0, #0x0                   	// #0
/home/xiang/rockpi4-android/optee_os/lib/libutee/arch/arm/user_ta_entry.c:393
     8e0:	12800013 	mov	w19, #0xffffffff            	// #-1
/home/xiang/rockpi4-android/optee_os/lib/libutee/arch/arm/user_ta_entry.c:394
     8e4:	9400092d 	bl	2d98 <TEE_Panic>
/home/xiang/rockpi4-android/optee_os/lib/libutee/arch/arm/user_ta_entry.c:395
     8e8:	14000023 	b	974 <__utee_entry+0xcc>
ta_header_add_session():
/home/xiang/rockpi4-android/optee_os/lib/libutee/arch/arm/user_ta_entry.c:208
     8ec:	2a0103e0 	mov	w0, w1
     8f0:	97ffff13 	bl	53c <ta_header_get_session>
/home/xiang/rockpi4-android/optee_os/lib/libutee/arch/arm/user_ta_entry.c:211
     8f4:	b50006a0 	cbnz	x0, 9c8 <__utee_entry+0x120>
/home/xiang/rockpi4-android/optee_os/lib/libutee/arch/arm/user_ta_entry.c:214
     8f8:	b00000a0 	adrp	x0, 15000 <ta_heap+0x7b10>
     8fc:	9113c000 	add	x0, x0, #0x4f0
     900:	39402001 	ldrb	w1, [x0,#8]
     904:	340000e1 	cbz	w1, 920 <__utee_entry+0x78>
/home/xiang/rockpi4-android/optee_os/lib/libutee/arch/arm/user_ta_entry.c:221
     908:	52b00001 	mov	w1, #0x80000000            	// #-2147483648
     90c:	52800400 	mov	w0, #0x20                  	// #32
     910:	94000294 	bl	1360 <TEE_Malloc>
/home/xiang/rockpi4-android/optee_os/lib/libutee/arch/arm/user_ta_entry.c:223
     914:	b5000480 	cbnz	x0, 9a4 <__utee_entry+0xfc>
/home/xiang/rockpi4-android/optee_os/lib/libutee/arch/arm/user_ta_entry.c:224
     918:	129ffe73 	mov	w19, #0xffff000c            	// #-65524
     91c:	14000016 	b	974 <__utee_entry+0xcc>
/home/xiang/rockpi4-android/optee_os/lib/libutee/arch/arm/user_ta_entry.c:215
     920:	52800021 	mov	w1, #0x1                   	// #1
     924:	39002001 	strb	w1, [x0,#8]
init_instance():
/home/xiang/rockpi4-android/optee_os/lib/libutee/arch/arm/user_ta_entry.c:167
     928:	97fffe14 	bl	178 <tahead_get_trace_level>
     92c:	9400278f 	bl	a768 <trace_set_level>
/home/xiang/rockpi4-android/optee_os/lib/libutee/arch/arm/user_ta_entry.c:169
     930:	f9409280 	ldr	x0, [x20,#288]
     934:	f9400001 	ldr	x1, [x0]
     938:	f940ae80 	ldr	x0, [x20,#344]
     93c:	9400232a 	bl	95e4 <malloc_add_pool>
get_memtag_implementation():
/home/xiang/rockpi4-android/optee_os/lib/libutee/arch/arm/user_ta_entry.c:158
     940:	910243a2 	add	x2, x29, #0x90
/home/xiang/rockpi4-android/optee_os/lib/libutee/arch/arm/user_ta_entry.c:160
     944:	f0000041 	adrp	x1, b000 <small_prime+0x140>
     948:	910de821 	add	x1, x1, #0x37a
     94c:	d29fffa0 	mov	x0, #0xfffd                	// #65533
     950:	f2bfffe0 	movk	x0, #0xffff, lsl #16
/home/xiang/rockpi4-android/optee_os/lib/libutee/arch/arm/user_ta_entry.c:158
     954:	b81c0c5f 	str	wzr, [x2,#-64]!
/home/xiang/rockpi4-android/optee_os/lib/libutee/arch/arm/user_ta_entry.c:160
     958:	94000ae0 	bl	34d8 <TEE_GetPropertyAsU32>
init_instance():
/home/xiang/rockpi4-android/optee_os/lib/libutee/arch/arm/user_ta_entry.c:171
     95c:	940004a6 	bl	1bf4 <_TEE_MathAPI_Init>
/home/xiang/rockpi4-android/optee_os/lib/libutee/arch/arm/user_ta_entry.c:172
     960:	94000c97 	bl	3bbc <__utee_tcb_init>
/home/xiang/rockpi4-android/optee_os/lib/libutee/arch/arm/user_ta_entry.c:173
     964:	97ffff5e 	bl	6dc <__utee_call_elf_init_fn>
/home/xiang/rockpi4-android/optee_os/lib/libutee/arch/arm/user_ta_entry.c:174
     968:	97fffdea 	bl	110 <TA_CreateEntryPoint>
     96c:	2a0003f3 	mov	w19, w0
ta_header_add_session():
/home/xiang/rockpi4-android/optee_os/lib/libutee/arch/arm/user_ta_entry.c:217
     970:	34fffcc0 	cbz	w0, 908 <__utee_entry+0x60>
ta_header_save_params():
/home/xiang/rockpi4-android/optee_os/lib/libutee/arch/arm/user_ta_entry.c:187
     974:	f940ba80 	ldr	x0, [x20,#368]
/home/xiang/rockpi4-android/optee_os/lib/libutee/arch/arm/user_ta_entry.c:192
     978:	d2800802 	mov	x2, #0x40                  	// #64
     97c:	52800001 	mov	w1, #0x0                   	// #0
/home/xiang/rockpi4-android/optee_os/lib/libutee/arch/arm/user_ta_entry.c:187
     980:	b900001f 	str	wzr, [x0]
/home/xiang/rockpi4-android/optee_os/lib/libutee/arch/arm/user_ta_entry.c:192
     984:	f940c280 	ldr	x0, [x20,#384]
     988:	940023df 	bl	9904 <memset>
__utee_entry():
/home/xiang/rockpi4-android/optee_os/lib/libutee/arch/arm/user_ta_entry.c:400
     98c:	2a1303e0 	mov	w0, w19
     990:	a94153f3 	ldp	x19, x20, [sp,#16]
     994:	a9425bf5 	ldp	x21, x22, [sp,#32]
     998:	a94363f7 	ldp	x23, x24, [sp,#48]
     99c:	a8c97bfd 	ldp	x29, x30, [sp],#144
     9a0:	d65f03c0 	ret
ta_header_add_session():
/home/xiang/rockpi4-android/optee_os/lib/libutee/arch/arm/user_ta_entry.c:227
     9a4:	b0000061 	adrp	x1, d000 <_DYNAMIC>
     9a8:	910fe021 	add	x1, x1, #0x3f8
     9ac:	f9400422 	ldr	x2, [x1,#8]
     9b0:	f9000c02 	str	x2, [x0,#24]
/home/xiang/rockpi4-android/optee_os/lib/libutee/arch/arm/user_ta_entry.c:225
     9b4:	b9000015 	str	w21, [x0]
/home/xiang/rockpi4-android/optee_os/lib/libutee/arch/arm/user_ta_entry.c:227
     9b8:	a900fc1f 	stp	xzr, xzr, [x0,#8]
     9bc:	f9000040 	str	x0, [x2]
     9c0:	91004000 	add	x0, x0, #0x10
     9c4:	f9000420 	str	x0, [x1,#8]
entry_open_session():
/home/xiang/rockpi4-android/optee_os/lib/libutee/arch/arm/user_ta_entry.c:326
     9c8:	2a1503e0 	mov	w0, w21
     9cc:	97fffedc 	bl	53c <ta_header_get_session>
     9d0:	aa0003f3 	mov	x19, x0
/home/xiang/rockpi4-android/optee_os/lib/libutee/arch/arm/user_ta_entry.c:327
     9d4:	b5000060 	cbnz	x0, 9e0 <__utee_entry+0x138>
entry_close_session():
/home/xiang/rockpi4-android/optee_os/lib/libutee/arch/arm/user_ta_entry.c:348
     9d8:	129fff13 	mov	w19, #0xffff0007            	// #-65529
     9dc:	17ffffe6 	b	974 <__utee_entry+0xcc>
entry_open_session():
/home/xiang/rockpi4-android/optee_os/lib/libutee/arch/arm/user_ta_entry.c:330
     9e0:	910143b6 	add	x22, x29, #0x50
     9e4:	aa1703e2 	mov	x2, x23
     9e8:	910133a1 	add	x1, x29, #0x4c
     9ec:	aa1603e0 	mov	x0, x22
     9f0:	97fffefb 	bl	5dc <from_utee_params>
/home/xiang/rockpi4-android/optee_os/lib/libutee/arch/arm/user_ta_entry.c:331
     9f4:	b9404fb8 	ldr	w24, [x29,#76]
ta_header_save_params():
/home/xiang/rockpi4-android/optee_os/lib/libutee/arch/arm/user_ta_entry.c:187
     9f8:	f940ba80 	ldr	x0, [x20,#368]
/home/xiang/rockpi4-android/optee_os/lib/libutee/arch/arm/user_ta_entry.c:190
     9fc:	d2800802 	mov	x2, #0x40                  	// #64
     a00:	aa1603e1 	mov	x1, x22
/home/xiang/rockpi4-android/optee_os/lib/libutee/arch/arm/user_ta_entry.c:187
     a04:	b9000018 	str	w24, [x0]
/home/xiang/rockpi4-android/optee_os/lib/libutee/arch/arm/user_ta_entry.c:190
     a08:	f940c280 	ldr	x0, [x20,#384]
     a0c:	97fffd85 	bl	20 <memcpy>
entry_open_session():
/home/xiang/rockpi4-android/optee_os/lib/libutee/arch/arm/user_ta_entry.c:333
     a10:	91002262 	add	x2, x19, #0x8
     a14:	aa1603e1 	mov	x1, x22
     a18:	2a1803e0 	mov	w0, w24
     a1c:	97fffdc0 	bl	11c <TA_OpenSessionEntryPoint>
/home/xiang/rockpi4-android/optee_os/lib/libutee/arch/arm/user_ta_entry.c:336
     a20:	b9404fa1 	ldr	w1, [x29,#76]
/home/xiang/rockpi4-android/optee_os/lib/libutee/arch/arm/user_ta_entry.c:333
     a24:	2a0003f3 	mov	w19, w0
/home/xiang/rockpi4-android/optee_os/lib/libutee/arch/arm/user_ta_entry.c:336
     a28:	aa1603e2 	mov	x2, x22
     a2c:	aa1703e0 	mov	x0, x23
     a30:	97fffecd 	bl	564 <to_utee_params>
/home/xiang/rockpi4-android/optee_os/lib/libutee/arch/arm/user_ta_entry.c:338
     a34:	34fffa13 	cbz	w19, 974 <__utee_entry+0xcc>
/home/xiang/rockpi4-android/optee_os/lib/libutee/arch/arm/user_ta_entry.c:339
     a38:	2a1503e0 	mov	w0, w21
     a3c:	97ffff75 	bl	810 <ta_header_remove_session>
     a40:	17ffffcd 	b	974 <__utee_entry+0xcc>
entry_close_session():
/home/xiang/rockpi4-android/optee_os/lib/libutee/arch/arm/user_ta_entry.c:345
     a44:	2a0103e0 	mov	w0, w1
     a48:	97fffebd 	bl	53c <ta_header_get_session>
/home/xiang/rockpi4-android/optee_os/lib/libutee/arch/arm/user_ta_entry.c:347
     a4c:	b4fffc60 	cbz	x0, 9d8 <__utee_entry+0x130>
/home/xiang/rockpi4-android/optee_os/lib/libutee/arch/arm/user_ta_entry.c:350
     a50:	f9400400 	ldr	x0, [x0,#8]
/home/xiang/rockpi4-android/optee_os/lib/libutee/arch/arm/user_ta_entry.c:353
     a54:	52800013 	mov	w19, #0x0                   	// #0
/home/xiang/rockpi4-android/optee_os/lib/libutee/arch/arm/user_ta_entry.c:350
     a58:	97fffdb5 	bl	12c <TA_CloseSessionEntryPoint>
/home/xiang/rockpi4-android/optee_os/lib/libutee/arch/arm/user_ta_entry.c:352
     a5c:	2a1503e0 	mov	w0, w21
     a60:	97ffff6c 	bl	810 <ta_header_remove_session>
     a64:	17ffffc4 	b	974 <__utee_entry+0xcc>
entry_invoke_command():
/home/xiang/rockpi4-android/optee_os/lib/libutee/arch/arm/user_ta_entry.c:362
     a68:	2a0103e0 	mov	w0, w1
     a6c:	97fffeb4 	bl	53c <ta_header_get_session>
     a70:	aa0003f3 	mov	x19, x0
/home/xiang/rockpi4-android/optee_os/lib/libutee/arch/arm/user_ta_entry.c:364
     a74:	b4fffb20 	cbz	x0, 9d8 <__utee_entry+0x130>
/home/xiang/rockpi4-android/optee_os/lib/libutee/arch/arm/user_ta_entry.c:367
     a78:	910143b5 	add	x21, x29, #0x50
     a7c:	aa0303f8 	mov	x24, x3
     a80:	aa1703e2 	mov	x2, x23
     a84:	910133a1 	add	x1, x29, #0x4c
     a88:	aa1503e0 	mov	x0, x21
     a8c:	97fffed4 	bl	5dc <from_utee_params>
ta_header_save_params():
/home/xiang/rockpi4-android/optee_os/lib/libutee/arch/arm/user_ta_entry.c:187
     a90:	f940ba80 	ldr	x0, [x20,#368]
/home/xiang/rockpi4-android/optee_os/lib/libutee/arch/arm/user_ta_entry.c:190
     a94:	aa1503e1 	mov	x1, x21
entry_invoke_command():
/home/xiang/rockpi4-android/optee_os/lib/libutee/arch/arm/user_ta_entry.c:368
     a98:	b9404fb6 	ldr	w22, [x29,#76]
ta_header_save_params():
/home/xiang/rockpi4-android/optee_os/lib/libutee/arch/arm/user_ta_entry.c:190
     a9c:	d2800802 	mov	x2, #0x40                  	// #64
/home/xiang/rockpi4-android/optee_os/lib/libutee/arch/arm/user_ta_entry.c:187
     aa0:	b9000016 	str	w22, [x0]
/home/xiang/rockpi4-android/optee_os/lib/libutee/arch/arm/user_ta_entry.c:190
     aa4:	f940c280 	ldr	x0, [x20,#384]
     aa8:	97fffd5e 	bl	20 <memcpy>
entry_invoke_command():
/home/xiang/rockpi4-android/optee_os/lib/libutee/arch/arm/user_ta_entry.c:370
     aac:	f9400660 	ldr	x0, [x19,#8]
     ab0:	2a1603e2 	mov	w2, w22
     ab4:	2a1803e1 	mov	w1, w24
     ab8:	aa1503e3 	mov	x3, x21
     abc:	97fffd9d 	bl	130 <TA_InvokeCommandEntryPoint>
     ac0:	2a0003f3 	mov	w19, w0
/home/xiang/rockpi4-android/optee_os/lib/libutee/arch/arm/user_ta_entry.c:373
     ac4:	b9404fa1 	ldr	w1, [x29,#76]
     ac8:	aa1503e2 	mov	x2, x21
     acc:	aa1703e0 	mov	x0, x23
     ad0:	97fffea5 	bl	564 <to_utee_params>
     ad4:	17ffffa8 	b	974 <__utee_entry+0xcc>

0000000000000ad8 <abort>:
abort():
/home/xiang/rockpi4-android/optee_os/lib/libutee/abort.c:12
     ad8:	a9bf7bfd 	stp	x29, x30, [sp,#-16]!
/home/xiang/rockpi4-android/optee_os/lib/libutee/abort.c:13
     adc:	f0000040 	adrp	x0, b000 <small_prime+0x140>
     ae0:	910ec000 	add	x0, x0, #0x3b0
/home/xiang/rockpi4-android/optee_os/lib/libutee/abort.c:12
     ae4:	910003fd 	mov	x29, sp
/home/xiang/rockpi4-android/optee_os/lib/libutee/abort.c:13
     ae8:	94000043 	bl	bf4 <puts>
/home/xiang/rockpi4-android/optee_os/lib/libutee/abort.c:14
     aec:	d2800000 	mov	x0, #0x0                   	// #0
     af0:	97fffda4 	bl	180 <_utee_panic>
     af4:	14000000 	b	af4 <abort+0x1c>

0000000000000af8 <trace_ext_puts>:
trace_ext_puts():
/home/xiang/rockpi4-android/optee_os/lib/libutee/trace_ext.c:22
     af8:	a9be7bfd 	stp	x29, x30, [sp,#-32]!
     afc:	910003fd 	mov	x29, sp
     b00:	f9000bf3 	str	x19, [sp,#16]
     b04:	aa0003f3 	mov	x19, x0
/home/xiang/rockpi4-android/optee_os/lib/libutee/trace_ext.c:26
     b08:	94002392 	bl	9950 <strlen>
     b0c:	aa0003e1 	mov	x1, x0
     b10:	aa1303e0 	mov	x0, x19
/home/xiang/rockpi4-android/optee_os/lib/libutee/trace_ext.c:28
     b14:	f9400bf3 	ldr	x19, [sp,#16]
     b18:	a8c27bfd 	ldp	x29, x30, [sp],#32
/home/xiang/rockpi4-android/optee_os/lib/libutee/trace_ext.c:26
     b1c:	17fffd9f 	b	198 <_utee_log>

0000000000000b20 <trace_ext_get_thread_id>:
trace_ext_get_thread_id():
/home/xiang/rockpi4-android/optee_os/lib/libutee/trace_ext.c:33
     b20:	12800000 	mov	w0, #0xffffffff            	// #-1
     b24:	d65f03c0 	ret

0000000000000b28 <printf>:
printf():
/home/xiang/rockpi4-android/optee_os/lib/libutee/trace_ext.c:41
     b28:	d10883ff 	sub	sp, sp, #0x220
     b2c:	a9007bfd 	stp	x29, x30, [sp]
     b30:	910003fd 	mov	x29, sp
     b34:	a90153f3 	stp	x19, x20, [sp,#16]
     b38:	aa0003f3 	mov	x19, x0
     b3c:	910403a0 	add	x0, x29, #0x100
     b40:	a91e8ba1 	stp	x1, x2, [x29,#488]
     b44:	a91f93a3 	stp	x3, x4, [x29,#504]
     b48:	f90107a5 	str	x5, [x29,#520]
     b4c:	f9010ba6 	str	x6, [x29,#528]
     b50:	f9010fa7 	str	x7, [x29,#536]
     b54:	3d801800 	str	q0, [x0,#96]
     b58:	3d801c01 	str	q1, [x0,#112]
     b5c:	3d802002 	str	q2, [x0,#128]
     b60:	3d802403 	str	q3, [x0,#144]
     b64:	3d802804 	str	q4, [x0,#160]
     b68:	3d802c05 	str	q5, [x0,#176]
     b6c:	3d803006 	str	q6, [x0,#192]
     b70:	3d803407 	str	q7, [x0,#208]
/home/xiang/rockpi4-android/optee_os/lib/libutee/trace_ext.c:46
     b74:	94002705 	bl	a788 <trace_get_level>
     b78:	7100001f 	cmp	w0, #0x0
     b7c:	5400038d 	b.le	bec <printf+0xc4>
/home/xiang/rockpi4-android/optee_os/lib/libutee/trace_ext.c:49
     b80:	910883a0 	add	x0, x29, #0x220
     b84:	a90403a0 	stp	x0, x0, [x29,#64]
     b88:	910783a0 	add	x0, x29, #0x1e0
     b8c:	f9002ba0 	str	x0, [x29,#80]
     b90:	128006e0 	mov	w0, #0xffffffc8            	// #-56
     b94:	b9005ba0 	str	w0, [x29,#88]
     b98:	12800fe0 	mov	w0, #0xffffff80            	// #-128
     b9c:	b9005fa0 	str	w0, [x29,#92]
/home/xiang/rockpi4-android/optee_os/lib/libutee/trace_ext.c:50
     ba0:	a94407a0 	ldp	x0, x1, [x29,#64]
     ba4:	a90207a0 	stp	x0, x1, [x29,#32]
     ba8:	a94507a0 	ldp	x0, x1, [x29,#80]
     bac:	910183b4 	add	x20, x29, #0x60
     bb0:	a90307a0 	stp	x0, x1, [x29,#48]
     bb4:	aa1303e2 	mov	x2, x19
     bb8:	910083a3 	add	x3, x29, #0x20
     bbc:	d2802001 	mov	x1, #0x100                 	// #256
     bc0:	aa1403e0 	mov	x0, x20
     bc4:	94002328 	bl	9864 <vsnprintf>
     bc8:	2a0003f3 	mov	w19, w0
/home/xiang/rockpi4-android/optee_os/lib/libutee/trace_ext.c:53
     bcc:	37f80060 	tbnz	w0, #31, bd8 <printf+0xb0>
/home/xiang/rockpi4-android/optee_os/lib/libutee/trace_ext.c:56
     bd0:	aa1403e0 	mov	x0, x20
     bd4:	97ffffc9 	bl	af8 <trace_ext_puts>
/home/xiang/rockpi4-android/optee_os/lib/libutee/trace_ext.c:59
     bd8:	2a1303e0 	mov	w0, w19
     bdc:	a94153f3 	ldp	x19, x20, [sp,#16]
     be0:	a9407bfd 	ldp	x29, x30, [sp]
     be4:	910883ff 	add	sp, sp, #0x220
     be8:	d65f03c0 	ret
/home/xiang/rockpi4-android/optee_os/lib/libutee/trace_ext.c:47
     bec:	52800013 	mov	w19, #0x0                   	// #0
     bf0:	17fffffa 	b	bd8 <printf+0xb0>

0000000000000bf4 <puts>:
puts():
/home/xiang/rockpi4-android/optee_os/lib/libutee/trace_ext.c:62
     bf4:	a9be7bfd 	stp	x29, x30, [sp,#-32]!
     bf8:	910003fd 	mov	x29, sp
     bfc:	f9000bf3 	str	x19, [sp,#16]
     c00:	aa0003f3 	mov	x19, x0
/home/xiang/rockpi4-android/optee_os/lib/libutee/trace_ext.c:63
     c04:	940026e1 	bl	a788 <trace_get_level>
     c08:	7100001f 	cmp	w0, #0x0
     c0c:	540000cd 	b.le	c24 <puts+0x30>
/home/xiang/rockpi4-android/optee_os/lib/libutee/trace_ext.c:64
     c10:	aa1303e0 	mov	x0, x19
     c14:	97ffffb9 	bl	af8 <trace_ext_puts>
/home/xiang/rockpi4-android/optee_os/lib/libutee/trace_ext.c:65
     c18:	f0000040 	adrp	x0, b000 <small_prime+0x140>
     c1c:	91292c00 	add	x0, x0, #0xa4b
     c20:	97ffffb6 	bl	af8 <trace_ext_puts>
/home/xiang/rockpi4-android/optee_os/lib/libutee/trace_ext.c:68
     c24:	52800020 	mov	w0, #0x1                   	// #1
     c28:	f9400bf3 	ldr	x19, [sp,#16]
     c2c:	a8c27bfd 	ldp	x29, x30, [sp],#32
     c30:	d65f03c0 	ret

0000000000000c34 <putchar>:
putchar():
/home/xiang/rockpi4-android/optee_os/lib/libutee/trace_ext.c:71
     c34:	a9bd7bfd 	stp	x29, x30, [sp,#-48]!
     c38:	910003fd 	mov	x29, sp
     c3c:	f9000bf3 	str	x19, [sp,#16]
     c40:	2a0003f3 	mov	w19, w0
/home/xiang/rockpi4-android/optee_os/lib/libutee/trace_ext.c:72
     c44:	3900a3a0 	strb	w0, [x29,#40]
     c48:	3900a7bf 	strb	wzr, [x29,#41]
/home/xiang/rockpi4-android/optee_os/lib/libutee/trace_ext.c:74
     c4c:	940026cf 	bl	a788 <trace_get_level>
     c50:	7100001f 	cmp	w0, #0x0
     c54:	5400006d 	b.le	c60 <putchar+0x2c>
/home/xiang/rockpi4-android/optee_os/lib/libutee/trace_ext.c:75
     c58:	9100a3a0 	add	x0, x29, #0x28
     c5c:	97ffffa7 	bl	af8 <trace_ext_puts>
/home/xiang/rockpi4-android/optee_os/lib/libutee/trace_ext.c:82
     c60:	12001e60 	and	w0, w19, #0xff
     c64:	f9400bf3 	ldr	x19, [sp,#16]
     c68:	a8c37bfd 	ldp	x29, x30, [sp],#48
     c6c:	d65f03c0 	ret

0000000000000c70 <update_out_param>:
update_out_param():
/home/xiang/rockpi4-android/optee_os/lib/libutee/tee_api.c:121
     c70:	a9bb7bfd 	stp	x29, x30, [sp,#-80]!
     c74:	910003fd 	mov	x29, sp
     c78:	a90153f3 	stp	x19, x20, [sp,#16]
/home/xiang/rockpi4-android/optee_os/lib/libutee/tee_api.c:123
     c7c:	aa0203f4 	mov	x20, x2
/home/xiang/rockpi4-android/optee_os/lib/libutee/tee_api.c:121
     c80:	a90363f7 	stp	x23, x24, [sp,#48]
     c84:	aa0003f3 	mov	x19, x0
/home/xiang/rockpi4-android/optee_os/lib/libutee/tee_api.c:129
     c88:	d0000058 	adrp	x24, a000 <kprintf.constprop.0+0x540>
     c8c:	91320318 	add	x24, x24, #0xc80
/home/xiang/rockpi4-android/optee_os/lib/libutee/tee_api.c:123
     c90:	f8408697 	ldr	x23, [x20],#8
/home/xiang/rockpi4-android/optee_os/lib/libutee/tee_api.c:121
     c94:	f90023f9 	str	x25, [sp,#64]
     c98:	aa0103f9 	mov	x25, x1
     c9c:	a9025bf5 	stp	x21, x22, [sp,#32]
/home/xiang/rockpi4-android/optee_os/lib/libutee/tee_api.c:125
     ca0:	d2800015 	mov	x21, #0x0                   	// #0
/home/xiang/rockpi4-android/optee_os/lib/libutee/tee_api.c:129
     ca4:	531e76a1 	lsl	w1, w21, #2
/home/xiang/rockpi4-android/optee_os/lib/libutee/tee_api.c:127
     ca8:	f9400696 	ldr	x22, [x20,#8]
/home/xiang/rockpi4-android/optee_os/lib/libutee/tee_api.c:129
     cac:	1ac126e0 	lsr	w0, w23, w1
     cb0:	12000c00 	and	w0, w0, #0xf
     cb4:	51000800 	sub	w0, w0, #0x2
     cb8:	7100141f 	cmp	w0, #0x5
     cbc:	540000e8 	b.hi	cd8 <update_out_param+0x68>
     cc0:	38604b00 	ldrb	w0, [x24,w0,uxtw]
     cc4:	10000061 	adr	x1, cd0 <update_out_param+0x60>
     cc8:	8b208820 	add	x0, x1, w0, sxtb #2
     ccc:	d61f0000 	br	x0
/home/xiang/rockpi4-android/optee_os/lib/libutee/tee_api.c:132
     cd0:	f9400280 	ldr	x0, [x20]
/home/xiang/rockpi4-android/optee_os/lib/libutee/tee_api.c:133
     cd4:	29005a60 	stp	w0, w22, [x19]
/home/xiang/rockpi4-android/optee_os/lib/libutee/tee_api.c:125 (discriminator 2)
     cd8:	910006b5 	add	x21, x21, #0x1
     cdc:	91004294 	add	x20, x20, #0x10
     ce0:	91004273 	add	x19, x19, #0x10
     ce4:	f10012bf 	cmp	x21, #0x4
     ce8:	54fffde1 	b.ne	ca4 <update_out_param+0x34>
/home/xiang/rockpi4-android/optee_os/lib/libutee/tee_api.c:146
     cec:	a94153f3 	ldp	x19, x20, [sp,#16]
     cf0:	a9425bf5 	ldp	x21, x22, [sp,#32]
     cf4:	a94363f7 	ldp	x23, x24, [sp,#48]
     cf8:	f94023f9 	ldr	x25, [sp,#64]
     cfc:	a8c57bfd 	ldp	x29, x30, [sp],#80
     d00:	d65f03c0 	ret
/home/xiang/rockpi4-android/optee_os/lib/libutee/tee_api.c:137
     d04:	f8757b21 	ldr	x1, [x25,x21,lsl #3]
     d08:	b40000c1 	cbz	x1, d20 <update_out_param+0xb0>
/home/xiang/rockpi4-android/optee_os/lib/libutee/tee_api.c:139
     d0c:	b9400a62 	ldr	w2, [x19,#8]
/home/xiang/rockpi4-android/optee_os/lib/libutee/tee_api.c:138
     d10:	f9400260 	ldr	x0, [x19]
/home/xiang/rockpi4-android/optee_os/lib/libutee/tee_api.c:139
     d14:	eb16005f 	cmp	x2, x22
/home/xiang/rockpi4-android/optee_os/lib/libutee/tee_api.c:138
     d18:	9a969042 	csel	x2, x2, x22, ls
     d1c:	97fffcc1 	bl	20 <memcpy>
/home/xiang/rockpi4-android/optee_os/lib/libutee/tee_api.c:140
     d20:	b9000a76 	str	w22, [x19,#8]
/home/xiang/rockpi4-android/optee_os/lib/libutee/tee_api.c:141
     d24:	17ffffed 	b	cd8 <update_out_param+0x68>

0000000000000d28 <TEE_CloseTASession>:
TEE_CloseTASession():
/home/xiang/rockpi4-android/optee_os/lib/libutee/tee_api.c:196
     d28:	b4000120 	cbz	x0, d4c <TEE_CloseTASession+0x24>
/home/xiang/rockpi4-android/optee_os/lib/libutee/tee_api.c:195
     d2c:	a9bf7bfd 	stp	x29, x30, [sp,#-16]!
     d30:	910003fd 	mov	x29, sp
/home/xiang/rockpi4-android/optee_os/lib/libutee/tee_api.c:197
     d34:	97fffd28 	bl	1d4 <_utee_close_ta_session>
/home/xiang/rockpi4-android/optee_os/lib/libutee/tee_api.c:199
     d38:	34000060 	cbz	w0, d44 <TEE_CloseTASession+0x1c>
/home/xiang/rockpi4-android/optee_os/lib/libutee/tee_api.c:202
     d3c:	a8c17bfd 	ldp	x29, x30, [sp],#16
/home/xiang/rockpi4-android/optee_os/lib/libutee/tee_api.c:200
     d40:	14000816 	b	2d98 <TEE_Panic>
/home/xiang/rockpi4-android/optee_os/lib/libutee/tee_api.c:202
     d44:	a8c17bfd 	ldp	x29, x30, [sp],#16
     d48:	d65f03c0 	ret
     d4c:	d65f03c0 	ret

0000000000000d50 <TEE_GetCancellationFlag>:
TEE_GetCancellationFlag():
/home/xiang/rockpi4-android/optee_os/lib/libutee/tee_api.c:257
     d50:	a9be7bfd 	stp	x29, x30, [sp,#-32]!
     d54:	910003fd 	mov	x29, sp
/home/xiang/rockpi4-android/optee_os/lib/libutee/tee_api.c:259
     d58:	910073a0 	add	x0, x29, #0x1c
     d5c:	97fffd24 	bl	1ec <_utee_get_cancellation_flag>
/home/xiang/rockpi4-android/optee_os/lib/libutee/tee_api.c:261
     d60:	34000040 	cbz	w0, d68 <TEE_GetCancellationFlag+0x18>
/home/xiang/rockpi4-android/optee_os/lib/libutee/tee_api.c:262
     d64:	b9001fbf 	str	wzr, [x29,#28]
/home/xiang/rockpi4-android/optee_os/lib/libutee/tee_api.c:263
     d68:	b9401fa0 	ldr	w0, [x29,#28]
/home/xiang/rockpi4-android/optee_os/lib/libutee/tee_api.c:264
     d6c:	a8c27bfd 	ldp	x29, x30, [sp],#32
/home/xiang/rockpi4-android/optee_os/lib/libutee/tee_api.c:263
     d70:	7100001f 	cmp	w0, #0x0
/home/xiang/rockpi4-android/optee_os/lib/libutee/tee_api.c:264
     d74:	1a9f07e0 	cset	w0, ne
     d78:	d65f03c0 	ret

0000000000000d7c <TEE_UnmaskCancellation>:
TEE_UnmaskCancellation():
/home/xiang/rockpi4-android/optee_os/lib/libutee/tee_api.c:267
     d7c:	a9be7bfd 	stp	x29, x30, [sp,#-32]!
     d80:	910003fd 	mov	x29, sp
/home/xiang/rockpi4-android/optee_os/lib/libutee/tee_api.c:269
     d84:	910073a0 	add	x0, x29, #0x1c
     d88:	97fffd1f 	bl	204 <_utee_unmask_cancellation>
/home/xiang/rockpi4-android/optee_os/lib/libutee/tee_api.c:271
     d8c:	34000040 	cbz	w0, d94 <TEE_UnmaskCancellation+0x18>
/home/xiang/rockpi4-android/optee_os/lib/libutee/tee_api.c:272
     d90:	94000802 	bl	2d98 <TEE_Panic>
/home/xiang/rockpi4-android/optee_os/lib/libutee/tee_api.c:273
     d94:	b9401fa0 	ldr	w0, [x29,#28]
/home/xiang/rockpi4-android/optee_os/lib/libutee/tee_api.c:274
     d98:	a8c27bfd 	ldp	x29, x30, [sp],#32
/home/xiang/rockpi4-android/optee_os/lib/libutee/tee_api.c:273
     d9c:	7100001f 	cmp	w0, #0x0
/home/xiang/rockpi4-android/optee_os/lib/libutee/tee_api.c:274
     da0:	1a9f07e0 	cset	w0, ne
     da4:	d65f03c0 	ret

0000000000000da8 <TEE_MaskCancellation>:
TEE_MaskCancellation():
/home/xiang/rockpi4-android/optee_os/lib/libutee/tee_api.c:277
     da8:	a9be7bfd 	stp	x29, x30, [sp,#-32]!
     dac:	910003fd 	mov	x29, sp
/home/xiang/rockpi4-android/optee_os/lib/libutee/tee_api.c:279
     db0:	910073a0 	add	x0, x29, #0x1c
     db4:	97fffd17 	bl	210 <_utee_mask_cancellation>
/home/xiang/rockpi4-android/optee_os/lib/libutee/tee_api.c:281
     db8:	34000040 	cbz	w0, dc0 <TEE_MaskCancellation+0x18>
/home/xiang/rockpi4-android/optee_os/lib/libutee/tee_api.c:282
     dbc:	940007f7 	bl	2d98 <TEE_Panic>
/home/xiang/rockpi4-android/optee_os/lib/libutee/tee_api.c:283
     dc0:	b9401fa0 	ldr	w0, [x29,#28]
/home/xiang/rockpi4-android/optee_os/lib/libutee/tee_api.c:284
     dc4:	a8c27bfd 	ldp	x29, x30, [sp],#32
/home/xiang/rockpi4-android/optee_os/lib/libutee/tee_api.c:283
     dc8:	7100001f 	cmp	w0, #0x0
/home/xiang/rockpi4-android/optee_os/lib/libutee/tee_api.c:284
     dcc:	1a9f07e0 	cset	w0, ne
     dd0:	d65f03c0 	ret

0000000000000dd4 <TEE_CheckMemoryAccessRights>:
TEE_CheckMemoryAccessRights():
/home/xiang/rockpi4-android/optee_os/lib/libutee/tee_api.c:293
     dd4:	34000062 	cbz	w2, de0 <TEE_CheckMemoryAccessRights+0xc>
/home/xiang/rockpi4-android/optee_os/lib/libutee/tee_api.c:297
     dd8:	2a0203e2 	mov	w2, w2
     ddc:	17fffd07 	b	1f8 <_utee_check_access_rights>
/home/xiang/rockpi4-android/optee_os/lib/libutee/tee_api.c:309
     de0:	52800000 	mov	w0, #0x0                   	// #0
     de4:	d65f03c0 	ret

0000000000000de8 <copy_param>:
copy_param():
/home/xiang/rockpi4-android/optee_os/lib/libutee/tee_api.c:29
     de8:	a9b87bfd 	stp	x29, x30, [sp,#-128]!
     dec:	910003fd 	mov	x29, sp
     df0:	a9046bf9 	stp	x25, x26, [sp,#64]
     df4:	aa0303f9 	mov	x25, x3
     df8:	a90363f7 	stp	x23, x24, [sp,#48]
/home/xiang/rockpi4-android/optee_os/lib/libutee/tee_api.c:34
     dfc:	910203a3 	add	x3, x29, #0x80
/home/xiang/rockpi4-android/optee_os/lib/libutee/tee_api.c:29
     e00:	aa0403f8 	mov	x24, x4
     e04:	a90153f3 	stp	x19, x20, [sp,#16]
     e08:	a9025bf5 	stp	x21, x22, [sp,#32]
     e0c:	aa0003f3 	mov	x19, x0
     e10:	a90573fb 	stp	x27, x28, [sp,#80]
     e14:	2a0103f6 	mov	w22, w1
/home/xiang/rockpi4-android/optee_os/lib/libutee/tee_api.c:45
     e18:	f900033f 	str	xzr, [x25]
/home/xiang/rockpi4-android/optee_os/lib/libutee/tee_api.c:29
     e1c:	aa0503f7 	mov	x23, x5
     e20:	aa0203f4 	mov	x20, x2
/home/xiang/rockpi4-android/optee_os/lib/libutee/tee_api.c:46
     e24:	aa0203fc 	mov	x28, x2
/home/xiang/rockpi4-android/optee_os/lib/libutee/tee_api.c:34
     e28:	b81f8c7f 	str	wzr, [x3,#-8]!
/home/xiang/rockpi4-android/optee_os/lib/libutee/tee_api.c:32
     e2c:	d280001b 	mov	x27, #0x0                   	// #0
/home/xiang/rockpi4-android/optee_os/lib/libutee/tee_api.c:47
     e30:	d2800015 	mov	x21, #0x0                   	// #0
/home/xiang/rockpi4-android/optee_os/lib/libutee/tee_api.c:66
     e34:	52800024 	mov	w4, #0x1                   	// #1
/home/xiang/rockpi4-android/optee_os/lib/libutee/tee_api.c:46
     e38:	f900031f 	str	xzr, [x24]
/home/xiang/rockpi4-android/optee_os/lib/libutee/tee_api.c:49
     e3c:	531e76a1 	lsl	w1, w21, #2
/home/xiang/rockpi4-android/optee_os/lib/libutee/tee_api.c:48
     e40:	f8357aff 	str	xzr, [x23,x21,lsl #3]
/home/xiang/rockpi4-android/optee_os/lib/libutee/tee_api.c:49
     e44:	1ac126c0 	lsr	w0, w22, w1
     e48:	12000c00 	and	w0, w0, #0xf
     e4c:	51001400 	sub	w0, w0, #0x5
     e50:	7100081f 	cmp	w0, #0x2
     e54:	54000248 	b.hi	e9c <copy_param+0xb4>
/home/xiang/rockpi4-android/optee_os/lib/libutee/tee_api.c:54
     e58:	b9400b82 	ldr	w2, [x28,#8]
/home/xiang/rockpi4-android/optee_os/lib/libutee/tee_api.c:53
     e5c:	f9400381 	ldr	x1, [x28]
/home/xiang/rockpi4-android/optee_os/lib/libutee/tee_api.c:54
     e60:	2a0203fa 	mov	w26, w2
/home/xiang/rockpi4-android/optee_os/lib/libutee/tee_api.c:64
     e64:	f100003f 	cmp	x1, #0x0
     e68:	fa401b44 	ccmp	x26, #0x0, #0x4, ne
     e6c:	54000180 	b.eq	e9c <copy_param+0xb4>
     e70:	b90067a4 	str	w4, [x29,#100]
/home/xiang/rockpi4-android/optee_os/lib/libutee/tee_api.c:65 (discriminator 1)
     e74:	52800020 	mov	w0, #0x1                   	// #1
     e78:	f90037a3 	str	x3, [x29,#104]
     e7c:	97ffffd6 	bl	dd4 <TEE_CheckMemoryAccessRights>
/home/xiang/rockpi4-android/optee_os/lib/libutee/tee_api.c:64 (discriminator 1)
     e80:	b94067a4 	ldr	w4, [x29,#100]
     e84:	f94037a3 	ldr	x3, [x29,#104]
     e88:	350000a0 	cbnz	w0, e9c <copy_param+0xb4>
/home/xiang/rockpi4-android/optee_os/lib/libutee/tee_api.c:67
     e8c:	91003f5a 	add	x26, x26, #0xf
/home/xiang/rockpi4-android/optee_os/lib/libutee/tee_api.c:66
     e90:	38236aa4 	strb	w4, [x21,x3]
/home/xiang/rockpi4-android/optee_os/lib/libutee/tee_api.c:67
     e94:	927cef5a 	and	x26, x26, #0xfffffffffffffff0
     e98:	8b1a037b 	add	x27, x27, x26
/home/xiang/rockpi4-android/optee_os/lib/libutee/tee_api.c:47 (discriminator 2)
     e9c:	910006b5 	add	x21, x21, #0x1
     ea0:	9100439c 	add	x28, x28, #0x10
     ea4:	f10012bf 	cmp	x21, #0x4
     ea8:	54fffca1 	b.ne	e3c <copy_param+0x54>
/home/xiang/rockpi4-android/optee_os/lib/libutee/tee_api.c:75
     eac:	b400031b 	cbz	x27, f0c <copy_param+0x124>
/home/xiang/rockpi4-android/optee_os/lib/libutee/tee_api.c:76
     eb0:	2a1503e1 	mov	w1, w21
     eb4:	aa1b03e0 	mov	x0, x27
     eb8:	94000ad7 	bl	3a14 <tee_map_zi>
     ebc:	aa0003e3 	mov	x3, x0
/home/xiang/rockpi4-android/optee_os/lib/libutee/tee_api.c:77
     ec0:	b40007a0 	cbz	x0, fb4 <copy_param+0x1cc>
/home/xiang/rockpi4-android/optee_os/lib/libutee/tee_api.c:79
     ec4:	f9000320 	str	x0, [x25]
/home/xiang/rockpi4-android/optee_os/lib/libutee/tee_api.c:80
     ec8:	f900031b 	str	x27, [x24]
/home/xiang/rockpi4-android/optee_os/lib/libutee/tee_api.c:85
     ecc:	d0000059 	adrp	x25, a000 <kprintf.constprop.0+0x540>
/home/xiang/rockpi4-android/optee_os/lib/libutee/tee_api.c:95
     ed0:	9101e3bb 	add	x27, x29, #0x78
/home/xiang/rockpi4-android/optee_os/lib/libutee/tee_api.c:85
     ed4:	91322339 	add	x25, x25, #0xc88
/home/xiang/rockpi4-android/optee_os/lib/libutee/tee_api.c:83
     ed8:	2a1603e0 	mov	w0, w22
/home/xiang/rockpi4-android/optee_os/lib/libutee/tee_api.c:84
     edc:	d2800015 	mov	x21, #0x0                   	// #0
/home/xiang/rockpi4-android/optee_os/lib/libutee/tee_api.c:83
     ee0:	f8008660 	str	x0, [x19],#8
/home/xiang/rockpi4-android/optee_os/lib/libutee/tee_api.c:85
     ee4:	531e76a1 	lsl	w1, w21, #2
     ee8:	1ac126c0 	lsr	w0, w22, w1
     eec:	12000c00 	and	w0, w0, #0xf
     ef0:	51000401 	sub	w1, w0, #0x1
     ef4:	7100183f 	cmp	w1, #0x6
     ef8:	540005a8 	b.hi	fac <copy_param+0x1c4>
     efc:	38614b21 	ldrb	w1, [x25,w1,uxtw]
     f00:	10000062 	adr	x2, f0c <copy_param+0x124>
     f04:	8b218841 	add	x1, x2, w1, sxtb #2
     f08:	d61f0020 	br	x1
/home/xiang/rockpi4-android/optee_os/lib/libutee/tee_api.c:31
     f0c:	d2800003 	mov	x3, #0x0                   	// #0
     f10:	17ffffef 	b	ecc <copy_param+0xe4>
/home/xiang/rockpi4-android/optee_os/lib/libutee/tee_api.c:88
     f14:	b9400280 	ldr	w0, [x20]
     f18:	f9000260 	str	x0, [x19]
/home/xiang/rockpi4-android/optee_os/lib/libutee/tee_api.c:89
     f1c:	b9400680 	ldr	w0, [x20,#4]
     f20:	f9000660 	str	x0, [x19,#8]
/home/xiang/rockpi4-android/optee_os/lib/libutee/tee_api.c:84 (discriminator 2)
     f24:	910006b5 	add	x21, x21, #0x1
     f28:	91004294 	add	x20, x20, #0x10
     f2c:	91004273 	add	x19, x19, #0x10
     f30:	f10012bf 	cmp	x21, #0x4
     f34:	54fffd81 	b.ne	ee4 <copy_param+0xfc>
/home/xiang/rockpi4-android/optee_os/lib/libutee/tee_api.c:115
     f38:	52800000 	mov	w0, #0x0                   	// #0
/home/xiang/rockpi4-android/optee_os/lib/libutee/tee_api.c:116
     f3c:	a94153f3 	ldp	x19, x20, [sp,#16]
     f40:	a9425bf5 	ldp	x21, x22, [sp,#32]
     f44:	a94363f7 	ldp	x23, x24, [sp,#48]
     f48:	a9446bf9 	ldp	x25, x26, [sp,#64]
     f4c:	a94573fb 	ldp	x27, x28, [sp,#80]
     f50:	a8c87bfd 	ldp	x29, x30, [sp],#128
     f54:	d65f03c0 	ret
/home/xiang/rockpi4-android/optee_os/lib/libutee/tee_api.c:95
     f58:	387b6aa1 	ldrb	w1, [x21,x27]
/home/xiang/rockpi4-android/optee_os/lib/libutee/tee_api.c:94
     f5c:	b9400a9a 	ldr	w26, [x20,#8]
/home/xiang/rockpi4-android/optee_os/lib/libutee/tee_api.c:95
     f60:	340001c1 	cbz	w1, f98 <copy_param+0x1b0>
/home/xiang/rockpi4-android/optee_os/lib/libutee/tee_api.c:98
     f64:	91003f58 	add	x24, x26, #0xf
/home/xiang/rockpi4-android/optee_os/lib/libutee/tee_api.c:97
     f68:	f8357ae3 	str	x3, [x23,x21,lsl #3]
/home/xiang/rockpi4-android/optee_os/lib/libutee/tee_api.c:98
     f6c:	927cef18 	and	x24, x24, #0xfffffffffffffff0
/home/xiang/rockpi4-android/optee_os/lib/libutee/tee_api.c:99
     f70:	7100181f 	cmp	w0, #0x6
/home/xiang/rockpi4-android/optee_os/lib/libutee/tee_api.c:98
     f74:	8b180078 	add	x24, x3, x24
/home/xiang/rockpi4-android/optee_os/lib/libutee/tee_api.c:99
     f78:	540000c0 	b.eq	f90 <copy_param+0x1a8>
/home/xiang/rockpi4-android/optee_os/lib/libutee/tee_api.c:101
     f7c:	f9400281 	ldr	x1, [x20]
     f80:	aa0303e0 	mov	x0, x3
     f84:	aa1a03e2 	mov	x2, x26
     f88:	97fffc26 	bl	20 <memcpy>
     f8c:	aa0003e3 	mov	x3, x0
     f90:	aa0303e0 	mov	x0, x3
     f94:	14000003 	b	fa0 <copy_param+0x1b8>
/home/xiang/rockpi4-android/optee_os/lib/libutee/tee_api.c:103
     f98:	f9400280 	ldr	x0, [x20]
     f9c:	aa0303f8 	mov	x24, x3
/home/xiang/rockpi4-android/optee_os/lib/libutee/tee_api.c:107
     fa0:	aa1803e3 	mov	x3, x24
/home/xiang/rockpi4-android/optee_os/lib/libutee/tee_api.c:106
     fa4:	a9006a60 	stp	x0, x26, [x19]
/home/xiang/rockpi4-android/optee_os/lib/libutee/tee_api.c:107
     fa8:	17ffffdf 	b	f24 <copy_param+0x13c>
/home/xiang/rockpi4-android/optee_os/lib/libutee/tee_api.c:110
     fac:	a9007e7f 	stp	xzr, xzr, [x19]
/home/xiang/rockpi4-android/optee_os/lib/libutee/tee_api.c:111
     fb0:	17ffffdd 	b	f24 <copy_param+0x13c>
/home/xiang/rockpi4-android/optee_os/lib/libutee/tee_api.c:78
     fb4:	129ffe60 	mov	w0, #0xffff000c            	// #-65524
     fb8:	17ffffe1 	b	f3c <copy_param+0x154>

0000000000000fbc <TEE_OpenTASession>:
TEE_OpenTASession():
/home/xiang/rockpi4-android/optee_os/lib/libutee/tee_api.c:154
     fbc:	a9b37bfd 	stp	x29, x30, [sp,#-208]!
     fc0:	910003fd 	mov	x29, sp
     fc4:	a90153f3 	stp	x19, x20, [sp,#16]
     fc8:	2a0203f3 	mov	w19, w2
     fcc:	a9046bf9 	stp	x25, x26, [sp,#64]
     fd0:	aa0303f4 	mov	x20, x3
     fd4:	a9025bf5 	stp	x21, x22, [sp,#32]
     fd8:	2a0103f9 	mov	w25, w1
     fdc:	a90363f7 	stp	x23, x24, [sp,#48]
     fe0:	aa0403f6 	mov	x22, x4
/home/xiang/rockpi4-android/optee_os/lib/libutee/tee_api.c:157
     fe4:	b90057bf 	str	wzr, [x29,#84]
/home/xiang/rockpi4-android/optee_os/lib/libutee/tee_api.c:154
     fe8:	aa0003f8 	mov	x24, x0
/home/xiang/rockpi4-android/optee_os/lib/libutee/tee_api.c:159
     fec:	a905ffbf 	stp	xzr, xzr, [x29,#88]
/home/xiang/rockpi4-android/optee_os/lib/libutee/tee_api.c:154
     ff0:	aa0503fa 	mov	x26, x5
/home/xiang/rockpi4-android/optee_os/lib/libutee/tee_api.c:160
     ff4:	a906ffbf 	stp	xzr, xzr, [x29,#104]
     ff8:	a907ffbf 	stp	xzr, xzr, [x29,#120]
/home/xiang/rockpi4-android/optee_os/lib/libutee/tee_api.c:162
     ffc:	34000082 	cbz	w2, 100c <TEE_OpenTASession+0x50>
/home/xiang/rockpi4-android/optee_os/lib/libutee/tee_api.c:163
    1000:	d2800801 	mov	x1, #0x40                  	// #64
    1004:	aa0303e0 	mov	x0, x3
    1008:	940007ad 	bl	2ebc <__utee_check_inout_annotation>
/home/xiang/rockpi4-android/optee_os/lib/libutee/tee_api.c:166
    100c:	d2800101 	mov	x1, #0x8                   	// #8
    1010:	aa1603e0 	mov	x0, x22
/home/xiang/rockpi4-android/optee_os/lib/libutee/tee_api.c:168
    1014:	9101a3b7 	add	x23, x29, #0x68
/home/xiang/rockpi4-android/optee_os/lib/libutee/tee_api.c:166
    1018:	94000798 	bl	2e78 <__utee_check_out_annotation>
/home/xiang/rockpi4-android/optee_os/lib/libutee/tee_api.c:168
    101c:	910223b5 	add	x21, x29, #0x88
    1020:	2a1303e1 	mov	w1, w19
    1024:	aa1703e5 	mov	x5, x23
    1028:	910183a4 	add	x4, x29, #0x60
    102c:	910163a3 	add	x3, x29, #0x58
    1030:	aa1403e2 	mov	x2, x20
    1034:	aa1503e0 	mov	x0, x21
    1038:	97ffff6c 	bl	de8 <copy_param>
    103c:	2a0003f3 	mov	w19, w0
/home/xiang/rockpi4-android/optee_os/lib/libutee/tee_api.c:169
    1040:	35000260 	cbnz	w0, 108c <TEE_OpenTASession+0xd0>
/home/xiang/rockpi4-android/optee_os/lib/libutee/tee_api.c:171
    1044:	aa1a03e4 	mov	x4, x26
    1048:	910153a3 	add	x3, x29, #0x54
    104c:	aa1503e2 	mov	x2, x21
    1050:	2a1903e1 	mov	w1, w25
    1054:	aa1803e0 	mov	x0, x24
    1058:	97fffc5c 	bl	1c8 <_utee_open_ta_session>
/home/xiang/rockpi4-android/optee_os/lib/libutee/tee_api.c:173
    105c:	aa1503e2 	mov	x2, x21
/home/xiang/rockpi4-android/optee_os/lib/libutee/tee_api.c:171
    1060:	2a0003f3 	mov	w19, w0
/home/xiang/rockpi4-android/optee_os/lib/libutee/tee_api.c:173
    1064:	aa1703e1 	mov	x1, x23
    1068:	aa1403e0 	mov	x0, x20
    106c:	97ffff01 	bl	c70 <update_out_param>
/home/xiang/rockpi4-android/optee_os/lib/libutee/tee_api.c:174
    1070:	f9402fa0 	ldr	x0, [x29,#88]
    1074:	b40000a0 	cbz	x0, 1088 <TEE_OpenTASession+0xcc>
/home/xiang/rockpi4-android/optee_os/lib/libutee/tee_api.c:175
    1078:	f94033a1 	ldr	x1, [x29,#96]
    107c:	94000a7f 	bl	3a78 <tee_unmap>
/home/xiang/rockpi4-android/optee_os/lib/libutee/tee_api.c:177
    1080:	34000040 	cbz	w0, 1088 <TEE_OpenTASession+0xcc>
/home/xiang/rockpi4-android/optee_os/lib/libutee/tee_api.c:178
    1084:	94000745 	bl	2d98 <TEE_Panic>
/home/xiang/rockpi4-android/optee_os/lib/libutee/tee_api.c:187
    1088:	34000053 	cbz	w19, 1090 <TEE_OpenTASession+0xd4>
/home/xiang/rockpi4-android/optee_os/lib/libutee/tee_api.c:188
    108c:	b90057bf 	str	wzr, [x29,#84]
/home/xiang/rockpi4-android/optee_os/lib/libutee/tee_api.c:190
    1090:	b94057a0 	ldr	w0, [x29,#84]
/home/xiang/rockpi4-android/optee_os/lib/libutee/tee_api.c:192
    1094:	a94363f7 	ldp	x23, x24, [sp,#48]
    1098:	a9446bf9 	ldp	x25, x26, [sp,#64]
/home/xiang/rockpi4-android/optee_os/lib/libutee/tee_api.c:190
    109c:	f90002c0 	str	x0, [x22]
/home/xiang/rockpi4-android/optee_os/lib/libutee/tee_api.c:192
    10a0:	2a1303e0 	mov	w0, w19
    10a4:	a94153f3 	ldp	x19, x20, [sp,#16]
    10a8:	a9425bf5 	ldp	x21, x22, [sp,#32]
    10ac:	a8cd7bfd 	ldp	x29, x30, [sp],#208
    10b0:	d65f03c0 	ret

00000000000010b4 <TEE_InvokeTACommand>:
TEE_InvokeTACommand():
/home/xiang/rockpi4-android/optee_os/lib/libutee/tee_api.c:209
    10b4:	a9b37bfd 	stp	x29, x30, [sp,#-208]!
    10b8:	910003fd 	mov	x29, sp
    10bc:	a90153f3 	stp	x19, x20, [sp,#16]
    10c0:	2a0303f3 	mov	w19, w3
    10c4:	a9046bf9 	stp	x25, x26, [sp,#64]
    10c8:	aa0503f4 	mov	x20, x5
    10cc:	a9025bf5 	stp	x21, x22, [sp,#32]
    10d0:	2a0103f9 	mov	w25, w1
    10d4:	a90363f7 	stp	x23, x24, [sp,#48]
    10d8:	aa0003f8 	mov	x24, x0
/home/xiang/rockpi4-android/optee_os/lib/libutee/tee_api.c:214
    10dc:	a905ffbf 	stp	xzr, xzr, [x29,#88]
/home/xiang/rockpi4-android/optee_os/lib/libutee/tee_api.c:211
    10e0:	52800060 	mov	w0, #0x3                   	// #3
/home/xiang/rockpi4-android/optee_os/lib/libutee/tee_api.c:215
    10e4:	a906ffbf 	stp	xzr, xzr, [x29,#104]
/home/xiang/rockpi4-android/optee_os/lib/libutee/tee_api.c:209
    10e8:	2a0203fa 	mov	w26, w2
/home/xiang/rockpi4-android/optee_os/lib/libutee/tee_api.c:211
    10ec:	b90057a0 	str	w0, [x29,#84]
/home/xiang/rockpi4-android/optee_os/lib/libutee/tee_api.c:209
    10f0:	aa0403f5 	mov	x21, x4
/home/xiang/rockpi4-android/optee_os/lib/libutee/tee_api.c:215
    10f4:	a907ffbf 	stp	xzr, xzr, [x29,#120]
/home/xiang/rockpi4-android/optee_os/lib/libutee/tee_api.c:217
    10f8:	34000083 	cbz	w3, 1108 <TEE_InvokeTACommand+0x54>
/home/xiang/rockpi4-android/optee_os/lib/libutee/tee_api.c:218
    10fc:	d2800801 	mov	x1, #0x40                  	// #64
    1100:	aa0403e0 	mov	x0, x4
    1104:	9400076e 	bl	2ebc <__utee_check_inout_annotation>
/home/xiang/rockpi4-android/optee_os/lib/libutee/tee_api.c:221
    1108:	b4000094 	cbz	x20, 1118 <TEE_InvokeTACommand+0x64>
/home/xiang/rockpi4-android/optee_os/lib/libutee/tee_api.c:222
    110c:	d2800081 	mov	x1, #0x4                   	// #4
    1110:	aa1403e0 	mov	x0, x20
    1114:	94000759 	bl	2e78 <__utee_check_out_annotation>
/home/xiang/rockpi4-android/optee_os/lib/libutee/tee_api.c:225
    1118:	9101a3b7 	add	x23, x29, #0x68
    111c:	910223b6 	add	x22, x29, #0x88
    1120:	2a1303e1 	mov	w1, w19
    1124:	aa1703e5 	mov	x5, x23
    1128:	910183a4 	add	x4, x29, #0x60
    112c:	910163a3 	add	x3, x29, #0x58
    1130:	aa1503e2 	mov	x2, x21
    1134:	aa1603e0 	mov	x0, x22
    1138:	97ffff2c 	bl	de8 <copy_param>
    113c:	2a0003f3 	mov	w19, w0
/home/xiang/rockpi4-android/optee_os/lib/libutee/tee_api.c:226
    1140:	35000240 	cbnz	w0, 1188 <TEE_InvokeTACommand+0xd4>
/home/xiang/rockpi4-android/optee_os/lib/libutee/tee_api.c:228
    1144:	910153a4 	add	x4, x29, #0x54
    1148:	aa1603e3 	mov	x3, x22
    114c:	2a1a03e2 	mov	w2, w26
    1150:	2a1903e1 	mov	w1, w25
    1154:	aa1803e0 	mov	x0, x24
    1158:	97fffc22 	bl	1e0 <_utee_invoke_ta_command>
/home/xiang/rockpi4-android/optee_os/lib/libutee/tee_api.c:231
    115c:	aa1603e2 	mov	x2, x22
/home/xiang/rockpi4-android/optee_os/lib/libutee/tee_api.c:228
    1160:	2a0003f3 	mov	w19, w0
/home/xiang/rockpi4-android/optee_os/lib/libutee/tee_api.c:231
    1164:	aa1703e1 	mov	x1, x23
    1168:	aa1503e0 	mov	x0, x21
    116c:	97fffec1 	bl	c70 <update_out_param>
/home/xiang/rockpi4-android/optee_os/lib/libutee/tee_api.c:232
    1170:	f9402fa0 	ldr	x0, [x29,#88]
    1174:	b40000a0 	cbz	x0, 1188 <TEE_InvokeTACommand+0xd4>
/home/xiang/rockpi4-android/optee_os/lib/libutee/tee_api.c:233
    1178:	f94033a1 	ldr	x1, [x29,#96]
    117c:	94000a3f 	bl	3a78 <tee_unmap>
/home/xiang/rockpi4-android/optee_os/lib/libutee/tee_api.c:235
    1180:	34000040 	cbz	w0, 1188 <TEE_InvokeTACommand+0xd4>
/home/xiang/rockpi4-android/optee_os/lib/libutee/tee_api.c:236
    1184:	94000705 	bl	2d98 <TEE_Panic>
    1188:	b94057a0 	ldr	w0, [x29,#84]
/home/xiang/rockpi4-android/optee_os/lib/libutee/tee_api.c:240
    118c:	b4000054 	cbz	x20, 1194 <TEE_InvokeTACommand+0xe0>
/home/xiang/rockpi4-android/optee_os/lib/libutee/tee_api.c:241
    1190:	b9000280 	str	w0, [x20]
/home/xiang/rockpi4-android/optee_os/lib/libutee/tee_api.c:243
    1194:	7100101f 	cmp	w0, #0x4
    1198:	54000140 	b.eq	11c0 <TEE_InvokeTACommand+0x10c>
/home/xiang/rockpi4-android/optee_os/lib/libutee/tee_api.c:246
    119c:	7100027f 	cmp	w19, #0x0
    11a0:	129ffe60 	mov	w0, #0xffff000c            	// #-65524
    11a4:	7a401264 	ccmp	w19, w0, #0x4, ne
    11a8:	540000c0 	b.eq	11c0 <TEE_InvokeTACommand+0x10c>
/home/xiang/rockpi4-android/optee_os/lib/libutee/tee_api.c:247
    11ac:	1299fb60 	mov	w0, #0xffff3024            	// #-53212
    11b0:	6b00027f 	cmp	w19, w0
    11b4:	54000060 	b.eq	11c0 <TEE_InvokeTACommand+0x10c>
/home/xiang/rockpi4-android/optee_os/lib/libutee/tee_api.c:249
    11b8:	2a1303e0 	mov	w0, w19
    11bc:	940006f7 	bl	2d98 <TEE_Panic>
/home/xiang/rockpi4-android/optee_os/lib/libutee/tee_api.c:252
    11c0:	2a1303e0 	mov	w0, w19
    11c4:	a94153f3 	ldp	x19, x20, [sp,#16]
    11c8:	a9425bf5 	ldp	x21, x22, [sp,#32]
    11cc:	a94363f7 	ldp	x23, x24, [sp,#48]
    11d0:	a9446bf9 	ldp	x25, x26, [sp,#64]
    11d4:	a8cd7bfd 	ldp	x29, x30, [sp],#208
    11d8:	d65f03c0 	ret

00000000000011dc <TEE_SetInstanceData>:
TEE_SetInstanceData():
/home/xiang/rockpi4-android/optee_os/lib/libutee/tee_api.c:313
    11dc:	900000a1 	adrp	x1, 15000 <ta_heap+0x7b10>
    11e0:	f902ac20 	str	x0, [x1,#1368]
    11e4:	d65f03c0 	ret

00000000000011e8 <TEE_GetInstanceData>:
TEE_GetInstanceData():
/home/xiang/rockpi4-android/optee_os/lib/libutee/tee_api.c:319
    11e8:	900000a0 	adrp	x0, 15000 <ta_heap+0x7b10>
    11ec:	f942ac00 	ldr	x0, [x0,#1368]
    11f0:	d65f03c0 	ret

00000000000011f4 <TEE_MemMove>:
TEE_MemMove():
/home/xiang/rockpi4-android/optee_os/lib/libutee/tee_api.c:323
    11f4:	2a0203e2 	mov	w2, w2
    11f8:	140021b0 	b	98b8 <memmove>

00000000000011fc <TEE_MemCompare>:
TEE_MemCompare():
/home/xiang/rockpi4-android/optee_os/lib/libutee/tee_api.c:328
    11fc:	2a0203e2 	mov	w2, w2
    1200:	14002664 	b	ab90 <consttime_memcmp>

0000000000001204 <TEE_MemFill>:
TEE_MemFill():
/home/xiang/rockpi4-android/optee_os/lib/libutee/tee_api.c:333
    1204:	2a0203e2 	mov	w2, w2
    1208:	140021bf 	b	9904 <memset>

000000000000120c <TEE_GetSystemTime>:
TEE_GetSystemTime():
/home/xiang/rockpi4-android/optee_os/lib/libutee/tee_api.c:339
    120c:	a9bf7bfd 	stp	x29, x30, [sp,#-16]!
/home/xiang/rockpi4-android/optee_os/lib/libutee/tee_api.c:340
    1210:	aa0003e1 	mov	x1, x0
    1214:	d2800000 	mov	x0, #0x0                   	// #0
/home/xiang/rockpi4-android/optee_os/lib/libutee/tee_api.c:339
    1218:	910003fd 	mov	x29, sp
/home/xiang/rockpi4-android/optee_os/lib/libutee/tee_api.c:340
    121c:	97fffc03 	bl	228 <_utee_get_time>
/home/xiang/rockpi4-android/optee_os/lib/libutee/tee_api.c:342
    1220:	34000060 	cbz	w0, 122c <TEE_GetSystemTime+0x20>
/home/xiang/rockpi4-android/optee_os/lib/libutee/tee_api.c:344
    1224:	a8c17bfd 	ldp	x29, x30, [sp],#16
/home/xiang/rockpi4-android/optee_os/lib/libutee/tee_api.c:343
    1228:	140006dc 	b	2d98 <TEE_Panic>
/home/xiang/rockpi4-android/optee_os/lib/libutee/tee_api.c:344
    122c:	a8c17bfd 	ldp	x29, x30, [sp],#16
    1230:	d65f03c0 	ret

0000000000001234 <TEE_Wait>:
TEE_Wait():
/home/xiang/rockpi4-android/optee_os/lib/libutee/tee_api.c:347
    1234:	a9be7bfd 	stp	x29, x30, [sp,#-32]!
/home/xiang/rockpi4-android/optee_os/lib/libutee/tee_api.c:348
    1238:	2a0003e0 	mov	w0, w0
/home/xiang/rockpi4-android/optee_os/lib/libutee/tee_api.c:347
    123c:	910003fd 	mov	x29, sp
    1240:	f9000bf3 	str	x19, [sp,#16]
/home/xiang/rockpi4-android/optee_os/lib/libutee/tee_api.c:348
    1244:	97fffbf6 	bl	21c <_utee_wait>
/home/xiang/rockpi4-android/optee_os/lib/libutee/tee_api.c:350
    1248:	7100001f 	cmp	w0, #0x0
    124c:	129fffa1 	mov	w1, #0xffff0002            	// #-65534
/home/xiang/rockpi4-android/optee_os/lib/libutee/tee_api.c:348
    1250:	2a0003f3 	mov	w19, w0
/home/xiang/rockpi4-android/optee_os/lib/libutee/tee_api.c:350
    1254:	7a411004 	ccmp	w0, w1, #0x4, ne
    1258:	54000040 	b.eq	1260 <TEE_Wait+0x2c>
/home/xiang/rockpi4-android/optee_os/lib/libutee/tee_api.c:351
    125c:	940006cf 	bl	2d98 <TEE_Panic>
/home/xiang/rockpi4-android/optee_os/lib/libutee/tee_api.c:354
    1260:	2a1303e0 	mov	w0, w19
    1264:	f9400bf3 	ldr	x19, [sp,#16]
    1268:	a8c27bfd 	ldp	x29, x30, [sp],#32
    126c:	d65f03c0 	ret

0000000000001270 <TEE_GetTAPersistentTime>:
TEE_GetTAPersistentTime():
/home/xiang/rockpi4-android/optee_os/lib/libutee/tee_api.c:357
    1270:	a9be7bfd 	stp	x29, x30, [sp,#-32]!
/home/xiang/rockpi4-android/optee_os/lib/libutee/tee_api.c:360
    1274:	aa0003e1 	mov	x1, x0
/home/xiang/rockpi4-android/optee_os/lib/libutee/tee_api.c:357
    1278:	910003fd 	mov	x29, sp
    127c:	a90153f3 	stp	x19, x20, [sp,#16]
    1280:	aa0003f4 	mov	x20, x0
/home/xiang/rockpi4-android/optee_os/lib/libutee/tee_api.c:360
    1284:	d2800020 	mov	x0, #0x1                   	// #1
    1288:	97fffbe8 	bl	228 <_utee_get_time>
    128c:	2a0003f3 	mov	w19, w0
/home/xiang/rockpi4-android/optee_os/lib/libutee/tee_api.c:362
    1290:	7100001f 	cmp	w0, #0x0
    1294:	1a9f07e0 	cset	w0, ne
    1298:	1299fe01 	mov	w1, #0xffff300f            	// #-53233
    129c:	6b01027f 	cmp	w19, w1
    12a0:	1a9f07e1 	cset	w1, ne
    12a4:	6a01001f 	tst	w0, w1
    12a8:	54000040 	b.eq	12b0 <TEE_GetTAPersistentTime+0x40>
/home/xiang/rockpi4-android/optee_os/lib/libutee/tee_api.c:364
    12ac:	29007e9f 	stp	wzr, wzr, [x20]
/home/xiang/rockpi4-android/optee_os/lib/libutee/tee_api.c:368
    12b0:	11402e61 	add	w1, w19, #0xb, lsl #12
    12b4:	7100043f 	cmp	w1, #0x1
    12b8:	1a9f97e1 	cset	w1, hi
/home/xiang/rockpi4-android/optee_os/lib/libutee/tee_api.c:367
    12bc:	6a01001f 	tst	w0, w1
    12c0:	54000120 	b.eq	12e4 <TEE_GetTAPersistentTime+0x74>
/home/xiang/rockpi4-android/optee_os/lib/libutee/tee_api.c:369
    12c4:	1299fe00 	mov	w0, #0xffff300f            	// #-53233
    12c8:	6b00027f 	cmp	w19, w0
    12cc:	540000c0 	b.eq	12e4 <TEE_GetTAPersistentTime+0x74>
/home/xiang/rockpi4-android/optee_os/lib/libutee/tee_api.c:370
    12d0:	129ffe60 	mov	w0, #0xffff000c            	// #-65524
    12d4:	6b00027f 	cmp	w19, w0
    12d8:	54000060 	b.eq	12e4 <TEE_GetTAPersistentTime+0x74>
/home/xiang/rockpi4-android/optee_os/lib/libutee/tee_api.c:372
    12dc:	2a1303e0 	mov	w0, w19
    12e0:	940006ae 	bl	2d98 <TEE_Panic>
/home/xiang/rockpi4-android/optee_os/lib/libutee/tee_api.c:375
    12e4:	2a1303e0 	mov	w0, w19
    12e8:	a94153f3 	ldp	x19, x20, [sp,#16]
    12ec:	a8c27bfd 	ldp	x29, x30, [sp],#32
    12f0:	d65f03c0 	ret

00000000000012f4 <TEE_SetTAPersistentTime>:
TEE_SetTAPersistentTime():
/home/xiang/rockpi4-android/optee_os/lib/libutee/tee_api.c:378
    12f4:	a9be7bfd 	stp	x29, x30, [sp,#-32]!
    12f8:	910003fd 	mov	x29, sp
    12fc:	f9000bf3 	str	x19, [sp,#16]
/home/xiang/rockpi4-android/optee_os/lib/libutee/tee_api.c:381
    1300:	97fffbcd 	bl	234 <_utee_set_ta_time>
/home/xiang/rockpi4-android/optee_os/lib/libutee/tee_api.c:383
    1304:	7100001f 	cmp	w0, #0x0
    1308:	129ffe61 	mov	w1, #0xffff000c            	// #-65524
/home/xiang/rockpi4-android/optee_os/lib/libutee/tee_api.c:381
    130c:	2a0003f3 	mov	w19, w0
/home/xiang/rockpi4-android/optee_os/lib/libutee/tee_api.c:383
    1310:	7a411004 	ccmp	w0, w1, #0x4, ne
    1314:	540000a0 	b.eq	1328 <TEE_SetTAPersistentTime+0x34>
/home/xiang/rockpi4-android/optee_os/lib/libutee/tee_api.c:384
    1318:	1299f7c1 	mov	w1, #0xffff3041            	// #-53183
    131c:	6b01001f 	cmp	w0, w1
    1320:	54000040 	b.eq	1328 <TEE_SetTAPersistentTime+0x34>
/home/xiang/rockpi4-android/optee_os/lib/libutee/tee_api.c:386
    1324:	9400069d 	bl	2d98 <TEE_Panic>
/home/xiang/rockpi4-android/optee_os/lib/libutee/tee_api.c:389
    1328:	2a1303e0 	mov	w0, w19
    132c:	f9400bf3 	ldr	x19, [sp,#16]
    1330:	a8c27bfd 	ldp	x29, x30, [sp],#32
    1334:	d65f03c0 	ret

0000000000001338 <TEE_GetREETime>:
TEE_GetREETime():
/home/xiang/rockpi4-android/optee_os/lib/libutee/tee_api.c:392
    1338:	a9bf7bfd 	stp	x29, x30, [sp,#-16]!
/home/xiang/rockpi4-android/optee_os/lib/libutee/tee_api.c:393
    133c:	aa0003e1 	mov	x1, x0
    1340:	d2800040 	mov	x0, #0x2                   	// #2
/home/xiang/rockpi4-android/optee_os/lib/libutee/tee_api.c:392
    1344:	910003fd 	mov	x29, sp
/home/xiang/rockpi4-android/optee_os/lib/libutee/tee_api.c:393
    1348:	97fffbb8 	bl	228 <_utee_get_time>
/home/xiang/rockpi4-android/optee_os/lib/libutee/tee_api.c:395
    134c:	34000060 	cbz	w0, 1358 <TEE_GetREETime+0x20>
/home/xiang/rockpi4-android/optee_os/lib/libutee/tee_api.c:397
    1350:	a8c17bfd 	ldp	x29, x30, [sp],#16
/home/xiang/rockpi4-android/optee_os/lib/libutee/tee_api.c:396
    1354:	14000691 	b	2d98 <TEE_Panic>
/home/xiang/rockpi4-android/optee_os/lib/libutee/tee_api.c:397
    1358:	a8c17bfd 	ldp	x29, x30, [sp],#16
    135c:	d65f03c0 	ret

0000000000001360 <TEE_Malloc>:
TEE_Malloc():
/home/xiang/rockpi4-android/optee_os/lib/libutee/tee_api.c:401
    1360:	34000300 	cbz	w0, 13c0 <TEE_Malloc+0x60>
/home/xiang/rockpi4-android/optee_os/lib/libutee/tee_api.c:404
    1364:	35000081 	cbnz	w1, 1374 <TEE_Malloc+0x14>
/home/xiang/rockpi4-android/optee_os/lib/libutee/tee_api.c:405
    1368:	2a0003e1 	mov	w1, w0
    136c:	d2800020 	mov	x0, #0x1                   	// #1
    1370:	14002064 	b	9500 <calloc>
/home/xiang/rockpi4-android/optee_os/lib/libutee/tee_api.c:406
    1374:	52b00002 	mov	w2, #0x80000000            	// #-2147483648
    1378:	6b02003f 	cmp	w1, w2
    137c:	54000061 	b.ne	1388 <TEE_Malloc+0x28>
/home/xiang/rockpi4-android/optee_os/lib/libutee/tee_api.c:407
    1380:	2a0003e0 	mov	w0, w0
    1384:	14002059 	b	94e8 <malloc>
/home/xiang/rockpi4-android/optee_os/lib/libutee/tee_api.c:400
    1388:	a9bf7bfd 	stp	x29, x30, [sp,#-16]!
    138c:	2a0103e5 	mov	w5, w1
/home/xiang/rockpi4-android/optee_os/lib/libutee/tee_api.c:409
    1390:	52800023 	mov	w3, #0x1                   	// #1
    1394:	52800022 	mov	w2, #0x1                   	// #1
/home/xiang/rockpi4-android/optee_os/lib/libutee/tee_api.c:400
    1398:	910003fd 	mov	x29, sp
/home/xiang/rockpi4-android/optee_os/lib/libutee/tee_api.c:409
    139c:	52803321 	mov	w1, #0x199                 	// #409
    13a0:	d0000044 	adrp	x4, b000 <small_prime+0x140>
    13a4:	b0000040 	adrp	x0, a000 <kprintf.constprop.0+0x540>
    13a8:	910edc84 	add	x4, x4, #0x3b7
    13ac:	91324000 	add	x0, x0, #0xc90
    13b0:	94002577 	bl	a98c <trace_printf>
/home/xiang/rockpi4-android/optee_os/lib/libutee/tee_api.c:411
    13b4:	d2800000 	mov	x0, #0x0                   	// #0
/home/xiang/rockpi4-android/optee_os/lib/libutee/tee_api.c:412
    13b8:	a8c17bfd 	ldp	x29, x30, [sp],#16
    13bc:	d65f03c0 	ret
/home/xiang/rockpi4-android/optee_os/lib/libutee/tee_api.c:402
    13c0:	d2800020 	mov	x0, #0x1                   	// #1
    13c4:	d65f03c0 	ret

00000000000013c8 <TEE_Free>:
TEE_Free():
/home/xiang/rockpi4-android/optee_os/lib/libutee/tee_api.c:429
    13c8:	f100041f 	cmp	x0, #0x1
    13cc:	54000040 	b.eq	13d4 <TEE_Free+0xc>
/home/xiang/rockpi4-android/optee_os/lib/libutee/tee_api.c:430
    13d0:	14002060 	b	9550 <free>
    13d4:	d65f03c0 	ret

00000000000013d8 <TEE_Realloc>:
TEE_Realloc():
/home/xiang/rockpi4-android/optee_os/lib/libutee/tee_api.c:416
    13d8:	340000c1 	cbz	w1, 13f0 <TEE_Realloc+0x18>
/home/xiang/rockpi4-android/optee_os/lib/libutee/tee_api.c:421
    13dc:	f100041f 	cmp	x0, #0x1
    13e0:	2a0103e1 	mov	w1, w1
    13e4:	54000041 	b.ne	13ec <TEE_Realloc+0x14>
/home/xiang/rockpi4-android/optee_os/lib/libutee/tee_api.c:422
    13e8:	14002046 	b	9500 <calloc>
/home/xiang/rockpi4-android/optee_os/lib/libutee/tee_api.c:424
    13ec:	1400204c 	b	951c <realloc>
/home/xiang/rockpi4-android/optee_os/lib/libutee/tee_api.c:415
    13f0:	a9bf7bfd 	stp	x29, x30, [sp,#-16]!
    13f4:	910003fd 	mov	x29, sp
/home/xiang/rockpi4-android/optee_os/lib/libutee/tee_api.c:417
    13f8:	97fffff4 	bl	13c8 <TEE_Free>
/home/xiang/rockpi4-android/optee_os/lib/libutee/tee_api.c:425
    13fc:	d2800020 	mov	x0, #0x1                   	// #1
    1400:	a8c17bfd 	ldp	x29, x30, [sp],#16
    1404:	d65f03c0 	ret

0000000000001408 <TEE_CacheClean>:
TEE_CacheClean():
/home/xiang/rockpi4-android/optee_os/lib/libutee/tee_api.c:436
    1408:	d2800002 	mov	x2, #0x0                   	// #0
    140c:	17fffc05 	b	420 <_utee_cache_operation>

0000000000001410 <TEE_CacheFlush>:
TEE_CacheFlush():
/home/xiang/rockpi4-android/optee_os/lib/libutee/tee_api.c:440
    1410:	d2800022 	mov	x2, #0x1                   	// #1
    1414:	17fffc03 	b	420 <_utee_cache_operation>

0000000000001418 <TEE_CacheInvalidate>:
TEE_CacheInvalidate():
/home/xiang/rockpi4-android/optee_os/lib/libutee/tee_api.c:445
    1418:	d2800042 	mov	x2, #0x2                   	// #2
    141c:	17fffc01 	b	420 <_utee_cache_operation>

0000000000001420 <mpi_panic>:
mpi_panic():
/home/xiang/rockpi4-android/optee_os/lib/libutee/tee_api_arith_mpi.c:29
    1420:	a9bf7bfd 	stp	x29, x30, [sp,#-16]!
/home/xiang/rockpi4-android/optee_os/lib/libutee/tee_api_arith_mpi.c:30
    1424:	2a0203e3 	mov	w3, w2
    1428:	2a0103e2 	mov	w2, w1
    142c:	aa0003e1 	mov	x1, x0
/home/xiang/rockpi4-android/optee_os/lib/libutee/tee_api_arith_mpi.c:29
    1430:	910003fd 	mov	x29, sp
/home/xiang/rockpi4-android/optee_os/lib/libutee/tee_api_arith_mpi.c:30
    1434:	d0000040 	adrp	x0, b000 <small_prime+0x140>
    1438:	910fa000 	add	x0, x0, #0x3e8
    143c:	97fffdbb 	bl	b28 <printf>
/home/xiang/rockpi4-android/optee_os/lib/libutee/tee_api_arith_mpi.c:31
    1440:	528c24e0 	mov	w0, #0x6127                	// #24871
    1444:	72a01620 	movk	w0, #0xb1, lsl #16
    1448:	94000654 	bl	2d98 <TEE_Panic>
    144c:	14000000 	b	144c <mpi_panic+0x2c>

0000000000001450 <get_mpi>:
get_mpi():
/home/xiang/rockpi4-android/optee_os/lib/libutee/tee_api_arith_mpi.c:86
    1450:	a9bd7bfd 	stp	x29, x30, [sp,#-48]!
    1454:	910003fd 	mov	x29, sp
    1458:	a90153f3 	stp	x19, x20, [sp,#16]
    145c:	aa0103f3 	mov	x19, x1
    1460:	a9025bf5 	stp	x21, x22, [sp,#32]
    1464:	aa0003f4 	mov	x20, x0
/home/xiang/rockpi4-android/optee_os/lib/libutee/tee_api_arith_mpi.c:101
    1468:	94000d64 	bl	49f8 <mbedtls_mpi_init_mempool>
/home/xiang/rockpi4-android/optee_os/lib/libutee/tee_api_arith_mpi.c:103
    146c:	b4000373 	cbz	x19, 14d8 <get_mpi+0x88>
/home/xiang/rockpi4-android/optee_os/lib/libutee/tee_api_arith_mpi.c:106
    1470:	79400e61 	ldrh	w1, [x19,#6]
/home/xiang/rockpi4-android/optee_os/lib/libutee/tee_api_arith_mpi.c:105
    1474:	91002276 	add	x22, x19, #0x8
    1478:	d37ef435 	lsl	x21, x1, #2
/home/xiang/rockpi4-android/optee_os/lib/libutee/tee_api_arith_mpi.c:109
    147c:	b4000081 	cbz	x1, 148c <get_mpi+0x3c>
/home/xiang/rockpi4-android/optee_os/lib/libutee/tee_api_arith_mpi.c:109 (discriminator 1)
    1480:	8b150260 	add	x0, x19, x21
    1484:	b9400400 	ldr	w0, [x0,#4]
    1488:	34000120 	cbz	w0, 14ac <get_mpi+0x5c>
/home/xiang/rockpi4-android/optee_os/lib/libutee/tee_api_arith_mpi.c:112
    148c:	aa1403e0 	mov	x0, x20
    1490:	94000d7f 	bl	4a8c <mbedtls_mpi_grow>
    1494:	34000100 	cbz	w0, 14b4 <get_mpi+0x64>
/home/xiang/rockpi4-android/optee_os/lib/libutee/tee_api_arith_mpi.c:112 (discriminator 1)
    1498:	2a0003e2 	mov	w2, w0
    149c:	52800e01 	mov	w1, #0x70                  	// #112
    14a0:	b0000040 	adrp	x0, a000 <kprintf.constprop.0+0x540>
    14a4:	91328000 	add	x0, x0, #0xca0
    14a8:	97ffffde 	bl	1420 <mpi_panic>
/home/xiang/rockpi4-android/optee_os/lib/libutee/tee_api_arith_mpi.c:110
    14ac:	d1000421 	sub	x1, x1, #0x1
    14b0:	17fffff2 	b	1478 <get_mpi+0x28>
/home/xiang/rockpi4-android/optee_os/lib/libutee/tee_api_arith_mpi.c:113
    14b4:	b9400260 	ldr	w0, [x19]
/home/xiang/rockpi4-android/optee_os/lib/libutee/tee_api_arith_mpi.c:114
    14b8:	aa1503e2 	mov	x2, x21
    14bc:	aa1603e1 	mov	x1, x22
/home/xiang/rockpi4-android/optee_os/lib/libutee/tee_api_arith_mpi.c:116
    14c0:	a9425bf5 	ldp	x21, x22, [sp,#32]
/home/xiang/rockpi4-android/optee_os/lib/libutee/tee_api_arith_mpi.c:113
    14c4:	79000280 	strh	w0, [x20]
/home/xiang/rockpi4-android/optee_os/lib/libutee/tee_api_arith_mpi.c:114
    14c8:	f9400a80 	ldr	x0, [x20,#16]
/home/xiang/rockpi4-android/optee_os/lib/libutee/tee_api_arith_mpi.c:116
    14cc:	a94153f3 	ldp	x19, x20, [sp,#16]
    14d0:	a8c37bfd 	ldp	x29, x30, [sp],#48
/home/xiang/rockpi4-android/optee_os/lib/libutee/tee_api_arith_mpi.c:114
    14d4:	17fffad3 	b	20 <memcpy>
/home/xiang/rockpi4-android/optee_os/lib/libutee/tee_api_arith_mpi.c:116
    14d8:	a94153f3 	ldp	x19, x20, [sp,#16]
    14dc:	a9425bf5 	ldp	x21, x22, [sp,#32]
    14e0:	a8c37bfd 	ldp	x29, x30, [sp],#48
    14e4:	d65f03c0 	ret

00000000000014e8 <copy_mpi_to_bigint>:
copy_mpi_to_bigint():
/home/xiang/rockpi4-android/optee_os/lib/libutee/tee_api_arith_mpi.c:63
    14e8:	f9400404 	ldr	x4, [x0,#8]
    14ec:	d37ef482 	lsl	x2, x4, #2
    14f0:	d1001043 	sub	x3, x2, #0x4
/home/xiang/rockpi4-android/optee_os/lib/libutee/tee_api_arith_mpi.c:66
    14f4:	b40000a4 	cbz	x4, 1508 <copy_mpi_to_bigint+0x20>
/home/xiang/rockpi4-android/optee_os/lib/libutee/tee_api_arith_mpi.c:66 (discriminator 1)
    14f8:	f9400805 	ldr	x5, [x0,#16]
    14fc:	b86368a5 	ldr	w5, [x5,x3]
    1500:	d1001063 	sub	x3, x3, #0x4
    1504:	34000205 	cbz	w5, 1544 <copy_mpi_to_bigint+0x5c>
/home/xiang/rockpi4-android/optee_os/lib/libutee/tee_api_arith_mpi.c:69
    1508:	79400823 	ldrh	w3, [x1,#4]
    150c:	eb04007f 	cmp	x3, x4
    1510:	540001e3 	b.cc	154c <copy_mpi_to_bigint+0x64>
/home/xiang/rockpi4-android/optee_os/lib/libutee/tee_api_arith_mpi.c:61
    1514:	a9bf7bfd 	stp	x29, x30, [sp,#-16]!
    1518:	aa0003e3 	mov	x3, x0
    151c:	910003fd 	mov	x29, sp
/home/xiang/rockpi4-android/optee_os/lib/libutee/tee_api_arith_mpi.c:72
    1520:	79000c24 	strh	w4, [x1,#6]
/home/xiang/rockpi4-android/optee_os/lib/libutee/tee_api_arith_mpi.c:73
    1524:	79c00004 	ldrsh	w4, [x0]
    1528:	aa0103e0 	mov	x0, x1
/home/xiang/rockpi4-android/optee_os/lib/libutee/tee_api_arith_mpi.c:74
    152c:	f9400861 	ldr	x1, [x3,#16]
/home/xiang/rockpi4-android/optee_os/lib/libutee/tee_api_arith_mpi.c:73
    1530:	b8008404 	str	w4, [x0],#8
/home/xiang/rockpi4-android/optee_os/lib/libutee/tee_api_arith_mpi.c:74
    1534:	97fffabb 	bl	20 <memcpy>
/home/xiang/rockpi4-android/optee_os/lib/libutee/tee_api_arith_mpi.c:76
    1538:	52800000 	mov	w0, #0x0                   	// #0
/home/xiang/rockpi4-android/optee_os/lib/libutee/tee_api_arith_mpi.c:77
    153c:	a8c17bfd 	ldp	x29, x30, [sp],#16
    1540:	d65f03c0 	ret
/home/xiang/rockpi4-android/optee_os/lib/libutee/tee_api_arith_mpi.c:67
    1544:	d1000484 	sub	x4, x4, #0x1
    1548:	17ffffeb 	b	14f4 <copy_mpi_to_bigint+0xc>
/home/xiang/rockpi4-android/optee_os/lib/libutee/tee_api_arith_mpi.c:70
    154c:	1299fe00 	mov	w0, #0xffff300f            	// #-53233
    1550:	d65f03c0 	ret

0000000000001554 <bigint_binary>:
bigint_binary():
/home/xiang/rockpi4-android/optee_os/lib/libutee/tee_api_arith_mpi.c:319
    1554:	a9b67bfd 	stp	x29, x30, [sp,#-160]!
    1558:	910003fd 	mov	x29, sp
    155c:	a90153f3 	stp	x19, x20, [sp,#16]
/home/xiang/rockpi4-android/optee_os/lib/libutee/tee_api_arith_mpi.c:326
    1560:	910163b3 	add	x19, x29, #0x58
/home/xiang/rockpi4-android/optee_os/lib/libutee/tee_api_arith_mpi.c:319
    1564:	a9046bf9 	stp	x25, x26, [sp,#64]
    1568:	aa0203f4 	mov	x20, x2
    156c:	a9025bf5 	stp	x21, x22, [sp,#32]
    1570:	aa0103f9 	mov	x25, x1
    1574:	a90363f7 	stp	x23, x24, [sp,#48]
    1578:	aa0003f6 	mov	x22, x0
/home/xiang/rockpi4-android/optee_os/lib/libutee/tee_api_arith_mpi.c:326
    157c:	aa0003e1 	mov	x1, x0
/home/xiang/rockpi4-android/optee_os/lib/libutee/tee_api_arith_mpi.c:319
    1580:	aa0303fa 	mov	x26, x3
/home/xiang/rockpi4-android/optee_os/lib/libutee/tee_api_arith_mpi.c:326
    1584:	aa1303e0 	mov	x0, x19
    1588:	97ffffb2 	bl	1450 <get_mpi>
/home/xiang/rockpi4-android/optee_os/lib/libutee/tee_api_arith_mpi.c:328
    158c:	eb1902df 	cmp	x22, x25
    1590:	9101c3b8 	add	x24, x29, #0x70
    1594:	54000320 	b.eq	15f8 <bigint_binary+0xa4>
/home/xiang/rockpi4-android/optee_os/lib/libutee/tee_api_arith_mpi.c:323
    1598:	aa1803f5 	mov	x21, x24
/home/xiang/rockpi4-android/optee_os/lib/libutee/tee_api_arith_mpi.c:331
    159c:	aa1903e1 	mov	x1, x25
    15a0:	aa1803e0 	mov	x0, x24
    15a4:	97ffffab 	bl	1450 <get_mpi>
/home/xiang/rockpi4-android/optee_os/lib/libutee/tee_api_arith_mpi.c:333
    15a8:	eb1402df 	cmp	x22, x20
    15ac:	910223b7 	add	x23, x29, #0x88
    15b0:	54000280 	b.eq	1600 <bigint_binary+0xac>
/home/xiang/rockpi4-android/optee_os/lib/libutee/tee_api_arith_mpi.c:335
    15b4:	eb14033f 	cmp	x25, x20
    15b8:	54000280 	b.eq	1608 <bigint_binary+0xb4>
/home/xiang/rockpi4-android/optee_os/lib/libutee/tee_api_arith_mpi.c:338
    15bc:	aa1403e1 	mov	x1, x20
/home/xiang/rockpi4-android/optee_os/lib/libutee/tee_api_arith_mpi.c:324
    15c0:	aa1703f4 	mov	x20, x23
/home/xiang/rockpi4-android/optee_os/lib/libutee/tee_api_arith_mpi.c:338
    15c4:	aa1703e0 	mov	x0, x23
    15c8:	97ffffa2 	bl	1450 <get_mpi>
/home/xiang/rockpi4-android/optee_os/lib/libutee/tee_api_arith_mpi.c:340
    15cc:	aa1403e2 	mov	x2, x20
    15d0:	aa1503e1 	mov	x1, x21
    15d4:	aa1303e0 	mov	x0, x19
    15d8:	d63f0340 	blr	x26
    15dc:	340001a0 	cbz	w0, 1610 <bigint_binary+0xbc>
/home/xiang/rockpi4-android/optee_os/lib/libutee/tee_api_arith_mpi.c:340 (discriminator 1)
    15e0:	2a0003e2 	mov	w2, w0
    15e4:	52802a81 	mov	w1, #0x154                 	// #340
/home/xiang/rockpi4-android/optee_os/lib/libutee/tee_api_arith_mpi.c:342 (discriminator 1)
    15e8:	b0000040 	adrp	x0, a000 <kprintf.constprop.0+0x540>
    15ec:	91328000 	add	x0, x0, #0xca0
    15f0:	91002000 	add	x0, x0, #0x8
    15f4:	97ffff8b 	bl	1420 <mpi_panic>
/home/xiang/rockpi4-android/optee_os/lib/libutee/tee_api_arith_mpi.c:329
    15f8:	aa1303f5 	mov	x21, x19
    15fc:	17ffffeb 	b	15a8 <bigint_binary+0x54>
/home/xiang/rockpi4-android/optee_os/lib/libutee/tee_api_arith_mpi.c:334
    1600:	aa1303f4 	mov	x20, x19
    1604:	17fffff2 	b	15cc <bigint_binary+0x78>
/home/xiang/rockpi4-android/optee_os/lib/libutee/tee_api_arith_mpi.c:336
    1608:	aa1503f4 	mov	x20, x21
    160c:	17fffff0 	b	15cc <bigint_binary+0x78>
/home/xiang/rockpi4-android/optee_os/lib/libutee/tee_api_arith_mpi.c:342
    1610:	aa1603e1 	mov	x1, x22
    1614:	aa1303e0 	mov	x0, x19
    1618:	97ffffb4 	bl	14e8 <copy_mpi_to_bigint>
    161c:	34000080 	cbz	w0, 162c <bigint_binary+0xd8>
/home/xiang/rockpi4-android/optee_os/lib/libutee/tee_api_arith_mpi.c:342 (discriminator 1)
    1620:	2a0003e2 	mov	w2, w0
    1624:	52802ac1 	mov	w1, #0x156                 	// #342
    1628:	17fffff0 	b	15e8 <bigint_binary+0x94>
/home/xiang/rockpi4-android/optee_os/lib/libutee/tee_api_arith_mpi.c:343
    162c:	aa1303e0 	mov	x0, x19
    1630:	94000cfc 	bl	4a20 <mbedtls_mpi_free>
/home/xiang/rockpi4-android/optee_os/lib/libutee/tee_api_arith_mpi.c:344
    1634:	eb1802bf 	cmp	x21, x24
    1638:	54000061 	b.ne	1644 <bigint_binary+0xf0>
/home/xiang/rockpi4-android/optee_os/lib/libutee/tee_api_arith_mpi.c:345
    163c:	aa1503e0 	mov	x0, x21
    1640:	94000cf8 	bl	4a20 <mbedtls_mpi_free>
/home/xiang/rockpi4-android/optee_os/lib/libutee/tee_api_arith_mpi.c:346
    1644:	eb17029f 	cmp	x20, x23
    1648:	54000061 	b.ne	1654 <bigint_binary+0x100>
/home/xiang/rockpi4-android/optee_os/lib/libutee/tee_api_arith_mpi.c:347
    164c:	aa1403e0 	mov	x0, x20
    1650:	94000cf4 	bl	4a20 <mbedtls_mpi_free>
/home/xiang/rockpi4-android/optee_os/lib/libutee/tee_api_arith_mpi.c:348
    1654:	a94153f3 	ldp	x19, x20, [sp,#16]
    1658:	a9425bf5 	ldp	x21, x22, [sp,#32]
    165c:	a94363f7 	ldp	x23, x24, [sp,#48]
    1660:	a9446bf9 	ldp	x25, x26, [sp,#64]
    1664:	a8ca7bfd 	ldp	x29, x30, [sp],#160
    1668:	d65f03c0 	ret

000000000000166c <mpi_is_odd>:
mpi_is_odd():
/home/xiang/rockpi4-android/optee_os/lib/libutee/tee_api_arith_mpi.c:591
    166c:	a9bf7bfd 	stp	x29, x30, [sp,#-16]!
/home/xiang/rockpi4-android/optee_os/lib/libutee/tee_api_arith_mpi.c:592
    1670:	d2800001 	mov	x1, #0x0                   	// #0
/home/xiang/rockpi4-android/optee_os/lib/libutee/tee_api_arith_mpi.c:591
    1674:	910003fd 	mov	x29, sp
/home/xiang/rockpi4-android/optee_os/lib/libutee/tee_api_arith_mpi.c:592
    1678:	94000e13 	bl	4ec4 <mbedtls_mpi_get_bit>
    167c:	7100001f 	cmp	w0, #0x0
/home/xiang/rockpi4-android/optee_os/lib/libutee/tee_api_arith_mpi.c:593
    1680:	1a9f07e0 	cset	w0, ne
    1684:	a8c17bfd 	ldp	x29, x30, [sp],#16
    1688:	d65f03c0 	ret

000000000000168c <rng_read>:
rng_read():
/home/xiang/rockpi4-android/optee_os/lib/libutee/tee_api_arith_mpi.c:756
    168c:	a9bf7bfd 	stp	x29, x30, [sp,#-16]!
    1690:	aa0103e0 	mov	x0, x1
/home/xiang/rockpi4-android/optee_os/lib/libutee/tee_api_arith_mpi.c:757
    1694:	aa0203e1 	mov	x1, x2
/home/xiang/rockpi4-android/optee_os/lib/libutee/tee_api_arith_mpi.c:756
    1698:	910003fd 	mov	x29, sp
/home/xiang/rockpi4-android/optee_os/lib/libutee/tee_api_arith_mpi.c:757
    169c:	97fffb1f 	bl	318 <_utee_cryp_random_number_generate>
/home/xiang/rockpi4-android/optee_os/lib/libutee/tee_api_arith_mpi.c:759
    16a0:	7100001f 	cmp	w0, #0x0
/home/xiang/rockpi4-android/optee_os/lib/libutee/tee_api_arith_mpi.c:760
    16a4:	a8c17bfd 	ldp	x29, x30, [sp],#16
    16a8:	12800020 	mov	w0, #0xfffffffe            	// #-2
    16ac:	1a9f1000 	csel	w0, w0, wzr, ne
    16b0:	d65f03c0 	ret

00000000000016b4 <mpi_egcd>:
mpi_egcd():
/home/xiang/rockpi4-android/optee_os/lib/libutee/tee_api_arith_mpi.c:606
    16b4:	a9ae7bfd 	stp	x29, x30, [sp,#-288]!
    16b8:	910003fd 	mov	x29, sp
    16bc:	a90363f7 	stp	x23, x24, [sp,#48]
get_mpi():
/home/xiang/rockpi4-android/optee_os/lib/libutee/tee_api_arith_mpi.c:101
    16c0:	9101e3b7 	add	x23, x29, #0x78
mpi_egcd():
/home/xiang/rockpi4-android/optee_os/lib/libutee/tee_api_arith_mpi.c:606
    16c4:	a90153f3 	stp	x19, x20, [sp,#16]
    16c8:	aa0003f8 	mov	x24, x0
    16cc:	a9060ba4 	stp	x4, x2, [x29,#96]
get_mpi():
/home/xiang/rockpi4-android/optee_os/lib/libutee/tee_api_arith_mpi.c:101
    16d0:	aa1703e0 	mov	x0, x23
mpi_egcd():
/home/xiang/rockpi4-android/optee_os/lib/libutee/tee_api_arith_mpi.c:606
    16d4:	a9025bf5 	stp	x21, x22, [sp,#32]
get_mpi():
/home/xiang/rockpi4-android/optee_os/lib/libutee/tee_api_arith_mpi.c:101
    16d8:	910243b6 	add	x22, x29, #0x90
mpi_egcd():
/home/xiang/rockpi4-android/optee_os/lib/libutee/tee_api_arith_mpi.c:606
    16dc:	a9046bf9 	stp	x25, x26, [sp,#64]
get_mpi():
/home/xiang/rockpi4-android/optee_os/lib/libutee/tee_api_arith_mpi.c:101
    16e0:	9102a3b4 	add	x20, x29, #0xa8
mpi_egcd():
/home/xiang/rockpi4-android/optee_os/lib/libutee/tee_api_arith_mpi.c:606
    16e4:	a90573fb 	stp	x27, x28, [sp,#80]
    16e8:	aa0103fc 	mov	x28, x1
    16ec:	aa0303fb 	mov	x27, x3
get_mpi():
/home/xiang/rockpi4-android/optee_os/lib/libutee/tee_api_arith_mpi.c:101
    16f0:	94000cc2 	bl	49f8 <mbedtls_mpi_init_mempool>
    16f4:	aa1603e0 	mov	x0, x22
    16f8:	94000cc0 	bl	49f8 <mbedtls_mpi_init_mempool>
    16fc:	aa1403e0 	mov	x0, x20
    1700:	910303b3 	add	x19, x29, #0xc0
    1704:	94000cbd 	bl	49f8 <mbedtls_mpi_init_mempool>
    1708:	910363ba 	add	x26, x29, #0xd8
    170c:	aa1303e0 	mov	x0, x19
    1710:	94000cba 	bl	49f8 <mbedtls_mpi_init_mempool>
    1714:	aa1a03e0 	mov	x0, x26
    1718:	9103c3b9 	add	x25, x29, #0xf0
    171c:	94000cb7 	bl	49f8 <mbedtls_mpi_init_mempool>
    1720:	910423b5 	add	x21, x29, #0x108
    1724:	aa1903e0 	mov	x0, x25
    1728:	94000cb4 	bl	49f8 <mbedtls_mpi_init_mempool>
    172c:	aa1503e0 	mov	x0, x21
    1730:	94000cb2 	bl	49f8 <mbedtls_mpi_init_mempool>
mpi_egcd():
/home/xiang/rockpi4-android/optee_os/lib/libutee/tee_api_arith_mpi.c:625
    1734:	f94033a0 	ldr	x0, [x29,#96]
    1738:	52800001 	mov	w1, #0x0                   	// #0
    173c:	94000fbb 	bl	5628 <mbedtls_mpi_cmp_int>
    1740:	35000320 	cbnz	w0, 17a4 <mpi_egcd+0xf0>
/home/xiang/rockpi4-android/optee_os/lib/libutee/tee_api_arith_mpi.c:626
    1744:	52800021 	mov	w1, #0x1                   	// #1
    1748:	aa1c03e0 	mov	x0, x28
    174c:	94000dc4 	bl	4e5c <mbedtls_mpi_lset>
    1750:	340000e0 	cbz	w0, 176c <mpi_egcd+0xb8>
/home/xiang/rockpi4-android/optee_os/lib/libutee/tee_api_arith_mpi.c:626 (discriminator 1)
    1754:	2a0003e2 	mov	w2, w0
    1758:	52804e41 	mov	w1, #0x272                 	// #626
/home/xiang/rockpi4-android/optee_os/lib/libutee/tee_api_arith_mpi.c:627 (discriminator 1)
    175c:	b0000040 	adrp	x0, a000 <kprintf.constprop.0+0x540>
    1760:	91328000 	add	x0, x0, #0xca0
    1764:	91006000 	add	x0, x0, #0x18
    1768:	97ffff2e 	bl	1420 <mpi_panic>
/home/xiang/rockpi4-android/optee_os/lib/libutee/tee_api_arith_mpi.c:627
    176c:	f94037a0 	ldr	x0, [x29,#104]
    1770:	52800001 	mov	w1, #0x0                   	// #0
    1774:	94000dba 	bl	4e5c <mbedtls_mpi_lset>
    1778:	34000080 	cbz	w0, 1788 <mpi_egcd+0xd4>
/home/xiang/rockpi4-android/optee_os/lib/libutee/tee_api_arith_mpi.c:627 (discriminator 1)
    177c:	2a0003e2 	mov	w2, w0
    1780:	52804e61 	mov	w1, #0x273                 	// #627
    1784:	17fffff6 	b	175c <mpi_egcd+0xa8>
/home/xiang/rockpi4-android/optee_os/lib/libutee/tee_api_arith_mpi.c:628
    1788:	aa1b03e1 	mov	x1, x27
    178c:	aa1803e0 	mov	x0, x24
    1790:	94000d62 	bl	4d18 <mbedtls_mpi_copy>
    1794:	34002060 	cbz	w0, 1ba0 <mpi_egcd+0x4ec>
/home/xiang/rockpi4-android/optee_os/lib/libutee/tee_api_arith_mpi.c:628 (discriminator 1)
    1798:	2a0003e2 	mov	w2, w0
    179c:	52804e81 	mov	w1, #0x274                 	// #628
    17a0:	17ffffef 	b	175c <mpi_egcd+0xa8>
/home/xiang/rockpi4-android/optee_os/lib/libutee/tee_api_arith_mpi.c:632
    17a4:	aa1b03e1 	mov	x1, x27
    17a8:	aa1a03e0 	mov	x0, x26
    17ac:	94000d5b 	bl	4d18 <mbedtls_mpi_copy>
    17b0:	34000080 	cbz	w0, 17c0 <mpi_egcd+0x10c>
/home/xiang/rockpi4-android/optee_os/lib/libutee/tee_api_arith_mpi.c:632 (discriminator 1)
    17b4:	2a0003e2 	mov	w2, w0
    17b8:	52804f01 	mov	w1, #0x278                 	// #632
    17bc:	17ffffe8 	b	175c <mpi_egcd+0xa8>
/home/xiang/rockpi4-android/optee_os/lib/libutee/tee_api_arith_mpi.c:633
    17c0:	f94033a1 	ldr	x1, [x29,#96]
    17c4:	aa1903e0 	mov	x0, x25
    17c8:	5280001b 	mov	w27, #0x0                   	// #0
    17cc:	94000d53 	bl	4d18 <mbedtls_mpi_copy>
    17d0:	34000160 	cbz	w0, 17fc <mpi_egcd+0x148>
/home/xiang/rockpi4-android/optee_os/lib/libutee/tee_api_arith_mpi.c:633 (discriminator 1)
    17d4:	2a0003e2 	mov	w2, w0
    17d8:	52804f21 	mov	w1, #0x279                 	// #633
    17dc:	17ffffe0 	b	175c <mpi_egcd+0xa8>
/home/xiang/rockpi4-android/optee_os/lib/libutee/tee_api_arith_mpi.c:639
    17e0:	d2800021 	mov	x1, #0x1                   	// #1
    17e4:	aa1903e0 	mov	x0, x25
    17e8:	94000ef9 	bl	53cc <mbedtls_mpi_shift_r>
    17ec:	34000080 	cbz	w0, 17fc <mpi_egcd+0x148>
/home/xiang/rockpi4-android/optee_os/lib/libutee/tee_api_arith_mpi.c:639 (discriminator 1)
    17f0:	2a0003e2 	mov	w2, w0
    17f4:	52804fe1 	mov	w1, #0x27f                 	// #639
    17f8:	17ffffd9 	b	175c <mpi_egcd+0xa8>
mpi_is_even():
/home/xiang/rockpi4-android/optee_os/lib/libutee/tee_api_arith_mpi.c:597
    17fc:	aa1a03e0 	mov	x0, x26
    1800:	97ffff9b 	bl	166c <mpi_is_odd>
mpi_egcd():
/home/xiang/rockpi4-android/optee_os/lib/libutee/tee_api_arith_mpi.c:636
    1804:	72001c1f 	tst	w0, #0xff
    1808:	54000100 	b.eq	1828 <mpi_egcd+0x174>
/home/xiang/rockpi4-android/optee_os/lib/libutee/tee_api_arith_mpi.c:642
    180c:	aa1a03e1 	mov	x1, x26
    1810:	aa1503e0 	mov	x0, x21
    1814:	94000d41 	bl	4d18 <mbedtls_mpi_copy>
    1818:	34000200 	cbz	w0, 1858 <mpi_egcd+0x1a4>
/home/xiang/rockpi4-android/optee_os/lib/libutee/tee_api_arith_mpi.c:642 (discriminator 1)
    181c:	2a0003e2 	mov	w2, w0
    1820:	52805041 	mov	w1, #0x282                 	// #642
    1824:	17ffffce 	b	175c <mpi_egcd+0xa8>
mpi_is_even():
/home/xiang/rockpi4-android/optee_os/lib/libutee/tee_api_arith_mpi.c:597
    1828:	aa1903e0 	mov	x0, x25
    182c:	97ffff90 	bl	166c <mpi_is_odd>
mpi_egcd():
/home/xiang/rockpi4-android/optee_os/lib/libutee/tee_api_arith_mpi.c:636
    1830:	72001c1f 	tst	w0, #0xff
    1834:	54fffec1 	b.ne	180c <mpi_egcd+0x158>
/home/xiang/rockpi4-android/optee_os/lib/libutee/tee_api_arith_mpi.c:637
    1838:	1100077b 	add	w27, w27, #0x1
/home/xiang/rockpi4-android/optee_os/lib/libutee/tee_api_arith_mpi.c:638
    183c:	d2800021 	mov	x1, #0x1                   	// #1
    1840:	aa1a03e0 	mov	x0, x26
    1844:	94000ee2 	bl	53cc <mbedtls_mpi_shift_r>
    1848:	34fffcc0 	cbz	w0, 17e0 <mpi_egcd+0x12c>
/home/xiang/rockpi4-android/optee_os/lib/libutee/tee_api_arith_mpi.c:638 (discriminator 1)
    184c:	2a0003e2 	mov	w2, w0
    1850:	52804fc1 	mov	w1, #0x27e                 	// #638
    1854:	17ffffc2 	b	175c <mpi_egcd+0xa8>
/home/xiang/rockpi4-android/optee_os/lib/libutee/tee_api_arith_mpi.c:643
    1858:	aa1903e1 	mov	x1, x25
    185c:	aa1803e0 	mov	x0, x24
    1860:	94000d2e 	bl	4d18 <mbedtls_mpi_copy>
    1864:	34000080 	cbz	w0, 1874 <mpi_egcd+0x1c0>
/home/xiang/rockpi4-android/optee_os/lib/libutee/tee_api_arith_mpi.c:643 (discriminator 1)
    1868:	2a0003e2 	mov	w2, w0
    186c:	52805061 	mov	w1, #0x283                 	// #643
    1870:	17ffffbb 	b	175c <mpi_egcd+0xa8>
/home/xiang/rockpi4-android/optee_os/lib/libutee/tee_api_arith_mpi.c:644
    1874:	52800021 	mov	w1, #0x1                   	// #1
    1878:	aa1703e0 	mov	x0, x23
    187c:	94000d78 	bl	4e5c <mbedtls_mpi_lset>
    1880:	34000080 	cbz	w0, 1890 <mpi_egcd+0x1dc>
/home/xiang/rockpi4-android/optee_os/lib/libutee/tee_api_arith_mpi.c:644 (discriminator 1)
    1884:	2a0003e2 	mov	w2, w0
    1888:	52805081 	mov	w1, #0x284                 	// #644
    188c:	17ffffb4 	b	175c <mpi_egcd+0xa8>
/home/xiang/rockpi4-android/optee_os/lib/libutee/tee_api_arith_mpi.c:645
    1890:	52800001 	mov	w1, #0x0                   	// #0
    1894:	aa1603e0 	mov	x0, x22
    1898:	94000d71 	bl	4e5c <mbedtls_mpi_lset>
    189c:	34000080 	cbz	w0, 18ac <mpi_egcd+0x1f8>
/home/xiang/rockpi4-android/optee_os/lib/libutee/tee_api_arith_mpi.c:645 (discriminator 1)
    18a0:	2a0003e2 	mov	w2, w0
    18a4:	528050a1 	mov	w1, #0x285                 	// #645
    18a8:	17ffffad 	b	175c <mpi_egcd+0xa8>
/home/xiang/rockpi4-android/optee_os/lib/libutee/tee_api_arith_mpi.c:646
    18ac:	52800001 	mov	w1, #0x0                   	// #0
    18b0:	aa1403e0 	mov	x0, x20
    18b4:	94000d6a 	bl	4e5c <mbedtls_mpi_lset>
    18b8:	34000080 	cbz	w0, 18c8 <mpi_egcd+0x214>
/home/xiang/rockpi4-android/optee_os/lib/libutee/tee_api_arith_mpi.c:646 (discriminator 1)
    18bc:	2a0003e2 	mov	w2, w0
    18c0:	528050c1 	mov	w1, #0x286                 	// #646
    18c4:	17ffffa6 	b	175c <mpi_egcd+0xa8>
/home/xiang/rockpi4-android/optee_os/lib/libutee/tee_api_arith_mpi.c:647
    18c8:	52800021 	mov	w1, #0x1                   	// #1
    18cc:	aa1303e0 	mov	x0, x19
    18d0:	94000d63 	bl	4e5c <mbedtls_mpi_lset>
    18d4:	34001340 	cbz	w0, 1b3c <mpi_egcd+0x488>
/home/xiang/rockpi4-android/optee_os/lib/libutee/tee_api_arith_mpi.c:647 (discriminator 1)
    18d8:	2a0003e2 	mov	w2, w0
    18dc:	528050e1 	mov	w1, #0x287                 	// #647
    18e0:	17ffff9f 	b	175c <mpi_egcd+0xa8>
/home/xiang/rockpi4-android/optee_os/lib/libutee/tee_api_arith_mpi.c:651
    18e4:	d2800021 	mov	x1, #0x1                   	// #1
    18e8:	aa1503e0 	mov	x0, x21
    18ec:	94000eb8 	bl	53cc <mbedtls_mpi_shift_r>
    18f0:	34000080 	cbz	w0, 1900 <mpi_egcd+0x24c>
/home/xiang/rockpi4-android/optee_os/lib/libutee/tee_api_arith_mpi.c:651 (discriminator 1)
    18f4:	2a0003e2 	mov	w2, w0
    18f8:	52805161 	mov	w1, #0x28b                 	// #651
    18fc:	17ffff98 	b	175c <mpi_egcd+0xa8>
/home/xiang/rockpi4-android/optee_os/lib/libutee/tee_api_arith_mpi.c:652
    1900:	aa1703e0 	mov	x0, x23
    1904:	97ffff5a 	bl	166c <mpi_is_odd>
    1908:	72001c1f 	tst	w0, #0xff
    190c:	54000120 	b.eq	1930 <mpi_egcd+0x27c>
/home/xiang/rockpi4-android/optee_os/lib/libutee/tee_api_arith_mpi.c:653
    1910:	aa1903e2 	mov	x2, x25
    1914:	aa1703e1 	mov	x1, x23
    1918:	aa1703e0 	mov	x0, x23
    191c:	94000ffb 	bl	5908 <mbedtls_mpi_add_mpi>
    1920:	340001e0 	cbz	w0, 195c <mpi_egcd+0x2a8>
/home/xiang/rockpi4-android/optee_os/lib/libutee/tee_api_arith_mpi.c:653 (discriminator 1)
    1924:	2a0003e2 	mov	w2, w0
    1928:	528051a1 	mov	w1, #0x28d                 	// #653
    192c:	17ffff8c 	b	175c <mpi_egcd+0xa8>
/home/xiang/rockpi4-android/optee_os/lib/libutee/tee_api_arith_mpi.c:652 (discriminator 1)
    1930:	aa1603e0 	mov	x0, x22
    1934:	97ffff4e 	bl	166c <mpi_is_odd>
    1938:	72001c1f 	tst	w0, #0xff
    193c:	54fffea1 	b.ne	1910 <mpi_egcd+0x25c>
/home/xiang/rockpi4-android/optee_os/lib/libutee/tee_api_arith_mpi.c:656
    1940:	d2800021 	mov	x1, #0x1                   	// #1
    1944:	aa1703e0 	mov	x0, x23
    1948:	94000ea1 	bl	53cc <mbedtls_mpi_shift_r>
    194c:	34000180 	cbz	w0, 197c <mpi_egcd+0x2c8>
/home/xiang/rockpi4-android/optee_os/lib/libutee/tee_api_arith_mpi.c:656 (discriminator 1)
    1950:	2a0003e2 	mov	w2, w0
    1954:	52805201 	mov	w1, #0x290                 	// #656
    1958:	17ffff81 	b	175c <mpi_egcd+0xa8>
/home/xiang/rockpi4-android/optee_os/lib/libutee/tee_api_arith_mpi.c:654
    195c:	aa1a03e2 	mov	x2, x26
    1960:	aa1603e1 	mov	x1, x22
    1964:	aa1603e0 	mov	x0, x22
    1968:	9400100a 	bl	5990 <mbedtls_mpi_sub_mpi>
    196c:	34fffea0 	cbz	w0, 1940 <mpi_egcd+0x28c>
/home/xiang/rockpi4-android/optee_os/lib/libutee/tee_api_arith_mpi.c:654 (discriminator 1)
    1970:	2a0003e2 	mov	w2, w0
    1974:	528051c1 	mov	w1, #0x28e                 	// #654
    1978:	17ffff79 	b	175c <mpi_egcd+0xa8>
/home/xiang/rockpi4-android/optee_os/lib/libutee/tee_api_arith_mpi.c:657
    197c:	d2800021 	mov	x1, #0x1                   	// #1
    1980:	aa1603e0 	mov	x0, x22
    1984:	94000e92 	bl	53cc <mbedtls_mpi_shift_r>
    1988:	34000080 	cbz	w0, 1998 <mpi_egcd+0x2e4>
/home/xiang/rockpi4-android/optee_os/lib/libutee/tee_api_arith_mpi.c:657 (discriminator 1)
    198c:	2a0003e2 	mov	w2, w0
    1990:	52805221 	mov	w1, #0x291                 	// #657
    1994:	17ffff72 	b	175c <mpi_egcd+0xa8>
mpi_is_even():
/home/xiang/rockpi4-android/optee_os/lib/libutee/tee_api_arith_mpi.c:597
    1998:	aa1503e0 	mov	x0, x21
    199c:	97ffff34 	bl	166c <mpi_is_odd>
mpi_egcd():
/home/xiang/rockpi4-android/optee_os/lib/libutee/tee_api_arith_mpi.c:650
    19a0:	72001c1f 	tst	w0, #0xff
    19a4:	54fffa00 	b.eq	18e4 <mpi_egcd+0x230>
mpi_is_even():
/home/xiang/rockpi4-android/optee_os/lib/libutee/tee_api_arith_mpi.c:597
    19a8:	aa1803e0 	mov	x0, x24
    19ac:	97ffff30 	bl	166c <mpi_is_odd>
mpi_egcd():
/home/xiang/rockpi4-android/optee_os/lib/libutee/tee_api_arith_mpi.c:660
    19b0:	72001c1f 	tst	w0, #0xff
    19b4:	540001a0 	b.eq	19e8 <mpi_egcd+0x334>
/home/xiang/rockpi4-android/optee_os/lib/libutee/tee_api_arith_mpi.c:671
    19b8:	aa1803e1 	mov	x1, x24
    19bc:	aa1503e0 	mov	x0, x21
    19c0:	94000ede 	bl	5538 <mbedtls_mpi_cmp_mpi>
    19c4:	37f808c0 	tbnz	w0, #31, 1adc <mpi_egcd+0x428>
/home/xiang/rockpi4-android/optee_os/lib/libutee/tee_api_arith_mpi.c:672
    19c8:	aa1803e2 	mov	x2, x24
    19cc:	aa1503e1 	mov	x1, x21
    19d0:	aa1503e0 	mov	x0, x21
    19d4:	94000fef 	bl	5990 <mbedtls_mpi_sub_mpi>
    19d8:	34000620 	cbz	w0, 1a9c <mpi_egcd+0x3e8>
/home/xiang/rockpi4-android/optee_os/lib/libutee/tee_api_arith_mpi.c:672 (discriminator 1)
    19dc:	2a0003e2 	mov	w2, w0
    19e0:	52805401 	mov	w1, #0x2a0                 	// #672
    19e4:	17ffff5e 	b	175c <mpi_egcd+0xa8>
/home/xiang/rockpi4-android/optee_os/lib/libutee/tee_api_arith_mpi.c:661
    19e8:	d2800021 	mov	x1, #0x1                   	// #1
    19ec:	aa1803e0 	mov	x0, x24
    19f0:	94000e77 	bl	53cc <mbedtls_mpi_shift_r>
    19f4:	34000080 	cbz	w0, 1a04 <mpi_egcd+0x350>
/home/xiang/rockpi4-android/optee_os/lib/libutee/tee_api_arith_mpi.c:661 (discriminator 1)
    19f8:	2a0003e2 	mov	w2, w0
    19fc:	528052a1 	mov	w1, #0x295                 	// #661
    1a00:	17ffff57 	b	175c <mpi_egcd+0xa8>
/home/xiang/rockpi4-android/optee_os/lib/libutee/tee_api_arith_mpi.c:662
    1a04:	aa1403e0 	mov	x0, x20
    1a08:	97ffff19 	bl	166c <mpi_is_odd>
    1a0c:	72001c1f 	tst	w0, #0xff
    1a10:	54000120 	b.eq	1a34 <mpi_egcd+0x380>
/home/xiang/rockpi4-android/optee_os/lib/libutee/tee_api_arith_mpi.c:663
    1a14:	aa1903e2 	mov	x2, x25
    1a18:	aa1403e1 	mov	x1, x20
    1a1c:	aa1403e0 	mov	x0, x20
    1a20:	94000fba 	bl	5908 <mbedtls_mpi_add_mpi>
    1a24:	340001e0 	cbz	w0, 1a60 <mpi_egcd+0x3ac>
/home/xiang/rockpi4-android/optee_os/lib/libutee/tee_api_arith_mpi.c:663 (discriminator 1)
    1a28:	2a0003e2 	mov	w2, w0
    1a2c:	528052e1 	mov	w1, #0x297                 	// #663
    1a30:	17ffff4b 	b	175c <mpi_egcd+0xa8>
/home/xiang/rockpi4-android/optee_os/lib/libutee/tee_api_arith_mpi.c:662 (discriminator 1)
    1a34:	aa1303e0 	mov	x0, x19
    1a38:	97ffff0d 	bl	166c <mpi_is_odd>
    1a3c:	72001c1f 	tst	w0, #0xff
    1a40:	54fffea1 	b.ne	1a14 <mpi_egcd+0x360>
/home/xiang/rockpi4-android/optee_os/lib/libutee/tee_api_arith_mpi.c:666
    1a44:	d2800021 	mov	x1, #0x1                   	// #1
    1a48:	aa1403e0 	mov	x0, x20
    1a4c:	94000e60 	bl	53cc <mbedtls_mpi_shift_r>
    1a50:	34000180 	cbz	w0, 1a80 <mpi_egcd+0x3cc>
/home/xiang/rockpi4-android/optee_os/lib/libutee/tee_api_arith_mpi.c:666 (discriminator 1)
    1a54:	2a0003e2 	mov	w2, w0
    1a58:	52805341 	mov	w1, #0x29a                 	// #666
    1a5c:	17ffff40 	b	175c <mpi_egcd+0xa8>
/home/xiang/rockpi4-android/optee_os/lib/libutee/tee_api_arith_mpi.c:664
    1a60:	aa1a03e2 	mov	x2, x26
    1a64:	aa1303e1 	mov	x1, x19
    1a68:	aa1303e0 	mov	x0, x19
    1a6c:	94000fc9 	bl	5990 <mbedtls_mpi_sub_mpi>
    1a70:	34fffea0 	cbz	w0, 1a44 <mpi_egcd+0x390>
/home/xiang/rockpi4-android/optee_os/lib/libutee/tee_api_arith_mpi.c:664 (discriminator 1)
    1a74:	2a0003e2 	mov	w2, w0
    1a78:	52805301 	mov	w1, #0x298                 	// #664
    1a7c:	17ffff38 	b	175c <mpi_egcd+0xa8>
/home/xiang/rockpi4-android/optee_os/lib/libutee/tee_api_arith_mpi.c:667
    1a80:	d2800021 	mov	x1, #0x1                   	// #1
    1a84:	aa1303e0 	mov	x0, x19
    1a88:	94000e51 	bl	53cc <mbedtls_mpi_shift_r>
    1a8c:	34fff8e0 	cbz	w0, 19a8 <mpi_egcd+0x2f4>
/home/xiang/rockpi4-android/optee_os/lib/libutee/tee_api_arith_mpi.c:667 (discriminator 1)
    1a90:	2a0003e2 	mov	w2, w0
    1a94:	52805361 	mov	w1, #0x29b                 	// #667
    1a98:	17ffff31 	b	175c <mpi_egcd+0xa8>
/home/xiang/rockpi4-android/optee_os/lib/libutee/tee_api_arith_mpi.c:673
    1a9c:	aa1403e2 	mov	x2, x20
    1aa0:	aa1703e1 	mov	x1, x23
    1aa4:	aa1703e0 	mov	x0, x23
    1aa8:	94000fba 	bl	5990 <mbedtls_mpi_sub_mpi>
    1aac:	34000080 	cbz	w0, 1abc <mpi_egcd+0x408>
/home/xiang/rockpi4-android/optee_os/lib/libutee/tee_api_arith_mpi.c:673 (discriminator 1)
    1ab0:	2a0003e2 	mov	w2, w0
    1ab4:	52805421 	mov	w1, #0x2a1                 	// #673
    1ab8:	17ffff29 	b	175c <mpi_egcd+0xa8>
/home/xiang/rockpi4-android/optee_os/lib/libutee/tee_api_arith_mpi.c:674
    1abc:	aa1303e2 	mov	x2, x19
    1ac0:	aa1603e1 	mov	x1, x22
    1ac4:	aa1603e0 	mov	x0, x22
    1ac8:	94000fb2 	bl	5990 <mbedtls_mpi_sub_mpi>
    1acc:	34000380 	cbz	w0, 1b3c <mpi_egcd+0x488>
/home/xiang/rockpi4-android/optee_os/lib/libutee/tee_api_arith_mpi.c:674 (discriminator 1)
    1ad0:	2a0003e2 	mov	w2, w0
    1ad4:	52805441 	mov	w1, #0x2a2                 	// #674
    1ad8:	17ffff21 	b	175c <mpi_egcd+0xa8>
/home/xiang/rockpi4-android/optee_os/lib/libutee/tee_api_arith_mpi.c:676
    1adc:	aa1503e2 	mov	x2, x21
    1ae0:	aa1803e1 	mov	x1, x24
    1ae4:	aa1803e0 	mov	x0, x24
    1ae8:	94000faa 	bl	5990 <mbedtls_mpi_sub_mpi>
    1aec:	34000080 	cbz	w0, 1afc <mpi_egcd+0x448>
/home/xiang/rockpi4-android/optee_os/lib/libutee/tee_api_arith_mpi.c:676 (discriminator 1)
    1af0:	2a0003e2 	mov	w2, w0
    1af4:	52805481 	mov	w1, #0x2a4                 	// #676
    1af8:	17ffff19 	b	175c <mpi_egcd+0xa8>
/home/xiang/rockpi4-android/optee_os/lib/libutee/tee_api_arith_mpi.c:677
    1afc:	aa1703e2 	mov	x2, x23
    1b00:	aa1403e1 	mov	x1, x20
    1b04:	aa1403e0 	mov	x0, x20
    1b08:	94000fa2 	bl	5990 <mbedtls_mpi_sub_mpi>
    1b0c:	34000080 	cbz	w0, 1b1c <mpi_egcd+0x468>
/home/xiang/rockpi4-android/optee_os/lib/libutee/tee_api_arith_mpi.c:677 (discriminator 1)
    1b10:	2a0003e2 	mov	w2, w0
    1b14:	528054a1 	mov	w1, #0x2a5                 	// #677
    1b18:	17ffff11 	b	175c <mpi_egcd+0xa8>
/home/xiang/rockpi4-android/optee_os/lib/libutee/tee_api_arith_mpi.c:678
    1b1c:	aa1603e2 	mov	x2, x22
    1b20:	aa1303e1 	mov	x1, x19
    1b24:	aa1303e0 	mov	x0, x19
    1b28:	94000f9a 	bl	5990 <mbedtls_mpi_sub_mpi>
    1b2c:	34000080 	cbz	w0, 1b3c <mpi_egcd+0x488>
/home/xiang/rockpi4-android/optee_os/lib/libutee/tee_api_arith_mpi.c:678 (discriminator 1)
    1b30:	2a0003e2 	mov	w2, w0
    1b34:	528054c1 	mov	w1, #0x2a6                 	// #678
    1b38:	17ffff09 	b	175c <mpi_egcd+0xa8>
/home/xiang/rockpi4-android/optee_os/lib/libutee/tee_api_arith_mpi.c:649
    1b3c:	52800001 	mov	w1, #0x0                   	// #0
    1b40:	aa1503e0 	mov	x0, x21
    1b44:	94000eb9 	bl	5628 <mbedtls_mpi_cmp_int>
    1b48:	35fff280 	cbnz	w0, 1998 <mpi_egcd+0x2e4>
/home/xiang/rockpi4-android/optee_os/lib/libutee/tee_api_arith_mpi.c:682
    1b4c:	aa1403e1 	mov	x1, x20
    1b50:	aa1c03e0 	mov	x0, x28
    1b54:	94000c71 	bl	4d18 <mbedtls_mpi_copy>
    1b58:	34000080 	cbz	w0, 1b68 <mpi_egcd+0x4b4>
/home/xiang/rockpi4-android/optee_os/lib/libutee/tee_api_arith_mpi.c:682 (discriminator 1)
    1b5c:	2a0003e2 	mov	w2, w0
    1b60:	52805541 	mov	w1, #0x2aa                 	// #682
    1b64:	17fffefe 	b	175c <mpi_egcd+0xa8>
/home/xiang/rockpi4-android/optee_os/lib/libutee/tee_api_arith_mpi.c:683
    1b68:	f94037a0 	ldr	x0, [x29,#104]
    1b6c:	aa1303e1 	mov	x1, x19
    1b70:	94000c6a 	bl	4d18 <mbedtls_mpi_copy>
    1b74:	34000080 	cbz	w0, 1b84 <mpi_egcd+0x4d0>
/home/xiang/rockpi4-android/optee_os/lib/libutee/tee_api_arith_mpi.c:683 (discriminator 1)
    1b78:	2a0003e2 	mov	w2, w0
    1b7c:	52805561 	mov	w1, #0x2ab                 	// #683
    1b80:	17fffef7 	b	175c <mpi_egcd+0xa8>
/home/xiang/rockpi4-android/optee_os/lib/libutee/tee_api_arith_mpi.c:684
    1b84:	2a1b03e1 	mov	w1, w27
    1b88:	aa1803e0 	mov	x0, x24
    1b8c:	94000dd0 	bl	52cc <mbedtls_mpi_shift_l>
    1b90:	34000080 	cbz	w0, 1ba0 <mpi_egcd+0x4ec>
/home/xiang/rockpi4-android/optee_os/lib/libutee/tee_api_arith_mpi.c:684 (discriminator 1)
    1b94:	2a0003e2 	mov	w2, w0
    1b98:	52805581 	mov	w1, #0x2ac                 	// #684
    1b9c:	17fffef0 	b	175c <mpi_egcd+0xa8>
/home/xiang/rockpi4-android/optee_os/lib/libutee/tee_api_arith_mpi.c:687
    1ba0:	aa1703e0 	mov	x0, x23
    1ba4:	94000b9f 	bl	4a20 <mbedtls_mpi_free>
/home/xiang/rockpi4-android/optee_os/lib/libutee/tee_api_arith_mpi.c:688
    1ba8:	aa1603e0 	mov	x0, x22
    1bac:	94000b9d 	bl	4a20 <mbedtls_mpi_free>
/home/xiang/rockpi4-android/optee_os/lib/libutee/tee_api_arith_mpi.c:689
    1bb0:	aa1403e0 	mov	x0, x20
    1bb4:	94000b9b 	bl	4a20 <mbedtls_mpi_free>
/home/xiang/rockpi4-android/optee_os/lib/libutee/tee_api_arith_mpi.c:690
    1bb8:	aa1303e0 	mov	x0, x19
    1bbc:	94000b99 	bl	4a20 <mbedtls_mpi_free>
/home/xiang/rockpi4-android/optee_os/lib/libutee/tee_api_arith_mpi.c:691
    1bc0:	aa1a03e0 	mov	x0, x26
    1bc4:	94000b97 	bl	4a20 <mbedtls_mpi_free>
/home/xiang/rockpi4-android/optee_os/lib/libutee/tee_api_arith_mpi.c:692
    1bc8:	aa1903e0 	mov	x0, x25
    1bcc:	94000b95 	bl	4a20 <mbedtls_mpi_free>
/home/xiang/rockpi4-android/optee_os/lib/libutee/tee_api_arith_mpi.c:693
    1bd0:	aa1503e0 	mov	x0, x21
    1bd4:	94000b93 	bl	4a20 <mbedtls_mpi_free>
/home/xiang/rockpi4-android/optee_os/lib/libutee/tee_api_arith_mpi.c:694
    1bd8:	a94153f3 	ldp	x19, x20, [sp,#16]
    1bdc:	a9425bf5 	ldp	x21, x22, [sp,#32]
    1be0:	a94363f7 	ldp	x23, x24, [sp,#48]
    1be4:	a9446bf9 	ldp	x25, x26, [sp,#64]
    1be8:	a94573fb 	ldp	x27, x28, [sp,#80]
    1bec:	a8d27bfd 	ldp	x29, x30, [sp],#288
    1bf0:	d65f03c0 	ret

0000000000001bf4 <_TEE_MathAPI_Init>:
_TEE_MathAPI_Init():
/home/xiang/rockpi4-android/optee_os/lib/libutee/tee_api_arith_mpi.c:44
    1bf4:	a9bf7bfd 	stp	x29, x30, [sp,#-16]!
/home/xiang/rockpi4-android/optee_os/lib/libutee/tee_api_arith_mpi.c:47
    1bf8:	d2860001 	mov	x1, #0x3000                	// #12288
    1bfc:	d2800002 	mov	x2, #0x0                   	// #0
    1c00:	900000a0 	adrp	x0, 15000 <ta_heap+0x7b10>
/home/xiang/rockpi4-android/optee_os/lib/libutee/tee_api_arith_mpi.c:44
    1c04:	910003fd 	mov	x29, sp
/home/xiang/rockpi4-android/optee_os/lib/libutee/tee_api_arith_mpi.c:47
    1c08:	91158000 	add	x0, x0, #0x560
    1c0c:	9400237d 	bl	aa00 <mempool_alloc_pool>
    1c10:	90000061 	adrp	x1, d000 <_DYNAMIC>
    1c14:	f940cc21 	ldr	x1, [x1,#408]
    1c18:	f9000020 	str	x0, [x1]
/home/xiang/rockpi4-android/optee_os/lib/libutee/tee_api_arith_mpi.c:48
    1c1c:	b5000100 	cbnz	x0, 1c3c <_TEE_MathAPI_Init+0x48>
/home/xiang/rockpi4-android/optee_os/lib/libutee/tee_api_arith_mpi.c:49
    1c20:	b0000040 	adrp	x0, a000 <kprintf.constprop.0+0x540>
    1c24:	91328000 	add	x0, x0, #0xca0
    1c28:	d0000042 	adrp	x2, b000 <small_prime+0x140>
    1c2c:	52800621 	mov	w1, #0x31                  	// #49
    1c30:	91103442 	add	x2, x2, #0x40d
    1c34:	9100a000 	add	x0, x0, #0x28
    1c38:	94000445 	bl	2d4c <api_panic>
/home/xiang/rockpi4-android/optee_os/lib/libutee/tee_api_arith_mpi.c:50
    1c3c:	a8c17bfd 	ldp	x29, x30, [sp],#16
    1c40:	d65f03c0 	ret

0000000000001c44 <TEE_BigIntInit>:
TEE_BigIntInit():
/home/xiang/rockpi4-android/optee_os/lib/libutee/tee_api_arith_mpi.c:119
    1c44:	a9be7bfd 	stp	x29, x30, [sp,#-32]!
    1c48:	910003fd 	mov	x29, sp
    1c4c:	a90153f3 	stp	x19, x20, [sp,#16]
    1c50:	aa0003f4 	mov	x20, x0
    1c54:	2a0103f3 	mov	w19, w1
/home/xiang/rockpi4-android/optee_os/lib/libutee/tee_api_arith_mpi.c:122
    1c58:	52800001 	mov	w1, #0x0                   	// #0
    1c5c:	d37e7e62 	ubfiz	x2, x19, #2, #32
    1c60:	94001f29 	bl	9904 <memset>
/home/xiang/rockpi4-android/optee_os/lib/libutee/tee_api_arith_mpi.c:123
    1c64:	52800020 	mov	w0, #0x1                   	// #1
    1c68:	b9000280 	str	w0, [x20]
/home/xiang/rockpi4-android/optee_os/lib/libutee/tee_api_arith_mpi.c:124
    1c6c:	51000a73 	sub	w19, w19, #0x2
    1c70:	5284e200 	mov	w0, #0x2710                	// #10000
    1c74:	6b00027f 	cmp	w19, w0
    1c78:	54000109 	b.ls	1c98 <TEE_BigIntInit+0x54>
/home/xiang/rockpi4-android/optee_os/lib/libutee/tee_api_arith_mpi.c:125
    1c7c:	b0000040 	adrp	x0, a000 <kprintf.constprop.0+0x540>
    1c80:	91328000 	add	x0, x0, #0xca0
    1c84:	d0000042 	adrp	x2, b000 <small_prime+0x140>
    1c88:	52800fa1 	mov	w1, #0x7d                  	// #125
    1c8c:	9110b842 	add	x2, x2, #0x42e
    1c90:	91010000 	add	x0, x0, #0x40
    1c94:	9400042e 	bl	2d4c <api_panic>
/home/xiang/rockpi4-android/optee_os/lib/libutee/tee_api_arith_mpi.c:126
    1c98:	79000a93 	strh	w19, [x20,#4]
/home/xiang/rockpi4-android/optee_os/lib/libutee/tee_api_arith_mpi.c:127
    1c9c:	a94153f3 	ldp	x19, x20, [sp,#16]
    1ca0:	a8c27bfd 	ldp	x29, x30, [sp],#32
    1ca4:	d65f03c0 	ret

0000000000001ca8 <TEE_BigIntConvertFromOctetString>:
TEE_BigIntConvertFromOctetString():
/home/xiang/rockpi4-android/optee_os/lib/libutee/tee_api_arith_mpi.c:132
    1ca8:	a9ba7bfd 	stp	x29, x30, [sp,#-96]!
    1cac:	910003fd 	mov	x29, sp
    1cb0:	a90153f3 	stp	x19, x20, [sp,#16]
get_mpi():
/home/xiang/rockpi4-android/optee_os/lib/libutee/tee_api_arith_mpi.c:101
    1cb4:	910123b4 	add	x20, x29, #0x48
TEE_BigIntConvertFromOctetString():
/home/xiang/rockpi4-android/optee_os/lib/libutee/tee_api_arith_mpi.c:132
    1cb8:	a9025bf5 	stp	x21, x22, [sp,#32]
    1cbc:	2a0303f3 	mov	w19, w3
    1cc0:	f9001bf7 	str	x23, [sp,#48]
    1cc4:	aa0103f6 	mov	x22, x1
    1cc8:	2a0203f7 	mov	w23, w2
    1ccc:	aa0003f5 	mov	x21, x0
get_mpi():
/home/xiang/rockpi4-android/optee_os/lib/libutee/tee_api_arith_mpi.c:101
    1cd0:	aa1403e0 	mov	x0, x20
    1cd4:	94000b49 	bl	49f8 <mbedtls_mpi_init_mempool>
TEE_BigIntConvertFromOctetString():
/home/xiang/rockpi4-android/optee_os/lib/libutee/tee_api_arith_mpi.c:138
    1cd8:	2a1703e2 	mov	w2, w23
    1cdc:	aa1603e1 	mov	x1, x22
    1ce0:	aa1403e0 	mov	x0, x20
    1ce4:	94000cfb 	bl	50d0 <mbedtls_mpi_read_binary>
    1ce8:	35000280 	cbnz	w0, 1d38 <TEE_BigIntConvertFromOctetString+0x90>
/home/xiang/rockpi4-android/optee_os/lib/libutee/tee_api_arith_mpi.c:143
    1cec:	36f800b3 	tbz	w19, #31, 1d00 <TEE_BigIntConvertFromOctetString+0x58>
/home/xiang/rockpi4-android/optee_os/lib/libutee/tee_api_arith_mpi.c:141
    1cf0:	52800013 	mov	w19, #0x0                   	// #0
/home/xiang/rockpi4-android/optee_os/lib/libutee/tee_api_arith_mpi.c:144
    1cf4:	12800000 	mov	w0, #0xffffffff            	// #-1
    1cf8:	790093a0 	strh	w0, [x29,#72]
/home/xiang/rockpi4-android/optee_os/lib/libutee/tee_api_arith_mpi.c:146
    1cfc:	350000b3 	cbnz	w19, 1d10 <TEE_BigIntConvertFromOctetString+0x68>
/home/xiang/rockpi4-android/optee_os/lib/libutee/tee_api_arith_mpi.c:147
    1d00:	aa1503e1 	mov	x1, x21
    1d04:	aa1403e0 	mov	x0, x20
    1d08:	97fffdf8 	bl	14e8 <copy_mpi_to_bigint>
    1d0c:	2a0003f3 	mov	w19, w0
/home/xiang/rockpi4-android/optee_os/lib/libutee/tee_api_arith_mpi.c:149
    1d10:	aa1403e0 	mov	x0, x20
    1d14:	94000b43 	bl	4a20 <mbedtls_mpi_free>
/home/xiang/rockpi4-android/optee_os/lib/libutee/tee_api_arith_mpi.c:152
    1d18:	2a1303e0 	mov	w0, w19
    1d1c:	f9401bf7 	ldr	x23, [sp,#48]
    1d20:	a94153f3 	ldp	x19, x20, [sp,#16]
    1d24:	a9425bf5 	ldp	x21, x22, [sp,#32]
    1d28:	a8c67bfd 	ldp	x29, x30, [sp],#96
    1d2c:	d65f03c0 	ret
/home/xiang/rockpi4-android/optee_os/lib/libutee/tee_api_arith_mpi.c:139
    1d30:	1299fe13 	mov	w19, #0xffff300f            	// #-53233
    1d34:	17fffff0 	b	1cf4 <TEE_BigIntConvertFromOctetString+0x4c>
/home/xiang/rockpi4-android/optee_os/lib/libutee/tee_api_arith_mpi.c:143
    1d38:	37ffffd3 	tbnz	w19, #31, 1d30 <TEE_BigIntConvertFromOctetString+0x88>
/home/xiang/rockpi4-android/optee_os/lib/libutee/tee_api_arith_mpi.c:139
    1d3c:	1299fe13 	mov	w19, #0xffff300f            	// #-53233
    1d40:	17fffff4 	b	1d10 <TEE_BigIntConvertFromOctetString+0x68>

0000000000001d44 <TEE_BigIntConvertToOctetString>:
TEE_BigIntConvertToOctetString():
/home/xiang/rockpi4-android/optee_os/lib/libutee/tee_api_arith_mpi.c:156
    1d44:	a9bb7bfd 	stp	x29, x30, [sp,#-80]!
    1d48:	910003fd 	mov	x29, sp
    1d4c:	a9025bf5 	stp	x21, x22, [sp,#32]
    1d50:	aa0103f6 	mov	x22, x1
/home/xiang/rockpi4-android/optee_os/lib/libutee/tee_api_arith_mpi.c:161
    1d54:	aa0203e1 	mov	x1, x2
/home/xiang/rockpi4-android/optee_os/lib/libutee/tee_api_arith_mpi.c:156
    1d58:	a90153f3 	stp	x19, x20, [sp,#16]
/home/xiang/rockpi4-android/optee_os/lib/libutee/tee_api_arith_mpi.c:161
    1d5c:	9100e3b3 	add	x19, x29, #0x38
/home/xiang/rockpi4-android/optee_os/lib/libutee/tee_api_arith_mpi.c:156
    1d60:	aa0003f5 	mov	x21, x0
/home/xiang/rockpi4-android/optee_os/lib/libutee/tee_api_arith_mpi.c:161
    1d64:	aa1303e0 	mov	x0, x19
    1d68:	97fffdba 	bl	1450 <get_mpi>
/home/xiang/rockpi4-android/optee_os/lib/libutee/tee_api_arith_mpi.c:163
    1d6c:	aa1303e0 	mov	x0, x19
    1d70:	94000cb4 	bl	5040 <mbedtls_mpi_size>
    1d74:	aa0003f4 	mov	x20, x0
/home/xiang/rockpi4-android/optee_os/lib/libutee/tee_api_arith_mpi.c:164
    1d78:	b94002c0 	ldr	w0, [x22]
    1d7c:	eb00029f 	cmp	x20, x0
    1d80:	540001a8 	b.hi	1db4 <TEE_BigIntConvertToOctetString+0x70>
/home/xiang/rockpi4-android/optee_os/lib/libutee/tee_api_arith_mpi.c:165
    1d84:	aa1503e1 	mov	x1, x21
    1d88:	aa1403e2 	mov	x2, x20
    1d8c:	aa1303e0 	mov	x0, x19
/home/xiang/rockpi4-android/optee_os/lib/libutee/tee_api_arith_mpi.c:157
    1d90:	52800015 	mov	w21, #0x0                   	// #0
/home/xiang/rockpi4-android/optee_os/lib/libutee/tee_api_arith_mpi.c:165
    1d94:	94000d1e 	bl	520c <mbedtls_mpi_write_binary>
    1d98:	34000100 	cbz	w0, 1db8 <TEE_BigIntConvertToOctetString+0x74>
/home/xiang/rockpi4-android/optee_os/lib/libutee/tee_api_arith_mpi.c:165 (discriminator 1)
    1d9c:	2a0003e2 	mov	w2, w0
    1da0:	b0000040 	adrp	x0, a000 <kprintf.constprop.0+0x540>
    1da4:	91328000 	add	x0, x0, #0xca0
    1da8:	528014a1 	mov	w1, #0xa5                  	// #165
    1dac:	91014000 	add	x0, x0, #0x50
    1db0:	97fffd9c 	bl	1420 <mpi_panic>
/home/xiang/rockpi4-android/optee_os/lib/libutee/tee_api_arith_mpi.c:167
    1db4:	129ffdf5 	mov	w21, #0xffff0010            	// #-65520
/home/xiang/rockpi4-android/optee_os/lib/libutee/tee_api_arith_mpi.c:169
    1db8:	b90002d4 	str	w20, [x22]
/home/xiang/rockpi4-android/optee_os/lib/libutee/tee_api_arith_mpi.c:171
    1dbc:	aa1303e0 	mov	x0, x19
    1dc0:	94000b18 	bl	4a20 <mbedtls_mpi_free>
/home/xiang/rockpi4-android/optee_os/lib/libutee/tee_api_arith_mpi.c:174
    1dc4:	2a1503e0 	mov	w0, w21
    1dc8:	a94153f3 	ldp	x19, x20, [sp,#16]
    1dcc:	a9425bf5 	ldp	x21, x22, [sp,#32]
    1dd0:	a8c57bfd 	ldp	x29, x30, [sp],#80
    1dd4:	d65f03c0 	ret

0000000000001dd8 <TEE_BigIntConvertFromS32>:
TEE_BigIntConvertFromS32():
/home/xiang/rockpi4-android/optee_os/lib/libutee/tee_api_arith_mpi.c:177
    1dd8:	a9bb7bfd 	stp	x29, x30, [sp,#-80]!
    1ddc:	910003fd 	mov	x29, sp
    1de0:	a90153f3 	stp	x19, x20, [sp,#16]
/home/xiang/rockpi4-android/optee_os/lib/libutee/tee_api_arith_mpi.c:180
    1de4:	9100e3b3 	add	x19, x29, #0x38
/home/xiang/rockpi4-android/optee_os/lib/libutee/tee_api_arith_mpi.c:177
    1de8:	f90013f5 	str	x21, [sp,#32]
    1dec:	aa0003f4 	mov	x20, x0
    1df0:	2a0103f5 	mov	w21, w1
/home/xiang/rockpi4-android/optee_os/lib/libutee/tee_api_arith_mpi.c:180
    1df4:	aa0003e1 	mov	x1, x0
    1df8:	aa1303e0 	mov	x0, x19
    1dfc:	97fffd95 	bl	1450 <get_mpi>
/home/xiang/rockpi4-android/optee_os/lib/libutee/tee_api_arith_mpi.c:182
    1e00:	2a1503e1 	mov	w1, w21
    1e04:	aa1303e0 	mov	x0, x19
    1e08:	94000c15 	bl	4e5c <mbedtls_mpi_lset>
    1e0c:	340000e0 	cbz	w0, 1e28 <TEE_BigIntConvertFromS32+0x50>
/home/xiang/rockpi4-android/optee_os/lib/libutee/tee_api_arith_mpi.c:182 (discriminator 1)
    1e10:	2a0003e2 	mov	w2, w0
    1e14:	528016c1 	mov	w1, #0xb6                  	// #182
/home/xiang/rockpi4-android/optee_os/lib/libutee/tee_api_arith_mpi.c:184 (discriminator 1)
    1e18:	b0000040 	adrp	x0, a000 <kprintf.constprop.0+0x540>
    1e1c:	91328000 	add	x0, x0, #0xca0
    1e20:	9101c000 	add	x0, x0, #0x70
    1e24:	97fffd7f 	bl	1420 <mpi_panic>
/home/xiang/rockpi4-android/optee_os/lib/libutee/tee_api_arith_mpi.c:184
    1e28:	aa1403e1 	mov	x1, x20
    1e2c:	aa1303e0 	mov	x0, x19
    1e30:	97fffdae 	bl	14e8 <copy_mpi_to_bigint>
    1e34:	34000080 	cbz	w0, 1e44 <TEE_BigIntConvertFromS32+0x6c>
/home/xiang/rockpi4-android/optee_os/lib/libutee/tee_api_arith_mpi.c:184 (discriminator 1)
    1e38:	2a0003e2 	mov	w2, w0
    1e3c:	52801701 	mov	w1, #0xb8                  	// #184
    1e40:	17fffff6 	b	1e18 <TEE_BigIntConvertFromS32+0x40>
/home/xiang/rockpi4-android/optee_os/lib/libutee/tee_api_arith_mpi.c:185
    1e44:	aa1303e0 	mov	x0, x19
    1e48:	94000af6 	bl	4a20 <mbedtls_mpi_free>
/home/xiang/rockpi4-android/optee_os/lib/libutee/tee_api_arith_mpi.c:186
    1e4c:	a94153f3 	ldp	x19, x20, [sp,#16]
    1e50:	f94013f5 	ldr	x21, [sp,#32]
    1e54:	a8c57bfd 	ldp	x29, x30, [sp],#80
    1e58:	d65f03c0 	ret

0000000000001e5c <TEE_BigIntConvertToS32>:
TEE_BigIntConvertToS32():
/home/xiang/rockpi4-android/optee_os/lib/libutee/tee_api_arith_mpi.c:189
    1e5c:	a9bc7bfd 	stp	x29, x30, [sp,#-64]!
    1e60:	910003fd 	mov	x29, sp
    1e64:	a90153f3 	stp	x19, x20, [sp,#16]
/home/xiang/rockpi4-android/optee_os/lib/libutee/tee_api_arith_mpi.c:194
    1e68:	9100a3b3 	add	x19, x29, #0x28
/home/xiang/rockpi4-android/optee_os/lib/libutee/tee_api_arith_mpi.c:189
    1e6c:	aa0003f4 	mov	x20, x0
/home/xiang/rockpi4-android/optee_os/lib/libutee/tee_api_arith_mpi.c:194
    1e70:	aa1303e0 	mov	x0, x19
    1e74:	97fffd77 	bl	1450 <get_mpi>
/home/xiang/rockpi4-android/optee_os/lib/libutee/tee_api_arith_mpi.c:196
    1e78:	d2800082 	mov	x2, #0x4                   	// #4
    1e7c:	910093a1 	add	x1, x29, #0x24
    1e80:	aa1303e0 	mov	x0, x19
    1e84:	94000ce2 	bl	520c <mbedtls_mpi_write_binary>
    1e88:	35000220 	cbnz	w0, 1ecc <TEE_BigIntConvertToS32+0x70>
/home/xiang/rockpi4-android/optee_os/lib/libutee/tee_api_arith_mpi.c:201
    1e8c:	79c053a0 	ldrsh	w0, [x29,#40]
    1e90:	7100001f 	cmp	w0, #0x0
    1e94:	b94027a0 	ldr	w0, [x29,#36]
    1e98:	540001ed 	b.le	1ed4 <TEE_BigIntConvertToS32+0x78>
/home/xiang/rockpi4-android/optee_os/lib/libutee/tee_api_arith_mpi.c:202
    1e9c:	5ac00800 	rev	w0, w0
    1ea0:	b9000280 	str	w0, [x20]
    1ea4:	93407c01 	sxtw	x1, w0
    1ea8:	eb20403f 	cmp	x1, w0, uxtw
    1eac:	54000101 	b.ne	1ecc <TEE_BigIntConvertToS32+0x70>
/home/xiang/rockpi4-android/optee_os/lib/libutee/tee_api_arith_mpi.c:190
    1eb0:	52800014 	mov	w20, #0x0                   	// #0
/home/xiang/rockpi4-android/optee_os/lib/libutee/tee_api_arith_mpi.c:210
    1eb4:	aa1303e0 	mov	x0, x19
    1eb8:	94000ada 	bl	4a20 <mbedtls_mpi_free>
/home/xiang/rockpi4-android/optee_os/lib/libutee/tee_api_arith_mpi.c:213
    1ebc:	2a1403e0 	mov	w0, w20
    1ec0:	a94153f3 	ldp	x19, x20, [sp,#16]
    1ec4:	a8c47bfd 	ldp	x29, x30, [sp],#64
    1ec8:	d65f03c0 	ret
/home/xiang/rockpi4-android/optee_os/lib/libutee/tee_api_arith_mpi.c:203
    1ecc:	1299fe14 	mov	w20, #0xffff300f            	// #-53233
    1ed0:	17fffff9 	b	1eb4 <TEE_BigIntConvertToS32+0x58>
/home/xiang/rockpi4-android/optee_os/lib/libutee/tee_api_arith_mpi.c:205
    1ed4:	5ac00800 	rev	w0, w0
    1ed8:	cb0003e0 	neg	x0, x0
    1edc:	b9000280 	str	w0, [x20]
    1ee0:	eb20c01f 	cmp	x0, w0, sxtw
    1ee4:	17fffff2 	b	1eac <TEE_BigIntConvertToS32+0x50>

0000000000001ee8 <TEE_BigIntCmp>:
TEE_BigIntCmp():
/home/xiang/rockpi4-android/optee_os/lib/libutee/tee_api_arith_mpi.c:216
    1ee8:	a9ba7bfd 	stp	x29, x30, [sp,#-96]!
    1eec:	910003fd 	mov	x29, sp
    1ef0:	a90153f3 	stp	x19, x20, [sp,#16]
/home/xiang/rockpi4-android/optee_os/lib/libutee/tee_api_arith_mpi.c:221
    1ef4:	9100c3b4 	add	x20, x29, #0x30
/home/xiang/rockpi4-android/optee_os/lib/libutee/tee_api_arith_mpi.c:222
    1ef8:	910123b3 	add	x19, x29, #0x48
/home/xiang/rockpi4-android/optee_os/lib/libutee/tee_api_arith_mpi.c:216
    1efc:	f90013f5 	str	x21, [sp,#32]
    1f00:	aa0103f5 	mov	x21, x1
/home/xiang/rockpi4-android/optee_os/lib/libutee/tee_api_arith_mpi.c:221
    1f04:	aa0003e1 	mov	x1, x0
    1f08:	aa1403e0 	mov	x0, x20
    1f0c:	97fffd51 	bl	1450 <get_mpi>
/home/xiang/rockpi4-android/optee_os/lib/libutee/tee_api_arith_mpi.c:222
    1f10:	aa1503e1 	mov	x1, x21
    1f14:	aa1303e0 	mov	x0, x19
    1f18:	97fffd4e 	bl	1450 <get_mpi>
/home/xiang/rockpi4-android/optee_os/lib/libutee/tee_api_arith_mpi.c:224
    1f1c:	aa1303e1 	mov	x1, x19
    1f20:	aa1403e0 	mov	x0, x20
    1f24:	94000d85 	bl	5538 <mbedtls_mpi_cmp_mpi>
    1f28:	2a0003f5 	mov	w21, w0
/home/xiang/rockpi4-android/optee_os/lib/libutee/tee_api_arith_mpi.c:226
    1f2c:	aa1403e0 	mov	x0, x20
    1f30:	94000abc 	bl	4a20 <mbedtls_mpi_free>
/home/xiang/rockpi4-android/optee_os/lib/libutee/tee_api_arith_mpi.c:227
    1f34:	aa1303e0 	mov	x0, x19
    1f38:	94000aba 	bl	4a20 <mbedtls_mpi_free>
/home/xiang/rockpi4-android/optee_os/lib/libutee/tee_api_arith_mpi.c:230
    1f3c:	2a1503e0 	mov	w0, w21
    1f40:	f94013f5 	ldr	x21, [sp,#32]
    1f44:	a94153f3 	ldp	x19, x20, [sp,#16]
    1f48:	a8c67bfd 	ldp	x29, x30, [sp],#96
    1f4c:	d65f03c0 	ret

0000000000001f50 <TEE_BigIntCmpS32>:
TEE_BigIntCmpS32():
/home/xiang/rockpi4-android/optee_os/lib/libutee/tee_api_arith_mpi.c:233
    1f50:	a9bc7bfd 	stp	x29, x30, [sp,#-64]!
    1f54:	910003fd 	mov	x29, sp
    1f58:	a90153f3 	stp	x19, x20, [sp,#16]
/home/xiang/rockpi4-android/optee_os/lib/libutee/tee_api_arith_mpi.c:237
    1f5c:	9100a3b3 	add	x19, x29, #0x28
/home/xiang/rockpi4-android/optee_os/lib/libutee/tee_api_arith_mpi.c:233
    1f60:	2a0103f4 	mov	w20, w1
/home/xiang/rockpi4-android/optee_os/lib/libutee/tee_api_arith_mpi.c:237
    1f64:	aa0003e1 	mov	x1, x0
    1f68:	aa1303e0 	mov	x0, x19
    1f6c:	97fffd39 	bl	1450 <get_mpi>
/home/xiang/rockpi4-android/optee_os/lib/libutee/tee_api_arith_mpi.c:239
    1f70:	2a1403e1 	mov	w1, w20
    1f74:	aa1303e0 	mov	x0, x19
    1f78:	94000dac 	bl	5628 <mbedtls_mpi_cmp_int>
    1f7c:	2a0003f4 	mov	w20, w0
/home/xiang/rockpi4-android/optee_os/lib/libutee/tee_api_arith_mpi.c:241
    1f80:	aa1303e0 	mov	x0, x19
    1f84:	94000aa7 	bl	4a20 <mbedtls_mpi_free>
/home/xiang/rockpi4-android/optee_os/lib/libutee/tee_api_arith_mpi.c:244
    1f88:	2a1403e0 	mov	w0, w20
    1f8c:	a94153f3 	ldp	x19, x20, [sp,#16]
    1f90:	a8c47bfd 	ldp	x29, x30, [sp],#64
    1f94:	d65f03c0 	ret

0000000000001f98 <bigint_binary_mod>:
bigint_binary_mod():
/home/xiang/rockpi4-android/optee_os/lib/libutee/tee_api_arith_mpi.c:354
    1f98:	a9b27bfd 	stp	x29, x30, [sp,#-224]!
    1f9c:	910003fd 	mov	x29, sp
    1fa0:	a9025bf5 	stp	x21, x22, [sp,#32]
    1fa4:	aa0103f6 	mov	x22, x1
    1fa8:	a90153f3 	stp	x19, x20, [sp,#16]
    1fac:	aa0303f5 	mov	x21, x3
    1fb0:	a90363f7 	stp	x23, x24, [sp,#48]
    1fb4:	aa0203f4 	mov	x20, x2
    1fb8:	f9002bfb 	str	x27, [sp,#80]
    1fbc:	aa0003f7 	mov	x23, x0
    1fc0:	a9046bf9 	stp	x25, x26, [sp,#64]
/home/xiang/rockpi4-android/optee_os/lib/libutee/tee_api_arith_mpi.c:363
    1fc4:	52800041 	mov	w1, #0x2                   	// #2
    1fc8:	aa0303e0 	mov	x0, x3
/home/xiang/rockpi4-android/optee_os/lib/libutee/tee_api_arith_mpi.c:354
    1fcc:	aa0403fb 	mov	x27, x4
/home/xiang/rockpi4-android/optee_os/lib/libutee/tee_api_arith_mpi.c:363
    1fd0:	97ffffe0 	bl	1f50 <TEE_BigIntCmpS32>
    1fd4:	36f80100 	tbz	w0, #31, 1ff4 <bigint_binary_mod+0x5c>
/home/xiang/rockpi4-android/optee_os/lib/libutee/tee_api_arith_mpi.c:364
    1fd8:	b0000040 	adrp	x0, a000 <kprintf.constprop.0+0x540>
    1fdc:	91328000 	add	x0, x0, #0xca0
    1fe0:	d0000042 	adrp	x2, b000 <small_prime+0x140>
    1fe4:	52802d81 	mov	w1, #0x16c                 	// #364
    1fe8:	9110fc42 	add	x2, x2, #0x43f
    1fec:	91024000 	add	x0, x0, #0x90
    1ff0:	94000357 	bl	2d4c <api_panic>
/home/xiang/rockpi4-android/optee_os/lib/libutee/tee_api_arith_mpi.c:366
    1ff4:	9101a3b3 	add	x19, x29, #0x68
    1ff8:	aa1703e1 	mov	x1, x23
    1ffc:	aa1303e0 	mov	x0, x19
/home/xiang/rockpi4-android/optee_os/lib/libutee/tee_api_arith_mpi.c:367
    2000:	9102c3b8 	add	x24, x29, #0xb0
/home/xiang/rockpi4-android/optee_os/lib/libutee/tee_api_arith_mpi.c:366
    2004:	97fffd13 	bl	1450 <get_mpi>
    2008:	910203ba 	add	x26, x29, #0x80
/home/xiang/rockpi4-android/optee_os/lib/libutee/tee_api_arith_mpi.c:367
    200c:	aa1503e1 	mov	x1, x21
    2010:	aa1803e0 	mov	x0, x24
    2014:	97fffd0f 	bl	1450 <get_mpi>
/home/xiang/rockpi4-android/optee_os/lib/libutee/tee_api_arith_mpi.c:369
    2018:	eb1602ff 	cmp	x23, x22
    201c:	54000380 	b.eq	208c <bigint_binary_mod+0xf4>
/home/xiang/rockpi4-android/optee_os/lib/libutee/tee_api_arith_mpi.c:359
    2020:	aa1a03f5 	mov	x21, x26
/home/xiang/rockpi4-android/optee_os/lib/libutee/tee_api_arith_mpi.c:372
    2024:	aa1603e1 	mov	x1, x22
    2028:	aa1a03e0 	mov	x0, x26
    202c:	97fffd09 	bl	1450 <get_mpi>
/home/xiang/rockpi4-android/optee_os/lib/libutee/tee_api_arith_mpi.c:374
    2030:	eb1402ff 	cmp	x23, x20
    2034:	910263b9 	add	x25, x29, #0x98
    2038:	540002e0 	b.eq	2094 <bigint_binary_mod+0xfc>
/home/xiang/rockpi4-android/optee_os/lib/libutee/tee_api_arith_mpi.c:376
    203c:	eb1402df 	cmp	x22, x20
    2040:	540002e0 	b.eq	209c <bigint_binary_mod+0x104>
/home/xiang/rockpi4-android/optee_os/lib/libutee/tee_api_arith_mpi.c:379
    2044:	aa1403e1 	mov	x1, x20
/home/xiang/rockpi4-android/optee_os/lib/libutee/tee_api_arith_mpi.c:360
    2048:	aa1903f4 	mov	x20, x25
/home/xiang/rockpi4-android/optee_os/lib/libutee/tee_api_arith_mpi.c:379
    204c:	aa1903e0 	mov	x0, x25
    2050:	97fffd00 	bl	1450 <get_mpi>
get_mpi():
/home/xiang/rockpi4-android/optee_os/lib/libutee/tee_api_arith_mpi.c:101
    2054:	910323b6 	add	x22, x29, #0xc8
    2058:	aa1603e0 	mov	x0, x22
    205c:	94000a67 	bl	49f8 <mbedtls_mpi_init_mempool>
bigint_binary_mod():
/home/xiang/rockpi4-android/optee_os/lib/libutee/tee_api_arith_mpi.c:383
    2060:	aa1403e2 	mov	x2, x20
    2064:	aa1503e1 	mov	x1, x21
    2068:	aa1603e0 	mov	x0, x22
    206c:	d63f0360 	blr	x27
    2070:	340001a0 	cbz	w0, 20a4 <bigint_binary_mod+0x10c>
/home/xiang/rockpi4-android/optee_os/lib/libutee/tee_api_arith_mpi.c:383 (discriminator 1)
    2074:	2a0003e2 	mov	w2, w0
    2078:	52802fe1 	mov	w1, #0x17f                 	// #383
/home/xiang/rockpi4-android/optee_os/lib/libutee/tee_api_arith_mpi.c:384 (discriminator 1)
    207c:	90000040 	adrp	x0, a000 <kprintf.constprop.0+0x540>
    2080:	91328000 	add	x0, x0, #0xca0
    2084:	91024000 	add	x0, x0, #0x90
    2088:	97fffce6 	bl	1420 <mpi_panic>
/home/xiang/rockpi4-android/optee_os/lib/libutee/tee_api_arith_mpi.c:370
    208c:	aa1303f5 	mov	x21, x19
    2090:	17ffffe8 	b	2030 <bigint_binary_mod+0x98>
/home/xiang/rockpi4-android/optee_os/lib/libutee/tee_api_arith_mpi.c:375
    2094:	aa1303f4 	mov	x20, x19
    2098:	17ffffef 	b	2054 <bigint_binary_mod+0xbc>
/home/xiang/rockpi4-android/optee_os/lib/libutee/tee_api_arith_mpi.c:377
    209c:	aa1503f4 	mov	x20, x21
    20a0:	17ffffed 	b	2054 <bigint_binary_mod+0xbc>
/home/xiang/rockpi4-android/optee_os/lib/libutee/tee_api_arith_mpi.c:384
    20a4:	aa1803e2 	mov	x2, x24
    20a8:	aa1603e1 	mov	x1, x22
    20ac:	aa1303e0 	mov	x0, x19
    20b0:	940010d5 	bl	6404 <mbedtls_mpi_mod_mpi>
    20b4:	34000080 	cbz	w0, 20c4 <bigint_binary_mod+0x12c>
/home/xiang/rockpi4-android/optee_os/lib/libutee/tee_api_arith_mpi.c:384 (discriminator 1)
    20b8:	2a0003e2 	mov	w2, w0
    20bc:	52803001 	mov	w1, #0x180                 	// #384
    20c0:	17ffffef 	b	207c <bigint_binary_mod+0xe4>
/home/xiang/rockpi4-android/optee_os/lib/libutee/tee_api_arith_mpi.c:386
    20c4:	aa1703e1 	mov	x1, x23
    20c8:	aa1303e0 	mov	x0, x19
    20cc:	97fffd07 	bl	14e8 <copy_mpi_to_bigint>
    20d0:	34000080 	cbz	w0, 20e0 <bigint_binary_mod+0x148>
/home/xiang/rockpi4-android/optee_os/lib/libutee/tee_api_arith_mpi.c:386 (discriminator 1)
    20d4:	2a0003e2 	mov	w2, w0
    20d8:	52803041 	mov	w1, #0x182                 	// #386
    20dc:	17ffffe8 	b	207c <bigint_binary_mod+0xe4>
/home/xiang/rockpi4-android/optee_os/lib/libutee/tee_api_arith_mpi.c:387
    20e0:	aa1303e0 	mov	x0, x19
    20e4:	94000a4f 	bl	4a20 <mbedtls_mpi_free>
/home/xiang/rockpi4-android/optee_os/lib/libutee/tee_api_arith_mpi.c:388
    20e8:	eb1a02bf 	cmp	x21, x26
    20ec:	54000061 	b.ne	20f8 <bigint_binary_mod+0x160>
/home/xiang/rockpi4-android/optee_os/lib/libutee/tee_api_arith_mpi.c:389
    20f0:	aa1503e0 	mov	x0, x21
    20f4:	94000a4b 	bl	4a20 <mbedtls_mpi_free>
/home/xiang/rockpi4-android/optee_os/lib/libutee/tee_api_arith_mpi.c:390
    20f8:	eb19029f 	cmp	x20, x25
    20fc:	54000061 	b.ne	2108 <bigint_binary_mod+0x170>
/home/xiang/rockpi4-android/optee_os/lib/libutee/tee_api_arith_mpi.c:391
    2100:	aa1403e0 	mov	x0, x20
    2104:	94000a47 	bl	4a20 <mbedtls_mpi_free>
/home/xiang/rockpi4-android/optee_os/lib/libutee/tee_api_arith_mpi.c:392
    2108:	aa1603e0 	mov	x0, x22
    210c:	94000a45 	bl	4a20 <mbedtls_mpi_free>
/home/xiang/rockpi4-android/optee_os/lib/libutee/tee_api_arith_mpi.c:393
    2110:	aa1803e0 	mov	x0, x24
    2114:	94000a43 	bl	4a20 <mbedtls_mpi_free>
/home/xiang/rockpi4-android/optee_os/lib/libutee/tee_api_arith_mpi.c:394
    2118:	a94153f3 	ldp	x19, x20, [sp,#16]
    211c:	a9425bf5 	ldp	x21, x22, [sp,#32]
    2120:	a94363f7 	ldp	x23, x24, [sp,#48]
    2124:	a9446bf9 	ldp	x25, x26, [sp,#64]
    2128:	f9402bfb 	ldr	x27, [sp,#80]
    212c:	a8ce7bfd 	ldp	x29, x30, [sp],#224
    2130:	d65f03c0 	ret

0000000000002134 <TEE_BigIntShiftRight>:
TEE_BigIntShiftRight():
/home/xiang/rockpi4-android/optee_os/lib/libutee/tee_api_arith_mpi.c:247
    2134:	a9b77bfd 	stp	x29, x30, [sp,#-144]!
    2138:	910003fd 	mov	x29, sp
    213c:	a90153f3 	stp	x19, x20, [sp,#16]
/home/xiang/rockpi4-android/optee_os/lib/libutee/tee_api_arith_mpi.c:251
    2140:	910123b3 	add	x19, x29, #0x48
/home/xiang/rockpi4-android/optee_os/lib/libutee/tee_api_arith_mpi.c:247
    2144:	a9025bf5 	stp	x21, x22, [sp,#32]
    2148:	aa0003f6 	mov	x22, x0
    214c:	aa0103f5 	mov	x21, x1
    2150:	f9001bf7 	str	x23, [sp,#48]
/home/xiang/rockpi4-android/optee_os/lib/libutee/tee_api_arith_mpi.c:251
    2154:	aa0003e1 	mov	x1, x0
/home/xiang/rockpi4-android/optee_os/lib/libutee/tee_api_arith_mpi.c:247
    2158:	aa0203f7 	mov	x23, x2
/home/xiang/rockpi4-android/optee_os/lib/libutee/tee_api_arith_mpi.c:251
    215c:	aa1303e0 	mov	x0, x19
    2160:	97fffcbc 	bl	1450 <get_mpi>
/home/xiang/rockpi4-android/optee_os/lib/libutee/tee_api_arith_mpi.c:253
    2164:	eb1502df 	cmp	x22, x21
    2168:	54000161 	b.ne	2194 <TEE_BigIntShiftRight+0x60>
/home/xiang/rockpi4-android/optee_os/lib/libutee/tee_api_arith_mpi.c:254
    216c:	aa1703e1 	mov	x1, x23
    2170:	aa1303e0 	mov	x0, x19
    2174:	94000c96 	bl	53cc <mbedtls_mpi_shift_r>
    2178:	34000780 	cbz	w0, 2268 <TEE_BigIntShiftRight+0x134>
/home/xiang/rockpi4-android/optee_os/lib/libutee/tee_api_arith_mpi.c:254 (discriminator 1)
    217c:	2a0003e2 	mov	w2, w0
    2180:	52801fc1 	mov	w1, #0xfe                  	// #254
/home/xiang/rockpi4-android/optee_os/lib/libutee/tee_api_arith_mpi.c:261 (discriminator 1)
    2184:	90000040 	adrp	x0, a000 <kprintf.constprop.0+0x540>
    2188:	91328000 	add	x0, x0, #0xca0
    218c:	9102a000 	add	x0, x0, #0xa8
    2190:	97fffca4 	bl	1420 <mpi_panic>
/home/xiang/rockpi4-android/optee_os/lib/libutee/tee_api_arith_mpi.c:258
    2194:	aa1503e1 	mov	x1, x21
    2198:	910183b4 	add	x20, x29, #0x60
    219c:	aa1403e0 	mov	x0, x20
    21a0:	97fffcac 	bl	1450 <get_mpi>
/home/xiang/rockpi4-android/optee_os/lib/libutee/tee_api_arith_mpi.c:260
    21a4:	aa1303e0 	mov	x0, x19
    21a8:	94000ba6 	bl	5040 <mbedtls_mpi_size>
    21ac:	aa0003f5 	mov	x21, x0
    21b0:	aa1403e0 	mov	x0, x20
    21b4:	94000ba3 	bl	5040 <mbedtls_mpi_size>
    21b8:	eb0002bf 	cmp	x21, x0
    21bc:	540001e3 	b.cc	21f8 <TEE_BigIntShiftRight+0xc4>
/home/xiang/rockpi4-android/optee_os/lib/libutee/tee_api_arith_mpi.c:261
    21c0:	aa1403e1 	mov	x1, x20
    21c4:	aa1303e0 	mov	x0, x19
    21c8:	94000ad4 	bl	4d18 <mbedtls_mpi_copy>
    21cc:	34000080 	cbz	w0, 21dc <TEE_BigIntShiftRight+0xa8>
/home/xiang/rockpi4-android/optee_os/lib/libutee/tee_api_arith_mpi.c:261 (discriminator 1)
    21d0:	2a0003e2 	mov	w2, w0
    21d4:	528020a1 	mov	w1, #0x105                 	// #261
    21d8:	17ffffeb 	b	2184 <TEE_BigIntShiftRight+0x50>
/home/xiang/rockpi4-android/optee_os/lib/libutee/tee_api_arith_mpi.c:262
    21dc:	aa1703e1 	mov	x1, x23
    21e0:	aa1303e0 	mov	x0, x19
    21e4:	94000c7a 	bl	53cc <mbedtls_mpi_shift_r>
    21e8:	340003c0 	cbz	w0, 2260 <TEE_BigIntShiftRight+0x12c>
/home/xiang/rockpi4-android/optee_os/lib/libutee/tee_api_arith_mpi.c:262 (discriminator 1)
    21ec:	2a0003e2 	mov	w2, w0
    21f0:	528020c1 	mov	w1, #0x106                 	// #262
    21f4:	17ffffe4 	b	2184 <TEE_BigIntShiftRight+0x50>
get_mpi():
/home/xiang/rockpi4-android/optee_os/lib/libutee/tee_api_arith_mpi.c:101
    21f8:	9101e3b5 	add	x21, x29, #0x78
    21fc:	aa1503e0 	mov	x0, x21
    2200:	940009fe 	bl	49f8 <mbedtls_mpi_init_mempool>
TEE_BigIntShiftRight():
/home/xiang/rockpi4-android/optee_os/lib/libutee/tee_api_arith_mpi.c:273
    2204:	aa1403e1 	mov	x1, x20
    2208:	aa1503e0 	mov	x0, x21
    220c:	94000ac3 	bl	4d18 <mbedtls_mpi_copy>
    2210:	34000080 	cbz	w0, 2220 <TEE_BigIntShiftRight+0xec>
/home/xiang/rockpi4-android/optee_os/lib/libutee/tee_api_arith_mpi.c:273 (discriminator 1)
    2214:	2a0003e2 	mov	w2, w0
    2218:	52802221 	mov	w1, #0x111                 	// #273
    221c:	17ffffda 	b	2184 <TEE_BigIntShiftRight+0x50>
/home/xiang/rockpi4-android/optee_os/lib/libutee/tee_api_arith_mpi.c:274
    2220:	aa1703e1 	mov	x1, x23
    2224:	aa1503e0 	mov	x0, x21
    2228:	94000c69 	bl	53cc <mbedtls_mpi_shift_r>
    222c:	34000080 	cbz	w0, 223c <TEE_BigIntShiftRight+0x108>
/home/xiang/rockpi4-android/optee_os/lib/libutee/tee_api_arith_mpi.c:274 (discriminator 1)
    2230:	2a0003e2 	mov	w2, w0
    2234:	52802241 	mov	w1, #0x112                 	// #274
    2238:	17ffffd3 	b	2184 <TEE_BigIntShiftRight+0x50>
/home/xiang/rockpi4-android/optee_os/lib/libutee/tee_api_arith_mpi.c:275
    223c:	aa1503e1 	mov	x1, x21
    2240:	aa1303e0 	mov	x0, x19
    2244:	94000ab5 	bl	4d18 <mbedtls_mpi_copy>
    2248:	34000080 	cbz	w0, 2258 <TEE_BigIntShiftRight+0x124>
/home/xiang/rockpi4-android/optee_os/lib/libutee/tee_api_arith_mpi.c:275 (discriminator 1)
    224c:	2a0003e2 	mov	w2, w0
    2250:	52802261 	mov	w1, #0x113                 	// #275
    2254:	17ffffcc 	b	2184 <TEE_BigIntShiftRight+0x50>
/home/xiang/rockpi4-android/optee_os/lib/libutee/tee_api_arith_mpi.c:277
    2258:	aa1503e0 	mov	x0, x21
    225c:	940009f1 	bl	4a20 <mbedtls_mpi_free>
/home/xiang/rockpi4-android/optee_os/lib/libutee/tee_api_arith_mpi.c:280
    2260:	aa1403e0 	mov	x0, x20
    2264:	940009ef 	bl	4a20 <mbedtls_mpi_free>
/home/xiang/rockpi4-android/optee_os/lib/libutee/tee_api_arith_mpi.c:283
    2268:	aa1603e1 	mov	x1, x22
    226c:	aa1303e0 	mov	x0, x19
    2270:	97fffc9e 	bl	14e8 <copy_mpi_to_bigint>
    2274:	34000080 	cbz	w0, 2284 <TEE_BigIntShiftRight+0x150>
/home/xiang/rockpi4-android/optee_os/lib/libutee/tee_api_arith_mpi.c:283 (discriminator 1)
    2278:	2a0003e2 	mov	w2, w0
    227c:	52802361 	mov	w1, #0x11b                 	// #283
    2280:	17ffffc1 	b	2184 <TEE_BigIntShiftRight+0x50>
/home/xiang/rockpi4-android/optee_os/lib/libutee/tee_api_arith_mpi.c:284
    2284:	aa1303e0 	mov	x0, x19
    2288:	940009e6 	bl	4a20 <mbedtls_mpi_free>
/home/xiang/rockpi4-android/optee_os/lib/libutee/tee_api_arith_mpi.c:285
    228c:	a94153f3 	ldp	x19, x20, [sp,#16]
    2290:	a9425bf5 	ldp	x21, x22, [sp,#32]
    2294:	f9401bf7 	ldr	x23, [sp,#48]
    2298:	a8c97bfd 	ldp	x29, x30, [sp],#144
    229c:	d65f03c0 	ret

00000000000022a0 <TEE_BigIntGetBit>:
TEE_BigIntGetBit():
/home/xiang/rockpi4-android/optee_os/lib/libutee/tee_api_arith_mpi.c:288
    22a0:	a9bc7bfd 	stp	x29, x30, [sp,#-64]!
    22a4:	910003fd 	mov	x29, sp
    22a8:	a90153f3 	stp	x19, x20, [sp,#16]
/home/xiang/rockpi4-android/optee_os/lib/libutee/tee_api_arith_mpi.c:292
    22ac:	9100a3b3 	add	x19, x29, #0x28
/home/xiang/rockpi4-android/optee_os/lib/libutee/tee_api_arith_mpi.c:288
    22b0:	2a0103f4 	mov	w20, w1
/home/xiang/rockpi4-android/optee_os/lib/libutee/tee_api_arith_mpi.c:292
    22b4:	aa0003e1 	mov	x1, x0
    22b8:	aa1303e0 	mov	x0, x19
    22bc:	97fffc65 	bl	1450 <get_mpi>
/home/xiang/rockpi4-android/optee_os/lib/libutee/tee_api_arith_mpi.c:294
    22c0:	2a1403e1 	mov	w1, w20
    22c4:	aa1303e0 	mov	x0, x19
    22c8:	94000aff 	bl	4ec4 <mbedtls_mpi_get_bit>
    22cc:	2a0003f4 	mov	w20, w0
/home/xiang/rockpi4-android/optee_os/lib/libutee/tee_api_arith_mpi.c:296
    22d0:	aa1303e0 	mov	x0, x19
    22d4:	940009d3 	bl	4a20 <mbedtls_mpi_free>
/home/xiang/rockpi4-android/optee_os/lib/libutee/tee_api_arith_mpi.c:294
    22d8:	7100029f 	cmp	w20, #0x0
/home/xiang/rockpi4-android/optee_os/lib/libutee/tee_api_arith_mpi.c:299
    22dc:	1a9f07e0 	cset	w0, ne
    22e0:	a94153f3 	ldp	x19, x20, [sp,#16]
    22e4:	a8c47bfd 	ldp	x29, x30, [sp],#64
    22e8:	d65f03c0 	ret

00000000000022ec <TEE_BigIntGetBitCount>:
TEE_BigIntGetBitCount():
/home/xiang/rockpi4-android/optee_os/lib/libutee/tee_api_arith_mpi.c:302
    22ec:	a9bc7bfd 	stp	x29, x30, [sp,#-64]!
/home/xiang/rockpi4-android/optee_os/lib/libutee/tee_api_arith_mpi.c:306
    22f0:	aa0003e1 	mov	x1, x0
/home/xiang/rockpi4-android/optee_os/lib/libutee/tee_api_arith_mpi.c:302
    22f4:	910003fd 	mov	x29, sp
    22f8:	a90153f3 	stp	x19, x20, [sp,#16]
/home/xiang/rockpi4-android/optee_os/lib/libutee/tee_api_arith_mpi.c:306
    22fc:	9100a3b3 	add	x19, x29, #0x28
    2300:	aa1303e0 	mov	x0, x19
    2304:	97fffc53 	bl	1450 <get_mpi>
/home/xiang/rockpi4-android/optee_os/lib/libutee/tee_api_arith_mpi.c:308
    2308:	aa1303e0 	mov	x0, x19
    230c:	94000b32 	bl	4fd4 <mbedtls_mpi_bitlen>
    2310:	aa0003f4 	mov	x20, x0
/home/xiang/rockpi4-android/optee_os/lib/libutee/tee_api_arith_mpi.c:310
    2314:	aa1303e0 	mov	x0, x19
    2318:	940009c2 	bl	4a20 <mbedtls_mpi_free>
/home/xiang/rockpi4-android/optee_os/lib/libutee/tee_api_arith_mpi.c:313
    231c:	2a1403e0 	mov	w0, w20
    2320:	a94153f3 	ldp	x19, x20, [sp,#16]
    2324:	a8c47bfd 	ldp	x29, x30, [sp],#64
    2328:	d65f03c0 	ret

000000000000232c <TEE_BigIntAdd>:
TEE_BigIntAdd():
/home/xiang/rockpi4-android/optee_os/lib/libutee/tee_api_arith_mpi.c:399
    232c:	f0000043 	adrp	x3, d000 <_DYNAMIC>
    2330:	f940a863 	ldr	x3, [x3,#336]
    2334:	17fffc88 	b	1554 <bigint_binary>

0000000000002338 <TEE_BigIntSub>:
TEE_BigIntSub():
/home/xiang/rockpi4-android/optee_os/lib/libutee/tee_api_arith_mpi.c:405
    2338:	f0000043 	adrp	x3, d000 <_DYNAMIC>
    233c:	f940b063 	ldr	x3, [x3,#352]
    2340:	17fffc85 	b	1554 <bigint_binary>

0000000000002344 <TEE_BigIntNeg>:
TEE_BigIntNeg():
/home/xiang/rockpi4-android/optee_os/lib/libutee/tee_api_arith_mpi.c:409
    2344:	a9ba7bfd 	stp	x29, x30, [sp,#-96]!
    2348:	910003fd 	mov	x29, sp
    234c:	a90153f3 	stp	x19, x20, [sp,#16]
/home/xiang/rockpi4-android/optee_os/lib/libutee/tee_api_arith_mpi.c:412
    2350:	9100c3b3 	add	x19, x29, #0x30
/home/xiang/rockpi4-android/optee_os/lib/libutee/tee_api_arith_mpi.c:409
    2354:	a9025bf5 	stp	x21, x22, [sp,#32]
    2358:	aa0003f4 	mov	x20, x0
    235c:	aa0103f6 	mov	x22, x1
/home/xiang/rockpi4-android/optee_os/lib/libutee/tee_api_arith_mpi.c:412
    2360:	aa0003e1 	mov	x1, x0
    2364:	aa1303e0 	mov	x0, x19
    2368:	97fffc3a 	bl	1450 <get_mpi>
/home/xiang/rockpi4-android/optee_os/lib/libutee/tee_api_arith_mpi.c:414
    236c:	eb16029f 	cmp	x20, x22
    2370:	54000220 	b.eq	23b4 <TEE_BigIntNeg+0x70>
/home/xiang/rockpi4-android/optee_os/lib/libutee/tee_api_arith_mpi.c:417
    2374:	910123b5 	add	x21, x29, #0x48
    2378:	aa1603e1 	mov	x1, x22
    237c:	aa1503e0 	mov	x0, x21
    2380:	97fffc34 	bl	1450 <get_mpi>
/home/xiang/rockpi4-android/optee_os/lib/libutee/tee_api_arith_mpi.c:419
    2384:	aa1503e1 	mov	x1, x21
    2388:	aa1303e0 	mov	x0, x19
    238c:	94000a63 	bl	4d18 <mbedtls_mpi_copy>
    2390:	340000e0 	cbz	w0, 23ac <TEE_BigIntNeg+0x68>
/home/xiang/rockpi4-android/optee_os/lib/libutee/tee_api_arith_mpi.c:419 (discriminator 1)
    2394:	2a0003e2 	mov	w2, w0
    2398:	52803461 	mov	w1, #0x1a3                 	// #419
/home/xiang/rockpi4-android/optee_os/lib/libutee/tee_api_arith_mpi.c:426 (discriminator 1)
    239c:	90000040 	adrp	x0, a000 <kprintf.constprop.0+0x540>
    23a0:	91328000 	add	x0, x0, #0xca0
    23a4:	91030000 	add	x0, x0, #0xc0
    23a8:	97fffc1e 	bl	1420 <mpi_panic>
/home/xiang/rockpi4-android/optee_os/lib/libutee/tee_api_arith_mpi.c:421
    23ac:	aa1503e0 	mov	x0, x21
    23b0:	9400099c 	bl	4a20 <mbedtls_mpi_free>
/home/xiang/rockpi4-android/optee_os/lib/libutee/tee_api_arith_mpi.c:424
    23b4:	794063a0 	ldrh	w0, [x29,#48]
/home/xiang/rockpi4-android/optee_os/lib/libutee/tee_api_arith_mpi.c:426
    23b8:	aa1403e1 	mov	x1, x20
/home/xiang/rockpi4-android/optee_os/lib/libutee/tee_api_arith_mpi.c:424
    23bc:	4b0003e0 	neg	w0, w0
    23c0:	790063a0 	strh	w0, [x29,#48]
/home/xiang/rockpi4-android/optee_os/lib/libutee/tee_api_arith_mpi.c:426
    23c4:	aa1303e0 	mov	x0, x19
    23c8:	97fffc48 	bl	14e8 <copy_mpi_to_bigint>
    23cc:	34000080 	cbz	w0, 23dc <TEE_BigIntNeg+0x98>
/home/xiang/rockpi4-android/optee_os/lib/libutee/tee_api_arith_mpi.c:426 (discriminator 1)
    23d0:	2a0003e2 	mov	w2, w0
    23d4:	52803541 	mov	w1, #0x1aa                 	// #426
    23d8:	17fffff1 	b	239c <TEE_BigIntNeg+0x58>
/home/xiang/rockpi4-android/optee_os/lib/libutee/tee_api_arith_mpi.c:427
    23dc:	aa1303e0 	mov	x0, x19
    23e0:	94000990 	bl	4a20 <mbedtls_mpi_free>
/home/xiang/rockpi4-android/optee_os/lib/libutee/tee_api_arith_mpi.c:428
    23e4:	a94153f3 	ldp	x19, x20, [sp,#16]
    23e8:	a9425bf5 	ldp	x21, x22, [sp,#32]
    23ec:	a8c67bfd 	ldp	x29, x30, [sp],#96
    23f0:	d65f03c0 	ret

00000000000023f4 <TEE_BigIntMul>:
TEE_BigIntMul():
/home/xiang/rockpi4-android/optee_os/lib/libutee/tee_api_arith_mpi.c:432
    23f4:	a9ba7bfd 	stp	x29, x30, [sp,#-96]!
    23f8:	910003fd 	mov	x29, sp
    23fc:	a90153f3 	stp	x19, x20, [sp,#16]
    2400:	a9025bf5 	stp	x21, x22, [sp,#32]
    2404:	aa0203f6 	mov	x22, x2
    2408:	a90363f7 	stp	x23, x24, [sp,#48]
    240c:	aa0103f5 	mov	x21, x1
    2410:	f90023f9 	str	x25, [sp,#64]
    2414:	aa0003f7 	mov	x23, x0
/home/xiang/rockpi4-android/optee_os/lib/libutee/tee_api_arith_mpi.c:433
    2418:	aa0103e0 	mov	x0, x1
    241c:	97ffffb4 	bl	22ec <TEE_BigIntGetBitCount>
    2420:	2a0003f3 	mov	w19, w0
/home/xiang/rockpi4-android/optee_os/lib/libutee/tee_api_arith_mpi.c:434
    2424:	aa1603e0 	mov	x0, x22
    2428:	97ffffb1 	bl	22ec <TEE_BigIntGetBitCount>
    242c:	2a0003e0 	mov	w0, w0
/home/xiang/rockpi4-android/optee_os/lib/libutee/tee_api_arith_mpi.c:439
    2430:	f0000059 	adrp	x25, d000 <_DYNAMIC>
/home/xiang/rockpi4-android/optee_os/lib/libutee/tee_api_arith_mpi.c:435
    2434:	91007c00 	add	x0, x0, #0x1f
    2438:	d345fc00 	lsr	x0, x0, #5
    243c:	91007e73 	add	x19, x19, #0x1f
    2440:	8b531413 	add	x19, x0, x19, lsr #5
/home/xiang/rockpi4-android/optee_os/lib/libutee/tee_api_arith_mpi.c:439
    2444:	f940cf20 	ldr	x0, [x25,#408]
/home/xiang/rockpi4-android/optee_os/lib/libutee/tee_api_arith_mpi.c:435
    2448:	91001273 	add	x19, x19, #0x4
/home/xiang/rockpi4-android/optee_os/lib/libutee/tee_api_arith_mpi.c:436
    244c:	f9002bbf 	str	xzr, [x29,#80]
/home/xiang/rockpi4-android/optee_os/lib/libutee/tee_api_arith_mpi.c:439
    2450:	d37ef661 	lsl	x1, x19, #2
/home/xiang/rockpi4-android/optee_os/lib/libutee/tee_api_arith_mpi.c:436
    2454:	b9005bbf 	str	wzr, [x29,#88]
    2458:	aa1903f8 	mov	x24, x25
/home/xiang/rockpi4-android/optee_os/lib/libutee/tee_api_arith_mpi.c:439
    245c:	f9400000 	ldr	x0, [x0]
    2460:	9400219a 	bl	aac8 <mempool_alloc>
    2464:	aa0003f4 	mov	x20, x0
/home/xiang/rockpi4-android/optee_os/lib/libutee/tee_api_arith_mpi.c:440
    2468:	b5000060 	cbnz	x0, 2474 <TEE_BigIntMul+0x80>
/home/xiang/rockpi4-android/optee_os/lib/libutee/tee_api_arith_mpi.c:441
    246c:	129ffe60 	mov	w0, #0xffff000c            	// #-65524
    2470:	9400024a 	bl	2d98 <TEE_Panic>
/home/xiang/rockpi4-android/optee_os/lib/libutee/tee_api_arith_mpi.c:443
    2474:	2a1303e1 	mov	w1, w19
    2478:	aa1403e0 	mov	x0, x20
/home/xiang/rockpi4-android/optee_os/lib/libutee/tee_api_arith_mpi.c:444
    247c:	910143b3 	add	x19, x29, #0x50
/home/xiang/rockpi4-android/optee_os/lib/libutee/tee_api_arith_mpi.c:443
    2480:	97fffdf1 	bl	1c44 <TEE_BigIntInit>
/home/xiang/rockpi4-android/optee_os/lib/libutee/tee_api_arith_mpi.c:444
    2484:	aa1303e0 	mov	x0, x19
    2488:	52800061 	mov	w1, #0x3                   	// #3
    248c:	97fffdee 	bl	1c44 <TEE_BigIntInit>
/home/xiang/rockpi4-android/optee_os/lib/libutee/tee_api_arith_mpi.c:446
    2490:	f940a703 	ldr	x3, [x24,#328]
    2494:	aa1603e2 	mov	x2, x22
    2498:	aa1503e1 	mov	x1, x21
    249c:	aa1403e0 	mov	x0, x20
    24a0:	97fffc2d 	bl	1554 <bigint_binary>
/home/xiang/rockpi4-android/optee_os/lib/libutee/tee_api_arith_mpi.c:448
    24a4:	aa1303e2 	mov	x2, x19
    24a8:	aa1403e1 	mov	x1, x20
    24ac:	aa1703e0 	mov	x0, x23
    24b0:	97ffff9f 	bl	232c <TEE_BigIntAdd>
/home/xiang/rockpi4-android/optee_os/lib/libutee/tee_api_arith_mpi.c:450
    24b4:	f940cf18 	ldr	x24, [x24,#408]
    24b8:	aa1403e1 	mov	x1, x20
    24bc:	f9400300 	ldr	x0, [x24]
    24c0:	940021af 	bl	ab7c <mempool_free>
/home/xiang/rockpi4-android/optee_os/lib/libutee/tee_api_arith_mpi.c:451
    24c4:	f94023f9 	ldr	x25, [sp,#64]
    24c8:	a94153f3 	ldp	x19, x20, [sp,#16]
    24cc:	a9425bf5 	ldp	x21, x22, [sp,#32]
    24d0:	a94363f7 	ldp	x23, x24, [sp,#48]
    24d4:	a8c67bfd 	ldp	x29, x30, [sp],#96
    24d8:	d65f03c0 	ret

00000000000024dc <TEE_BigIntSquare>:
TEE_BigIntSquare():
/home/xiang/rockpi4-android/optee_os/lib/libutee/tee_api_arith_mpi.c:455
    24dc:	aa0103e2 	mov	x2, x1
    24e0:	17ffffc5 	b	23f4 <TEE_BigIntMul>

00000000000024e4 <TEE_BigIntDiv>:
TEE_BigIntDiv():
/home/xiang/rockpi4-android/optee_os/lib/libutee/tee_api_arith_mpi.c:460
    24e4:	a9b47bfd 	stp	x29, x30, [sp,#-192]!
    24e8:	910003fd 	mov	x29, sp
    24ec:	a9025bf5 	stp	x21, x22, [sp,#32]
/home/xiang/rockpi4-android/optee_os/lib/libutee/tee_api_arith_mpi.c:468
    24f0:	910183b6 	add	x22, x29, #0x60
/home/xiang/rockpi4-android/optee_os/lib/libutee/tee_api_arith_mpi.c:460
    24f4:	a90363f7 	stp	x23, x24, [sp,#48]
/home/xiang/rockpi4-android/optee_os/lib/libutee/tee_api_arith_mpi.c:469
    24f8:	9101e3b5 	add	x21, x29, #0x78
/home/xiang/rockpi4-android/optee_os/lib/libutee/tee_api_arith_mpi.c:460
    24fc:	a90153f3 	stp	x19, x20, [sp,#16]
    2500:	aa0003f8 	mov	x24, x0
    2504:	a9046bf9 	stp	x25, x26, [sp,#64]
    2508:	aa0103f7 	mov	x23, x1
    250c:	aa0203f9 	mov	x25, x2
/home/xiang/rockpi4-android/optee_os/lib/libutee/tee_api_arith_mpi.c:468
    2510:	aa0003e1 	mov	x1, x0
/home/xiang/rockpi4-android/optee_os/lib/libutee/tee_api_arith_mpi.c:460
    2514:	aa0303f3 	mov	x19, x3
/home/xiang/rockpi4-android/optee_os/lib/libutee/tee_api_arith_mpi.c:468
    2518:	aa1603e0 	mov	x0, x22
/home/xiang/rockpi4-android/optee_os/lib/libutee/tee_api_arith_mpi.c:460
    251c:	f9002bfb 	str	x27, [sp,#80]
/home/xiang/rockpi4-android/optee_os/lib/libutee/tee_api_arith_mpi.c:468
    2520:	97fffbcc 	bl	1450 <get_mpi>
/home/xiang/rockpi4-android/optee_os/lib/libutee/tee_api_arith_mpi.c:469
    2524:	aa1703e1 	mov	x1, x23
    2528:	aa1503e0 	mov	x0, x21
    252c:	97fffbc9 	bl	1450 <get_mpi>
    2530:	910243bb 	add	x27, x29, #0x90
/home/xiang/rockpi4-android/optee_os/lib/libutee/tee_api_arith_mpi.c:471
    2534:	eb19031f 	cmp	x24, x25
    2538:	540003c0 	b.eq	25b0 <TEE_BigIntDiv+0xcc>
/home/xiang/rockpi4-android/optee_os/lib/libutee/tee_api_arith_mpi.c:473
    253c:	eb1902ff 	cmp	x23, x25
    2540:	540003c0 	b.eq	25b8 <TEE_BigIntDiv+0xd4>
/home/xiang/rockpi4-android/optee_os/lib/libutee/tee_api_arith_mpi.c:465
    2544:	aa1b03f4 	mov	x20, x27
/home/xiang/rockpi4-android/optee_os/lib/libutee/tee_api_arith_mpi.c:476
    2548:	aa1903e1 	mov	x1, x25
    254c:	aa1b03e0 	mov	x0, x27
    2550:	97fffbc0 	bl	1450 <get_mpi>
/home/xiang/rockpi4-android/optee_os/lib/libutee/tee_api_arith_mpi.c:478
    2554:	eb13031f 	cmp	x24, x19
    2558:	9102a3ba 	add	x26, x29, #0xa8
    255c:	54000320 	b.eq	25c0 <TEE_BigIntDiv+0xdc>
/home/xiang/rockpi4-android/optee_os/lib/libutee/tee_api_arith_mpi.c:480
    2560:	eb1302ff 	cmp	x23, x19
    2564:	54000320 	b.eq	25c8 <TEE_BigIntDiv+0xe4>
/home/xiang/rockpi4-android/optee_os/lib/libutee/tee_api_arith_mpi.c:482
    2568:	eb13033f 	cmp	x25, x19
    256c:	54000320 	b.eq	25d0 <TEE_BigIntDiv+0xec>
/home/xiang/rockpi4-android/optee_os/lib/libutee/tee_api_arith_mpi.c:485
    2570:	aa1303e1 	mov	x1, x19
/home/xiang/rockpi4-android/optee_os/lib/libutee/tee_api_arith_mpi.c:466
    2574:	aa1a03f3 	mov	x19, x26
/home/xiang/rockpi4-android/optee_os/lib/libutee/tee_api_arith_mpi.c:485
    2578:	aa1a03e0 	mov	x0, x26
    257c:	97fffbb5 	bl	1450 <get_mpi>
/home/xiang/rockpi4-android/optee_os/lib/libutee/tee_api_arith_mpi.c:487
    2580:	aa1303e3 	mov	x3, x19
    2584:	aa1403e2 	mov	x2, x20
    2588:	aa1503e1 	mov	x1, x21
    258c:	aa1603e0 	mov	x0, x22
    2590:	94000e4c 	bl	5ec0 <mbedtls_mpi_div_mpi>
    2594:	34000220 	cbz	w0, 25d8 <TEE_BigIntDiv+0xf4>
/home/xiang/rockpi4-android/optee_os/lib/libutee/tee_api_arith_mpi.c:487 (discriminator 1)
    2598:	2a0003e2 	mov	w2, w0
    259c:	52803ce1 	mov	w1, #0x1e7                 	// #487
/home/xiang/rockpi4-android/optee_os/lib/libutee/tee_api_arith_mpi.c:490 (discriminator 1)
    25a0:	90000040 	adrp	x0, a000 <kprintf.constprop.0+0x540>
    25a4:	91328000 	add	x0, x0, #0xca0
    25a8:	91034000 	add	x0, x0, #0xd0
    25ac:	97fffb9d 	bl	1420 <mpi_panic>
/home/xiang/rockpi4-android/optee_os/lib/libutee/tee_api_arith_mpi.c:472
    25b0:	aa1603f4 	mov	x20, x22
    25b4:	17ffffe8 	b	2554 <TEE_BigIntDiv+0x70>
/home/xiang/rockpi4-android/optee_os/lib/libutee/tee_api_arith_mpi.c:474
    25b8:	aa1503f4 	mov	x20, x21
    25bc:	17ffffe6 	b	2554 <TEE_BigIntDiv+0x70>
/home/xiang/rockpi4-android/optee_os/lib/libutee/tee_api_arith_mpi.c:479
    25c0:	aa1603f3 	mov	x19, x22
    25c4:	17ffffef 	b	2580 <TEE_BigIntDiv+0x9c>
/home/xiang/rockpi4-android/optee_os/lib/libutee/tee_api_arith_mpi.c:481
    25c8:	aa1503f3 	mov	x19, x21
    25cc:	17ffffed 	b	2580 <TEE_BigIntDiv+0x9c>
/home/xiang/rockpi4-android/optee_os/lib/libutee/tee_api_arith_mpi.c:483
    25d0:	aa1403f3 	mov	x19, x20
    25d4:	17ffffeb 	b	2580 <TEE_BigIntDiv+0x9c>
/home/xiang/rockpi4-android/optee_os/lib/libutee/tee_api_arith_mpi.c:489
    25d8:	b4000118 	cbz	x24, 25f8 <TEE_BigIntDiv+0x114>
/home/xiang/rockpi4-android/optee_os/lib/libutee/tee_api_arith_mpi.c:490
    25dc:	aa1803e1 	mov	x1, x24
    25e0:	aa1603e0 	mov	x0, x22
    25e4:	97fffbc1 	bl	14e8 <copy_mpi_to_bigint>
    25e8:	34000080 	cbz	w0, 25f8 <TEE_BigIntDiv+0x114>
/home/xiang/rockpi4-android/optee_os/lib/libutee/tee_api_arith_mpi.c:490 (discriminator 1)
    25ec:	2a0003e2 	mov	w2, w0
    25f0:	52803d41 	mov	w1, #0x1ea                 	// #490
    25f4:	17ffffeb 	b	25a0 <TEE_BigIntDiv+0xbc>
/home/xiang/rockpi4-android/optee_os/lib/libutee/tee_api_arith_mpi.c:491
    25f8:	b4000117 	cbz	x23, 2618 <TEE_BigIntDiv+0x134>
/home/xiang/rockpi4-android/optee_os/lib/libutee/tee_api_arith_mpi.c:492
    25fc:	aa1703e1 	mov	x1, x23
    2600:	aa1503e0 	mov	x0, x21
    2604:	97fffbb9 	bl	14e8 <copy_mpi_to_bigint>
    2608:	34000080 	cbz	w0, 2618 <TEE_BigIntDiv+0x134>
/home/xiang/rockpi4-android/optee_os/lib/libutee/tee_api_arith_mpi.c:492 (discriminator 1)
    260c:	2a0003e2 	mov	w2, w0
    2610:	52803d81 	mov	w1, #0x1ec                 	// #492
    2614:	17ffffe3 	b	25a0 <TEE_BigIntDiv+0xbc>
/home/xiang/rockpi4-android/optee_os/lib/libutee/tee_api_arith_mpi.c:493
    2618:	aa1603e0 	mov	x0, x22
    261c:	94000901 	bl	4a20 <mbedtls_mpi_free>
/home/xiang/rockpi4-android/optee_os/lib/libutee/tee_api_arith_mpi.c:494
    2620:	aa1503e0 	mov	x0, x21
    2624:	940008ff 	bl	4a20 <mbedtls_mpi_free>
/home/xiang/rockpi4-android/optee_os/lib/libutee/tee_api_arith_mpi.c:495
    2628:	eb1b029f 	cmp	x20, x27
    262c:	54000061 	b.ne	2638 <TEE_BigIntDiv+0x154>
/home/xiang/rockpi4-android/optee_os/lib/libutee/tee_api_arith_mpi.c:496
    2630:	aa1403e0 	mov	x0, x20
    2634:	940008fb 	bl	4a20 <mbedtls_mpi_free>
/home/xiang/rockpi4-android/optee_os/lib/libutee/tee_api_arith_mpi.c:497
    2638:	eb1a027f 	cmp	x19, x26
    263c:	54000061 	b.ne	2648 <TEE_BigIntDiv+0x164>
/home/xiang/rockpi4-android/optee_os/lib/libutee/tee_api_arith_mpi.c:498
    2640:	aa1303e0 	mov	x0, x19
    2644:	940008f7 	bl	4a20 <mbedtls_mpi_free>
/home/xiang/rockpi4-android/optee_os/lib/libutee/tee_api_arith_mpi.c:499
    2648:	a94153f3 	ldp	x19, x20, [sp,#16]
    264c:	a9425bf5 	ldp	x21, x22, [sp,#32]
    2650:	a94363f7 	ldp	x23, x24, [sp,#48]
    2654:	a9446bf9 	ldp	x25, x26, [sp,#64]
    2658:	f9402bfb 	ldr	x27, [sp,#80]
    265c:	a8cc7bfd 	ldp	x29, x30, [sp],#192
    2660:	d65f03c0 	ret

0000000000002664 <TEE_BigIntMod>:
TEE_BigIntMod():
/home/xiang/rockpi4-android/optee_os/lib/libutee/tee_api_arith_mpi.c:502
    2664:	a9bd7bfd 	stp	x29, x30, [sp,#-48]!
    2668:	910003fd 	mov	x29, sp
    266c:	a90153f3 	stp	x19, x20, [sp,#16]
    2670:	aa0003f4 	mov	x20, x0
    2674:	f90013f5 	str	x21, [sp,#32]
    2678:	aa0203f3 	mov	x19, x2
    267c:	aa0103f5 	mov	x21, x1
/home/xiang/rockpi4-android/optee_os/lib/libutee/tee_api_arith_mpi.c:503
    2680:	aa0203e0 	mov	x0, x2
    2684:	52800041 	mov	w1, #0x2                   	// #2
    2688:	97fffe32 	bl	1f50 <TEE_BigIntCmpS32>
    268c:	36f80100 	tbz	w0, #31, 26ac <TEE_BigIntMod+0x48>
/home/xiang/rockpi4-android/optee_os/lib/libutee/tee_api_arith_mpi.c:504
    2690:	90000040 	adrp	x0, a000 <kprintf.constprop.0+0x540>
    2694:	91328000 	add	x0, x0, #0xca0
    2698:	b0000042 	adrp	x2, b000 <small_prime+0x140>
    269c:	52803f01 	mov	w1, #0x1f8                 	// #504
    26a0:	9110fc42 	add	x2, x2, #0x43f
    26a4:	91038000 	add	x0, x0, #0xe0
    26a8:	940001a9 	bl	2d4c <api_panic>
/home/xiang/rockpi4-android/optee_os/lib/libutee/tee_api_arith_mpi.c:506
    26ac:	f0000043 	adrp	x3, d000 <_DYNAMIC>
    26b0:	aa1303e2 	mov	x2, x19
    26b4:	aa1503e1 	mov	x1, x21
    26b8:	aa1403e0 	mov	x0, x20
/home/xiang/rockpi4-android/optee_os/lib/libutee/tee_api_arith_mpi.c:507
    26bc:	f94013f5 	ldr	x21, [sp,#32]
    26c0:	a94153f3 	ldp	x19, x20, [sp,#16]
/home/xiang/rockpi4-android/optee_os/lib/libutee/tee_api_arith_mpi.c:506
    26c4:	f940bc63 	ldr	x3, [x3,#376]
/home/xiang/rockpi4-android/optee_os/lib/libutee/tee_api_arith_mpi.c:507
    26c8:	a8c37bfd 	ldp	x29, x30, [sp],#48
/home/xiang/rockpi4-android/optee_os/lib/libutee/tee_api_arith_mpi.c:506
    26cc:	17fffba2 	b	1554 <bigint_binary>

00000000000026d0 <TEE_BigIntAddMod>:
TEE_BigIntAddMod():
/home/xiang/rockpi4-android/optee_os/lib/libutee/tee_api_arith_mpi.c:512
    26d0:	f0000044 	adrp	x4, d000 <_DYNAMIC>
    26d4:	f940a884 	ldr	x4, [x4,#336]
    26d8:	17fffe30 	b	1f98 <bigint_binary_mod>

00000000000026dc <TEE_BigIntSubMod>:
TEE_BigIntSubMod():
/home/xiang/rockpi4-android/optee_os/lib/libutee/tee_api_arith_mpi.c:518
    26dc:	f0000044 	adrp	x4, d000 <_DYNAMIC>
    26e0:	f940b084 	ldr	x4, [x4,#352]
    26e4:	17fffe2d 	b	1f98 <bigint_binary_mod>

00000000000026e8 <TEE_BigIntMulMod>:
TEE_BigIntMulMod():
/home/xiang/rockpi4-android/optee_os/lib/libutee/tee_api_arith_mpi.c:524
    26e8:	f0000044 	adrp	x4, d000 <_DYNAMIC>
    26ec:	f940a484 	ldr	x4, [x4,#328]
    26f0:	17fffe2a 	b	1f98 <bigint_binary_mod>

00000000000026f4 <TEE_BigIntSquareMod>:
TEE_BigIntSquareMod():
/home/xiang/rockpi4-android/optee_os/lib/libutee/tee_api_arith_mpi.c:530
    26f4:	aa0203e3 	mov	x3, x2
    26f8:	aa0103e2 	mov	x2, x1
    26fc:	17fffffb 	b	26e8 <TEE_BigIntMulMod>

0000000000002700 <TEE_BigIntInvMod>:
TEE_BigIntInvMod():
/home/xiang/rockpi4-android/optee_os/lib/libutee/tee_api_arith_mpi.c:535
    2700:	a9b77bfd 	stp	x29, x30, [sp,#-144]!
    2704:	910003fd 	mov	x29, sp
    2708:	a90153f3 	stp	x19, x20, [sp,#16]
    270c:	aa0103f4 	mov	x20, x1
    2710:	a9025bf5 	stp	x21, x22, [sp,#32]
/home/xiang/rockpi4-android/optee_os/lib/libutee/tee_api_arith_mpi.c:541
    2714:	52800041 	mov	w1, #0x2                   	// #2
/home/xiang/rockpi4-android/optee_os/lib/libutee/tee_api_arith_mpi.c:535
    2718:	f9001bf7 	str	x23, [sp,#48]
    271c:	aa0203f5 	mov	x21, x2
    2720:	aa0003f7 	mov	x23, x0
/home/xiang/rockpi4-android/optee_os/lib/libutee/tee_api_arith_mpi.c:541
    2724:	aa0203e0 	mov	x0, x2
    2728:	97fffe0a 	bl	1f50 <TEE_BigIntCmpS32>
    272c:	36f80100 	tbz	w0, #31, 274c <TEE_BigIntInvMod+0x4c>
/home/xiang/rockpi4-android/optee_os/lib/libutee/tee_api_arith_mpi.c:542
    2730:	90000040 	adrp	x0, a000 <kprintf.constprop.0+0x540>
    2734:	91328000 	add	x0, x0, #0xca0
    2738:	b0000042 	adrp	x2, b000 <small_prime+0x140>
    273c:	528043c1 	mov	w1, #0x21e                 	// #542
    2740:	91115042 	add	x2, x2, #0x454
    2744:	9103c000 	add	x0, x0, #0xf0
    2748:	94000181 	bl	2d4c <api_panic>
/home/xiang/rockpi4-android/optee_os/lib/libutee/tee_api_arith_mpi.c:541 (discriminator 1)
    274c:	52800001 	mov	w1, #0x0                   	// #0
    2750:	aa1403e0 	mov	x0, x20
    2754:	97fffdff 	bl	1f50 <TEE_BigIntCmpS32>
    2758:	34fffec0 	cbz	w0, 2730 <TEE_BigIntInvMod+0x30>
/home/xiang/rockpi4-android/optee_os/lib/libutee/tee_api_arith_mpi.c:544
    275c:	910123b3 	add	x19, x29, #0x48
    2760:	aa1703e1 	mov	x1, x23
    2764:	aa1303e0 	mov	x0, x19
/home/xiang/rockpi4-android/optee_os/lib/libutee/tee_api_arith_mpi.c:545
    2768:	9101e3b6 	add	x22, x29, #0x78
/home/xiang/rockpi4-android/optee_os/lib/libutee/tee_api_arith_mpi.c:544
    276c:	97fffb39 	bl	1450 <get_mpi>
/home/xiang/rockpi4-android/optee_os/lib/libutee/tee_api_arith_mpi.c:545
    2770:	aa1503e1 	mov	x1, x21
    2774:	aa1603e0 	mov	x0, x22
    2778:	97fffb36 	bl	1450 <get_mpi>
    277c:	910183b5 	add	x21, x29, #0x60
/home/xiang/rockpi4-android/optee_os/lib/libutee/tee_api_arith_mpi.c:547
    2780:	eb17029f 	cmp	x20, x23
    2784:	54000200 	b.eq	27c4 <TEE_BigIntInvMod+0xc4>
/home/xiang/rockpi4-android/optee_os/lib/libutee/tee_api_arith_mpi.c:550
    2788:	aa1403e1 	mov	x1, x20
/home/xiang/rockpi4-android/optee_os/lib/libutee/tee_api_arith_mpi.c:539
    278c:	aa1503f4 	mov	x20, x21
/home/xiang/rockpi4-android/optee_os/lib/libutee/tee_api_arith_mpi.c:550
    2790:	aa1503e0 	mov	x0, x21
    2794:	97fffb2f 	bl	1450 <get_mpi>
/home/xiang/rockpi4-android/optee_os/lib/libutee/tee_api_arith_mpi.c:552
    2798:	aa1603e2 	mov	x2, x22
    279c:	aa1403e1 	mov	x1, x20
    27a0:	aa1303e0 	mov	x0, x19
    27a4:	94001354 	bl	74f4 <mbedtls_mpi_inv_mod>
    27a8:	34000120 	cbz	w0, 27cc <TEE_BigIntInvMod+0xcc>
/home/xiang/rockpi4-android/optee_os/lib/libutee/tee_api_arith_mpi.c:552 (discriminator 1)
    27ac:	2a0003e2 	mov	w2, w0
    27b0:	52804501 	mov	w1, #0x228                 	// #552
/home/xiang/rockpi4-android/optee_os/lib/libutee/tee_api_arith_mpi.c:554 (discriminator 1)
    27b4:	90000040 	adrp	x0, a000 <kprintf.constprop.0+0x540>
    27b8:	91328000 	add	x0, x0, #0xca0
    27bc:	9103c000 	add	x0, x0, #0xf0
    27c0:	97fffb18 	bl	1420 <mpi_panic>
/home/xiang/rockpi4-android/optee_os/lib/libutee/tee_api_arith_mpi.c:548
    27c4:	aa1303f4 	mov	x20, x19
    27c8:	17fffff4 	b	2798 <TEE_BigIntInvMod+0x98>
/home/xiang/rockpi4-android/optee_os/lib/libutee/tee_api_arith_mpi.c:554
    27cc:	aa1703e1 	mov	x1, x23
    27d0:	aa1303e0 	mov	x0, x19
    27d4:	97fffb45 	bl	14e8 <copy_mpi_to_bigint>
    27d8:	34000080 	cbz	w0, 27e8 <TEE_BigIntInvMod+0xe8>
/home/xiang/rockpi4-android/optee_os/lib/libutee/tee_api_arith_mpi.c:554 (discriminator 1)
    27dc:	2a0003e2 	mov	w2, w0
    27e0:	52804541 	mov	w1, #0x22a                 	// #554
    27e4:	17fffff4 	b	27b4 <TEE_BigIntInvMod+0xb4>
/home/xiang/rockpi4-android/optee_os/lib/libutee/tee_api_arith_mpi.c:555
    27e8:	aa1303e0 	mov	x0, x19
    27ec:	9400088d 	bl	4a20 <mbedtls_mpi_free>
/home/xiang/rockpi4-android/optee_os/lib/libutee/tee_api_arith_mpi.c:556
    27f0:	aa1603e0 	mov	x0, x22
    27f4:	9400088b 	bl	4a20 <mbedtls_mpi_free>
/home/xiang/rockpi4-android/optee_os/lib/libutee/tee_api_arith_mpi.c:557
    27f8:	eb15029f 	cmp	x20, x21
    27fc:	54000061 	b.ne	2808 <TEE_BigIntInvMod+0x108>
/home/xiang/rockpi4-android/optee_os/lib/libutee/tee_api_arith_mpi.c:558
    2800:	aa1403e0 	mov	x0, x20
    2804:	94000887 	bl	4a20 <mbedtls_mpi_free>
/home/xiang/rockpi4-android/optee_os/lib/libutee/tee_api_arith_mpi.c:559
    2808:	a94153f3 	ldp	x19, x20, [sp,#16]
    280c:	a9425bf5 	ldp	x21, x22, [sp,#32]
    2810:	f9401bf7 	ldr	x23, [sp,#48]
    2814:	a8c97bfd 	ldp	x29, x30, [sp],#144
    2818:	d65f03c0 	ret

000000000000281c <TEE_BigIntRelativePrime>:
TEE_BigIntRelativePrime():
/home/xiang/rockpi4-android/optee_os/lib/libutee/tee_api_arith_mpi.c:562
    281c:	a9b77bfd 	stp	x29, x30, [sp,#-144]!
    2820:	910003fd 	mov	x29, sp
    2824:	a90153f3 	stp	x19, x20, [sp,#16]
/home/xiang/rockpi4-android/optee_os/lib/libutee/tee_api_arith_mpi.c:569
    2828:	910123b4 	add	x20, x29, #0x48
/home/xiang/rockpi4-android/optee_os/lib/libutee/tee_api_arith_mpi.c:562
    282c:	aa0003f3 	mov	x19, x0
    2830:	a9025bf5 	stp	x21, x22, [sp,#32]
    2834:	f9001bf7 	str	x23, [sp,#48]
    2838:	aa0103f5 	mov	x21, x1
/home/xiang/rockpi4-android/optee_os/lib/libutee/tee_api_arith_mpi.c:569
    283c:	aa0003e1 	mov	x1, x0
    2840:	aa1403e0 	mov	x0, x20
    2844:	97fffb03 	bl	1450 <get_mpi>
/home/xiang/rockpi4-android/optee_os/lib/libutee/tee_api_arith_mpi.c:571
    2848:	eb15027f 	cmp	x19, x21
    284c:	910183b3 	add	x19, x29, #0x60
    2850:	54000260 	b.eq	289c <TEE_BigIntRelativePrime+0x80>
/home/xiang/rockpi4-android/optee_os/lib/libutee/tee_api_arith_mpi.c:566
    2854:	aa1303f6 	mov	x22, x19
/home/xiang/rockpi4-android/optee_os/lib/libutee/tee_api_arith_mpi.c:574
    2858:	aa1503e1 	mov	x1, x21
    285c:	aa1303e0 	mov	x0, x19
    2860:	97fffafc 	bl	1450 <get_mpi>
get_mpi():
/home/xiang/rockpi4-android/optee_os/lib/libutee/tee_api_arith_mpi.c:101
    2864:	9101e3b5 	add	x21, x29, #0x78
    2868:	aa1503e0 	mov	x0, x21
    286c:	94000863 	bl	49f8 <mbedtls_mpi_init_mempool>
TEE_BigIntRelativePrime():
/home/xiang/rockpi4-android/optee_os/lib/libutee/tee_api_arith_mpi.c:578
    2870:	aa1303e2 	mov	x2, x19
    2874:	aa1403e1 	mov	x1, x20
    2878:	aa1503e0 	mov	x0, x21
    287c:	9400119e 	bl	6ef4 <mbedtls_mpi_gcd>
    2880:	34000120 	cbz	w0, 28a4 <TEE_BigIntRelativePrime+0x88>
/home/xiang/rockpi4-android/optee_os/lib/libutee/tee_api_arith_mpi.c:578 (discriminator 1)
    2884:	2a0003e2 	mov	w2, w0
    2888:	90000040 	adrp	x0, a000 <kprintf.constprop.0+0x540>
    288c:	91328000 	add	x0, x0, #0xca0
    2890:	52804841 	mov	w1, #0x242                 	// #578
    2894:	91042000 	add	x0, x0, #0x108
    2898:	97fffae2 	bl	1420 <mpi_panic>
/home/xiang/rockpi4-android/optee_os/lib/libutee/tee_api_arith_mpi.c:572
    289c:	aa1403f6 	mov	x22, x20
    28a0:	17fffff1 	b	2864 <TEE_BigIntRelativePrime+0x48>
/home/xiang/rockpi4-android/optee_os/lib/libutee/tee_api_arith_mpi.c:580
    28a4:	52800021 	mov	w1, #0x1                   	// #1
    28a8:	aa1503e0 	mov	x0, x21
    28ac:	94000b5f 	bl	5628 <mbedtls_mpi_cmp_int>
    28b0:	7100001f 	cmp	w0, #0x0
    28b4:	1a9f17f7 	cset	w23, eq
/home/xiang/rockpi4-android/optee_os/lib/libutee/tee_api_arith_mpi.c:582
    28b8:	aa1503e0 	mov	x0, x21
    28bc:	94000859 	bl	4a20 <mbedtls_mpi_free>
/home/xiang/rockpi4-android/optee_os/lib/libutee/tee_api_arith_mpi.c:583
    28c0:	aa1403e0 	mov	x0, x20
    28c4:	94000857 	bl	4a20 <mbedtls_mpi_free>
/home/xiang/rockpi4-android/optee_os/lib/libutee/tee_api_arith_mpi.c:584
    28c8:	eb1302df 	cmp	x22, x19
    28cc:	54000061 	b.ne	28d8 <TEE_BigIntRelativePrime+0xbc>
/home/xiang/rockpi4-android/optee_os/lib/libutee/tee_api_arith_mpi.c:585
    28d0:	aa1603e0 	mov	x0, x22
    28d4:	94000853 	bl	4a20 <mbedtls_mpi_free>
/home/xiang/rockpi4-android/optee_os/lib/libutee/tee_api_arith_mpi.c:588
    28d8:	2a1703e0 	mov	w0, w23
    28dc:	f9401bf7 	ldr	x23, [sp,#48]
    28e0:	a94153f3 	ldp	x19, x20, [sp,#16]
    28e4:	a9425bf5 	ldp	x21, x22, [sp,#32]
    28e8:	a8c97bfd 	ldp	x29, x30, [sp],#144
    28ec:	d65f03c0 	ret

00000000000028f0 <TEE_BigIntComputeExtendedGcd>:
TEE_BigIntComputeExtendedGcd():
/home/xiang/rockpi4-android/optee_os/lib/libutee/tee_api_arith_mpi.c:699
    28f0:	a9b17bfd 	stp	x29, x30, [sp,#-240]!
    28f4:	910003fd 	mov	x29, sp
    28f8:	a9025bf5 	stp	x21, x22, [sp,#32]
/home/xiang/rockpi4-android/optee_os/lib/libutee/tee_api_arith_mpi.c:705
    28fc:	9101e3b5 	add	x21, x29, #0x78
/home/xiang/rockpi4-android/optee_os/lib/libutee/tee_api_arith_mpi.c:699
    2900:	aa0303f6 	mov	x22, x3
    2904:	a90153f3 	stp	x19, x20, [sp,#16]
    2908:	a9046bf9 	stp	x25, x26, [sp,#64]
    290c:	aa0403f3 	mov	x19, x4
    2910:	a90363f7 	stp	x23, x24, [sp,#48]
    2914:	aa0203f9 	mov	x25, x2
    2918:	a90573fb 	stp	x27, x28, [sp,#80]
    291c:	aa0103fa 	mov	x26, x1
    2920:	aa0003fc 	mov	x28, x0
/home/xiang/rockpi4-android/optee_os/lib/libutee/tee_api_arith_mpi.c:705
    2924:	aa0003e1 	mov	x1, x0
/home/xiang/rockpi4-android/optee_os/lib/libutee/tee_api_arith_mpi.c:706
    2928:	910243b4 	add	x20, x29, #0x90
/home/xiang/rockpi4-android/optee_os/lib/libutee/tee_api_arith_mpi.c:705
    292c:	aa1503e0 	mov	x0, x21
    2930:	97fffac8 	bl	1450 <get_mpi>
    2934:	9102a3b8 	add	x24, x29, #0xa8
/home/xiang/rockpi4-android/optee_os/lib/libutee/tee_api_arith_mpi.c:706
    2938:	aa1603e1 	mov	x1, x22
    293c:	aa1403e0 	mov	x0, x20
    2940:	97fffac4 	bl	1450 <get_mpi>
/home/xiang/rockpi4-android/optee_os/lib/libutee/tee_api_arith_mpi.c:708
    2944:	eb1302df 	cmp	x22, x19
    2948:	54000260 	b.eq	2994 <TEE_BigIntComputeExtendedGcd+0xa4>
/home/xiang/rockpi4-android/optee_os/lib/libutee/tee_api_arith_mpi.c:711
    294c:	aa1303e1 	mov	x1, x19
/home/xiang/rockpi4-android/optee_os/lib/libutee/tee_api_arith_mpi.c:703
    2950:	aa1803f3 	mov	x19, x24
/home/xiang/rockpi4-android/optee_os/lib/libutee/tee_api_arith_mpi.c:711
    2954:	aa1803e0 	mov	x0, x24
    2958:	97fffabe 	bl	1450 <get_mpi>
/home/xiang/rockpi4-android/optee_os/lib/libutee/tee_api_arith_mpi.c:713
    295c:	f100035f 	cmp	x26, #0x0
    2960:	fa400b20 	ccmp	x25, #0x0, #0x0, eq
    2964:	540001c1 	b.ne	299c <TEE_BigIntComputeExtendedGcd+0xac>
/home/xiang/rockpi4-android/optee_os/lib/libutee/tee_api_arith_mpi.c:714
    2968:	aa1303e2 	mov	x2, x19
    296c:	aa1403e1 	mov	x1, x20
    2970:	aa1503e0 	mov	x0, x21
    2974:	94001160 	bl	6ef4 <mbedtls_mpi_gcd>
    2978:	34000ac0 	cbz	w0, 2ad0 <TEE_BigIntComputeExtendedGcd+0x1e0>
/home/xiang/rockpi4-android/optee_os/lib/libutee/tee_api_arith_mpi.c:714 (discriminator 1)
    297c:	2a0003e2 	mov	w2, w0
    2980:	52805941 	mov	w1, #0x2ca                 	// #714
/home/xiang/rockpi4-android/optee_os/lib/libutee/tee_api_arith_mpi.c:730 (discriminator 1)
    2984:	90000040 	adrp	x0, a000 <kprintf.constprop.0+0x540>
    2988:	91328000 	add	x0, x0, #0xca0
    298c:	91048000 	add	x0, x0, #0x120
    2990:	97fffaa4 	bl	1420 <mpi_panic>
/home/xiang/rockpi4-android/optee_os/lib/libutee/tee_api_arith_mpi.c:709
    2994:	aa1403f3 	mov	x19, x20
    2998:	17fffff1 	b	295c <TEE_BigIntComputeExtendedGcd+0x6c>
/home/xiang/rockpi4-android/optee_os/lib/libutee/tee_api_arith_mpi.c:719
    299c:	39c00260 	ldrsb	w0, [x19]
/home/xiang/rockpi4-android/optee_os/lib/libutee/tee_api_arith_mpi.c:725
    29a0:	910303b7 	add	x23, x29, #0xc0
/home/xiang/rockpi4-android/optee_os/lib/libutee/tee_api_arith_mpi.c:718
    29a4:	39c243bb 	ldrsb	w27, [x29,#144]
/home/xiang/rockpi4-android/optee_os/lib/libutee/tee_api_arith_mpi.c:725
    29a8:	aa1a03e1 	mov	x1, x26
/home/xiang/rockpi4-android/optee_os/lib/libutee/tee_api_arith_mpi.c:719
    29ac:	b9006fa0 	str	w0, [x29,#108]
/home/xiang/rockpi4-android/optee_os/lib/libutee/tee_api_arith_mpi.c:722
    29b0:	52800020 	mov	w0, #0x1                   	// #1
    29b4:	790123a0 	strh	w0, [x29,#144]
/home/xiang/rockpi4-android/optee_os/lib/libutee/tee_api_arith_mpi.c:726
    29b8:	910363b6 	add	x22, x29, #0xd8
/home/xiang/rockpi4-android/optee_os/lib/libutee/tee_api_arith_mpi.c:723
    29bc:	79000260 	strh	w0, [x19]
/home/xiang/rockpi4-android/optee_os/lib/libutee/tee_api_arith_mpi.c:725
    29c0:	aa1703e0 	mov	x0, x23
    29c4:	97fffaa3 	bl	1450 <get_mpi>
/home/xiang/rockpi4-android/optee_os/lib/libutee/tee_api_arith_mpi.c:726
    29c8:	aa1903e1 	mov	x1, x25
    29cc:	aa1603e0 	mov	x0, x22
    29d0:	97fffaa0 	bl	1450 <get_mpi>
/home/xiang/rockpi4-android/optee_os/lib/libutee/tee_api_arith_mpi.c:728
    29d4:	aa1303e1 	mov	x1, x19
    29d8:	aa1403e0 	mov	x0, x20
    29dc:	94000aab 	bl	5488 <mbedtls_mpi_cmp_abs>
/home/xiang/rockpi4-android/optee_os/lib/libutee/tee_api_arith_mpi.c:729
    29e0:	7100001f 	cmp	w0, #0x0
    29e4:	540002c1 	b.ne	2a3c <TEE_BigIntComputeExtendedGcd+0x14c>
/home/xiang/rockpi4-android/optee_os/lib/libutee/tee_api_arith_mpi.c:730
    29e8:	aa1403e1 	mov	x1, x20
    29ec:	aa1503e0 	mov	x0, x21
    29f0:	940008ca 	bl	4d18 <mbedtls_mpi_copy>
    29f4:	34000080 	cbz	w0, 2a04 <TEE_BigIntComputeExtendedGcd+0x114>
/home/xiang/rockpi4-android/optee_os/lib/libutee/tee_api_arith_mpi.c:730 (discriminator 1)
    29f8:	2a0003e2 	mov	w2, w0
    29fc:	52805b41 	mov	w1, #0x2da                 	// #730
    2a00:	17ffffe1 	b	2984 <TEE_BigIntComputeExtendedGcd+0x94>
/home/xiang/rockpi4-android/optee_os/lib/libutee/tee_api_arith_mpi.c:731
    2a04:	52800021 	mov	w1, #0x1                   	// #1
    2a08:	aa1703e0 	mov	x0, x23
    2a0c:	94000914 	bl	4e5c <mbedtls_mpi_lset>
    2a10:	34000080 	cbz	w0, 2a20 <TEE_BigIntComputeExtendedGcd+0x130>
/home/xiang/rockpi4-android/optee_os/lib/libutee/tee_api_arith_mpi.c:731 (discriminator 1)
    2a14:	2a0003e2 	mov	w2, w0
    2a18:	52805b61 	mov	w1, #0x2db                 	// #731
    2a1c:	17ffffda 	b	2984 <TEE_BigIntComputeExtendedGcd+0x94>
/home/xiang/rockpi4-android/optee_os/lib/libutee/tee_api_arith_mpi.c:732
    2a20:	52800001 	mov	w1, #0x0                   	// #0
    2a24:	aa1603e0 	mov	x0, x22
    2a28:	9400090d 	bl	4e5c <mbedtls_mpi_lset>
    2a2c:	34000160 	cbz	w0, 2a58 <TEE_BigIntComputeExtendedGcd+0x168>
/home/xiang/rockpi4-android/optee_os/lib/libutee/tee_api_arith_mpi.c:732 (discriminator 1)
    2a30:	2a0003e2 	mov	w2, w0
    2a34:	52805b81 	mov	w1, #0x2dc                 	// #732
    2a38:	17ffffd3 	b	2984 <TEE_BigIntComputeExtendedGcd+0x94>
/home/xiang/rockpi4-android/optee_os/lib/libutee/tee_api_arith_mpi.c:733
    2a3c:	540002ad 	b.le	2a90 <TEE_BigIntComputeExtendedGcd+0x1a0>
/home/xiang/rockpi4-android/optee_os/lib/libutee/tee_api_arith_mpi.c:734
    2a40:	aa1303e4 	mov	x4, x19
    2a44:	aa1403e3 	mov	x3, x20
    2a48:	aa1603e2 	mov	x2, x22
    2a4c:	aa1703e1 	mov	x1, x23
/home/xiang/rockpi4-android/optee_os/lib/libutee/tee_api_arith_mpi.c:736
    2a50:	aa1503e0 	mov	x0, x21
    2a54:	97fffb18 	bl	16b4 <mpi_egcd>
/home/xiang/rockpi4-android/optee_os/lib/libutee/tee_api_arith_mpi.c:739
    2a58:	794183a0 	ldrh	w0, [x29,#192]
/home/xiang/rockpi4-android/optee_os/lib/libutee/tee_api_arith_mpi.c:740
    2a5c:	b9406fa1 	ldr	w1, [x29,#108]
/home/xiang/rockpi4-android/optee_os/lib/libutee/tee_api_arith_mpi.c:739
    2a60:	1b007f7b 	mul	w27, w27, w0
/home/xiang/rockpi4-android/optee_os/lib/libutee/tee_api_arith_mpi.c:740
    2a64:	7941b3a0 	ldrh	w0, [x29,#216]
/home/xiang/rockpi4-android/optee_os/lib/libutee/tee_api_arith_mpi.c:739
    2a68:	790183bb 	strh	w27, [x29,#192]
/home/xiang/rockpi4-android/optee_os/lib/libutee/tee_api_arith_mpi.c:740
    2a6c:	1b007c20 	mul	w0, w1, w0
/home/xiang/rockpi4-android/optee_os/lib/libutee/tee_api_arith_mpi.c:742
    2a70:	aa1a03e1 	mov	x1, x26
/home/xiang/rockpi4-android/optee_os/lib/libutee/tee_api_arith_mpi.c:740
    2a74:	7901b3a0 	strh	w0, [x29,#216]
/home/xiang/rockpi4-android/optee_os/lib/libutee/tee_api_arith_mpi.c:742
    2a78:	aa1703e0 	mov	x0, x23
    2a7c:	97fffa9b 	bl	14e8 <copy_mpi_to_bigint>
    2a80:	34000120 	cbz	w0, 2aa4 <TEE_BigIntComputeExtendedGcd+0x1b4>
/home/xiang/rockpi4-android/optee_os/lib/libutee/tee_api_arith_mpi.c:742 (discriminator 1)
    2a84:	2a0003e2 	mov	w2, w0
    2a88:	52805cc1 	mov	w1, #0x2e6                 	// #742
    2a8c:	17ffffbe 	b	2984 <TEE_BigIntComputeExtendedGcd+0x94>
/home/xiang/rockpi4-android/optee_os/lib/libutee/tee_api_arith_mpi.c:736
    2a90:	aa1403e4 	mov	x4, x20
    2a94:	aa1303e3 	mov	x3, x19
    2a98:	aa1703e2 	mov	x2, x23
    2a9c:	aa1603e1 	mov	x1, x22
    2aa0:	17ffffec 	b	2a50 <TEE_BigIntComputeExtendedGcd+0x160>
/home/xiang/rockpi4-android/optee_os/lib/libutee/tee_api_arith_mpi.c:743
    2aa4:	aa1903e1 	mov	x1, x25
    2aa8:	aa1603e0 	mov	x0, x22
    2aac:	97fffa8f 	bl	14e8 <copy_mpi_to_bigint>
    2ab0:	34000080 	cbz	w0, 2ac0 <TEE_BigIntComputeExtendedGcd+0x1d0>
/home/xiang/rockpi4-android/optee_os/lib/libutee/tee_api_arith_mpi.c:743 (discriminator 1)
    2ab4:	2a0003e2 	mov	w2, w0
    2ab8:	52805ce1 	mov	w1, #0x2e7                 	// #743
    2abc:	17ffffb2 	b	2984 <TEE_BigIntComputeExtendedGcd+0x94>
/home/xiang/rockpi4-android/optee_os/lib/libutee/tee_api_arith_mpi.c:744
    2ac0:	aa1703e0 	mov	x0, x23
    2ac4:	940007d7 	bl	4a20 <mbedtls_mpi_free>
/home/xiang/rockpi4-android/optee_os/lib/libutee/tee_api_arith_mpi.c:745
    2ac8:	aa1603e0 	mov	x0, x22
    2acc:	940007d5 	bl	4a20 <mbedtls_mpi_free>
/home/xiang/rockpi4-android/optee_os/lib/libutee/tee_api_arith_mpi.c:748
    2ad0:	aa1c03e1 	mov	x1, x28
    2ad4:	aa1503e0 	mov	x0, x21
    2ad8:	97fffa84 	bl	14e8 <copy_mpi_to_bigint>
    2adc:	34000080 	cbz	w0, 2aec <TEE_BigIntComputeExtendedGcd+0x1fc>
/home/xiang/rockpi4-android/optee_os/lib/libutee/tee_api_arith_mpi.c:748 (discriminator 1)
    2ae0:	2a0003e2 	mov	w2, w0
    2ae4:	52805d81 	mov	w1, #0x2ec                 	// #748
    2ae8:	17ffffa7 	b	2984 <TEE_BigIntComputeExtendedGcd+0x94>
/home/xiang/rockpi4-android/optee_os/lib/libutee/tee_api_arith_mpi.c:749
    2aec:	aa1503e0 	mov	x0, x21
    2af0:	940007cc 	bl	4a20 <mbedtls_mpi_free>
/home/xiang/rockpi4-android/optee_os/lib/libutee/tee_api_arith_mpi.c:750
    2af4:	aa1403e0 	mov	x0, x20
    2af8:	940007ca 	bl	4a20 <mbedtls_mpi_free>
/home/xiang/rockpi4-android/optee_os/lib/libutee/tee_api_arith_mpi.c:751
    2afc:	eb18027f 	cmp	x19, x24
    2b00:	54000061 	b.ne	2b0c <TEE_BigIntComputeExtendedGcd+0x21c>
/home/xiang/rockpi4-android/optee_os/lib/libutee/tee_api_arith_mpi.c:752
    2b04:	aa1303e0 	mov	x0, x19
    2b08:	940007c6 	bl	4a20 <mbedtls_mpi_free>
/home/xiang/rockpi4-android/optee_os/lib/libutee/tee_api_arith_mpi.c:753
    2b0c:	a94153f3 	ldp	x19, x20, [sp,#16]
    2b10:	a9425bf5 	ldp	x21, x22, [sp,#32]
    2b14:	a94363f7 	ldp	x23, x24, [sp,#48]
    2b18:	a9446bf9 	ldp	x25, x26, [sp,#64]
    2b1c:	a94573fb 	ldp	x27, x28, [sp,#80]
    2b20:	a8cf7bfd 	ldp	x29, x30, [sp],#240
    2b24:	d65f03c0 	ret

0000000000002b28 <TEE_BigIntIsProbablePrime>:
TEE_BigIntIsProbablePrime():
/home/xiang/rockpi4-android/optee_os/lib/libutee/tee_api_arith_mpi.c:764
    2b28:	a9bc7bfd 	stp	x29, x30, [sp,#-64]!
/home/xiang/rockpi4-android/optee_os/lib/libutee/tee_api_arith_mpi.c:768
    2b2c:	aa0003e1 	mov	x1, x0
/home/xiang/rockpi4-android/optee_os/lib/libutee/tee_api_arith_mpi.c:764
    2b30:	910003fd 	mov	x29, sp
    2b34:	a90153f3 	stp	x19, x20, [sp,#16]
/home/xiang/rockpi4-android/optee_os/lib/libutee/tee_api_arith_mpi.c:768
    2b38:	9100a3b3 	add	x19, x29, #0x28
    2b3c:	aa1303e0 	mov	x0, x19
    2b40:	97fffa44 	bl	1450 <get_mpi>
/home/xiang/rockpi4-android/optee_os/lib/libutee/tee_api_arith_mpi.c:770
    2b44:	f0ffffe1 	adrp	x1, 1000 <TEE_OpenTASession+0x44>
    2b48:	911a3021 	add	x1, x1, #0x68c
    2b4c:	d2800002 	mov	x2, #0x0                   	// #0
    2b50:	aa1303e0 	mov	x0, x19
    2b54:	9400139a 	bl	79bc <mbedtls_mpi_is_prime>
    2b58:	2a0003f4 	mov	w20, w0
/home/xiang/rockpi4-android/optee_os/lib/libutee/tee_api_arith_mpi.c:772
    2b5c:	aa1303e0 	mov	x0, x19
    2b60:	940007b0 	bl	4a20 <mbedtls_mpi_free>
/home/xiang/rockpi4-android/optee_os/lib/libutee/tee_api_arith_mpi.c:774
    2b64:	7100029f 	cmp	w20, #0x0
/home/xiang/rockpi4-android/optee_os/lib/libutee/tee_api_arith_mpi.c:778
    2b68:	1a9f17e0 	cset	w0, eq
    2b6c:	a94153f3 	ldp	x19, x20, [sp,#16]
    2b70:	a8c47bfd 	ldp	x29, x30, [sp],#64
    2b74:	d65f03c0 	ret

0000000000002b78 <TEE_BigIntInitFMM>:
TEE_BigIntInitFMM():
/home/xiang/rockpi4-android/optee_os/lib/libutee/tee_api_arith_mpi.c:790
    2b78:	17fffc33 	b	1c44 <TEE_BigIntInit>

0000000000002b7c <TEE_BigIntInitFMMContext>:
TEE_BigIntInitFMMContext():
/home/xiang/rockpi4-android/optee_os/lib/libutee/tee_api_arith_mpi.c:796
    2b7c:	d65f03c0 	ret

0000000000002b80 <TEE_BigIntFMMSizeInU32>:
TEE_BigIntFMMSizeInU32():
/home/xiang/rockpi4-android/optee_os/lib/libutee/tee_api_arith_mpi.c:801
    2b80:	11007c00 	add	w0, w0, #0x1f
    2b84:	53057c00 	lsr	w0, w0, #5
/home/xiang/rockpi4-android/optee_os/lib/libutee/tee_api_arith_mpi.c:802
    2b88:	11000800 	add	w0, w0, #0x2
    2b8c:	d65f03c0 	ret

0000000000002b90 <TEE_BigIntFMMContextSizeInU32>:
TEE_BigIntFMMContextSizeInU32():
/home/xiang/rockpi4-android/optee_os/lib/libutee/tee_api_arith_mpi.c:808
    2b90:	52800020 	mov	w0, #0x1                   	// #1
    2b94:	d65f03c0 	ret

0000000000002b98 <TEE_BigIntConvertToFMM>:
TEE_BigIntConvertToFMM():
/home/xiang/rockpi4-android/optee_os/lib/libutee/tee_api_arith_mpi.c:814
    2b98:	17fffeb3 	b	2664 <TEE_BigIntMod>

0000000000002b9c <TEE_BigIntConvertFromFMM>:
TEE_BigIntConvertFromFMM():
/home/xiang/rockpi4-android/optee_os/lib/libutee/tee_api_arith_mpi.c:820
    2b9c:	a9ba7bfd 	stp	x29, x30, [sp,#-96]!
    2ba0:	910003fd 	mov	x29, sp
    2ba4:	a90153f3 	stp	x19, x20, [sp,#16]
/home/xiang/rockpi4-android/optee_os/lib/libutee/tee_api_arith_mpi.c:824
    2ba8:	9100c3b3 	add	x19, x29, #0x30
/home/xiang/rockpi4-android/optee_os/lib/libutee/tee_api_arith_mpi.c:820
    2bac:	a9025bf5 	stp	x21, x22, [sp,#32]
/home/xiang/rockpi4-android/optee_os/lib/libutee/tee_api_arith_mpi.c:825
    2bb0:	910123b4 	add	x20, x29, #0x48
/home/xiang/rockpi4-android/optee_os/lib/libutee/tee_api_arith_mpi.c:820
    2bb4:	aa0103f6 	mov	x22, x1
    2bb8:	aa0003f5 	mov	x21, x0
/home/xiang/rockpi4-android/optee_os/lib/libutee/tee_api_arith_mpi.c:824
    2bbc:	aa0003e1 	mov	x1, x0
    2bc0:	aa1303e0 	mov	x0, x19
    2bc4:	97fffa23 	bl	1450 <get_mpi>
/home/xiang/rockpi4-android/optee_os/lib/libutee/tee_api_arith_mpi.c:825
    2bc8:	aa1603e1 	mov	x1, x22
    2bcc:	aa1403e0 	mov	x0, x20
    2bd0:	97fffa20 	bl	1450 <get_mpi>
/home/xiang/rockpi4-android/optee_os/lib/libutee/tee_api_arith_mpi.c:827
    2bd4:	aa1403e1 	mov	x1, x20
    2bd8:	aa1303e0 	mov	x0, x19
    2bdc:	9400084f 	bl	4d18 <mbedtls_mpi_copy>
    2be0:	340000e0 	cbz	w0, 2bfc <TEE_BigIntConvertFromFMM+0x60>
/home/xiang/rockpi4-android/optee_os/lib/libutee/tee_api_arith_mpi.c:827 (discriminator 1)
    2be4:	2a0003e2 	mov	w2, w0
    2be8:	52806761 	mov	w1, #0x33b                 	// #827
/home/xiang/rockpi4-android/optee_os/lib/libutee/tee_api_arith_mpi.c:829 (discriminator 1)
    2bec:	90000040 	adrp	x0, a000 <kprintf.constprop.0+0x540>
    2bf0:	91328000 	add	x0, x0, #0xca0
    2bf4:	91050000 	add	x0, x0, #0x140
    2bf8:	97fffa0a 	bl	1420 <mpi_panic>
/home/xiang/rockpi4-android/optee_os/lib/libutee/tee_api_arith_mpi.c:829
    2bfc:	aa1503e1 	mov	x1, x21
    2c00:	aa1303e0 	mov	x0, x19
    2c04:	97fffa39 	bl	14e8 <copy_mpi_to_bigint>
    2c08:	34000080 	cbz	w0, 2c18 <TEE_BigIntConvertFromFMM+0x7c>
/home/xiang/rockpi4-android/optee_os/lib/libutee/tee_api_arith_mpi.c:829 (discriminator 1)
    2c0c:	2a0003e2 	mov	w2, w0
    2c10:	528067a1 	mov	w1, #0x33d                 	// #829
    2c14:	17fffff6 	b	2bec <TEE_BigIntConvertFromFMM+0x50>
/home/xiang/rockpi4-android/optee_os/lib/libutee/tee_api_arith_mpi.c:830
    2c18:	aa1303e0 	mov	x0, x19
    2c1c:	94000781 	bl	4a20 <mbedtls_mpi_free>
/home/xiang/rockpi4-android/optee_os/lib/libutee/tee_api_arith_mpi.c:831
    2c20:	aa1403e0 	mov	x0, x20
    2c24:	9400077f 	bl	4a20 <mbedtls_mpi_free>
/home/xiang/rockpi4-android/optee_os/lib/libutee/tee_api_arith_mpi.c:832
    2c28:	a94153f3 	ldp	x19, x20, [sp,#16]
    2c2c:	a9425bf5 	ldp	x21, x22, [sp,#32]
    2c30:	a8c67bfd 	ldp	x29, x30, [sp],#96
    2c34:	d65f03c0 	ret

0000000000002c38 <TEE_BigIntComputeFMM>:
TEE_BigIntComputeFMM():
/home/xiang/rockpi4-android/optee_os/lib/libutee/tee_api_arith_mpi.c:837
    2c38:	a9b47bfd 	stp	x29, x30, [sp,#-192]!
    2c3c:	910003fd 	mov	x29, sp
    2c40:	a90153f3 	stp	x19, x20, [sp,#16]
/home/xiang/rockpi4-android/optee_os/lib/libutee/tee_api_arith_mpi.c:844
    2c44:	910123b3 	add	x19, x29, #0x48
/home/xiang/rockpi4-android/optee_os/lib/libutee/tee_api_arith_mpi.c:837
    2c48:	aa0303f4 	mov	x20, x3
    2c4c:	a9025bf5 	stp	x21, x22, [sp,#32]
    2c50:	a90363f7 	stp	x23, x24, [sp,#48]
    2c54:	aa0103f6 	mov	x22, x1
    2c58:	aa0203f7 	mov	x23, x2
/home/xiang/rockpi4-android/optee_os/lib/libutee/tee_api_arith_mpi.c:844
    2c5c:	aa0003e1 	mov	x1, x0
/home/xiang/rockpi4-android/optee_os/lib/libutee/tee_api_arith_mpi.c:845
    2c60:	910183b5 	add	x21, x29, #0x60
/home/xiang/rockpi4-android/optee_os/lib/libutee/tee_api_arith_mpi.c:837
    2c64:	aa0003f8 	mov	x24, x0
/home/xiang/rockpi4-android/optee_os/lib/libutee/tee_api_arith_mpi.c:844
    2c68:	aa1303e0 	mov	x0, x19
    2c6c:	97fff9f9 	bl	1450 <get_mpi>
/home/xiang/rockpi4-android/optee_os/lib/libutee/tee_api_arith_mpi.c:845
    2c70:	aa1603e1 	mov	x1, x22
    2c74:	aa1503e0 	mov	x0, x21
/home/xiang/rockpi4-android/optee_os/lib/libutee/tee_api_arith_mpi.c:846
    2c78:	9101e3b6 	add	x22, x29, #0x78
/home/xiang/rockpi4-android/optee_os/lib/libutee/tee_api_arith_mpi.c:845
    2c7c:	97fff9f5 	bl	1450 <get_mpi>
/home/xiang/rockpi4-android/optee_os/lib/libutee/tee_api_arith_mpi.c:846
    2c80:	aa1703e1 	mov	x1, x23
    2c84:	aa1603e0 	mov	x0, x22
    2c88:	97fff9f2 	bl	1450 <get_mpi>
/home/xiang/rockpi4-android/optee_os/lib/libutee/tee_api_arith_mpi.c:847
    2c8c:	910243b7 	add	x23, x29, #0x90
    2c90:	aa1403e1 	mov	x1, x20
    2c94:	aa1703e0 	mov	x0, x23
get_mpi():
/home/xiang/rockpi4-android/optee_os/lib/libutee/tee_api_arith_mpi.c:101
    2c98:	9102a3b4 	add	x20, x29, #0xa8
TEE_BigIntComputeFMM():
/home/xiang/rockpi4-android/optee_os/lib/libutee/tee_api_arith_mpi.c:847
    2c9c:	97fff9ed 	bl	1450 <get_mpi>
get_mpi():
/home/xiang/rockpi4-android/optee_os/lib/libutee/tee_api_arith_mpi.c:101
    2ca0:	aa1403e0 	mov	x0, x20
    2ca4:	94000755 	bl	49f8 <mbedtls_mpi_init_mempool>
TEE_BigIntComputeFMM():
/home/xiang/rockpi4-android/optee_os/lib/libutee/tee_api_arith_mpi.c:850
    2ca8:	aa1603e2 	mov	x2, x22
    2cac:	aa1503e1 	mov	x1, x21
    2cb0:	aa1403e0 	mov	x0, x20
    2cb4:	94000b7a 	bl	5a9c <mbedtls_mpi_mul_mpi>
    2cb8:	340000e0 	cbz	w0, 2cd4 <TEE_BigIntComputeFMM+0x9c>
/home/xiang/rockpi4-android/optee_os/lib/libutee/tee_api_arith_mpi.c:850 (discriminator 1)
    2cbc:	2a0003e2 	mov	w2, w0
    2cc0:	52806a41 	mov	w1, #0x352                 	// #850
/home/xiang/rockpi4-android/optee_os/lib/libutee/tee_api_arith_mpi.c:851 (discriminator 1)
    2cc4:	90000040 	adrp	x0, a000 <kprintf.constprop.0+0x540>
    2cc8:	91328000 	add	x0, x0, #0xca0
    2ccc:	91058000 	add	x0, x0, #0x160
    2cd0:	97fff9d4 	bl	1420 <mpi_panic>
/home/xiang/rockpi4-android/optee_os/lib/libutee/tee_api_arith_mpi.c:851
    2cd4:	aa1703e2 	mov	x2, x23
    2cd8:	aa1403e1 	mov	x1, x20
    2cdc:	aa1303e0 	mov	x0, x19
    2ce0:	94000dc9 	bl	6404 <mbedtls_mpi_mod_mpi>
    2ce4:	34000080 	cbz	w0, 2cf4 <TEE_BigIntComputeFMM+0xbc>
/home/xiang/rockpi4-android/optee_os/lib/libutee/tee_api_arith_mpi.c:851 (discriminator 1)
    2ce8:	2a0003e2 	mov	w2, w0
    2cec:	52806a61 	mov	w1, #0x353                 	// #851
    2cf0:	17fffff5 	b	2cc4 <TEE_BigIntComputeFMM+0x8c>
/home/xiang/rockpi4-android/optee_os/lib/libutee/tee_api_arith_mpi.c:853
    2cf4:	aa1403e0 	mov	x0, x20
    2cf8:	9400074a 	bl	4a20 <mbedtls_mpi_free>
/home/xiang/rockpi4-android/optee_os/lib/libutee/tee_api_arith_mpi.c:854
    2cfc:	aa1703e0 	mov	x0, x23
    2d00:	94000748 	bl	4a20 <mbedtls_mpi_free>
/home/xiang/rockpi4-android/optee_os/lib/libutee/tee_api_arith_mpi.c:855
    2d04:	aa1603e0 	mov	x0, x22
    2d08:	94000746 	bl	4a20 <mbedtls_mpi_free>
/home/xiang/rockpi4-android/optee_os/lib/libutee/tee_api_arith_mpi.c:856
    2d0c:	aa1503e0 	mov	x0, x21
    2d10:	94000744 	bl	4a20 <mbedtls_mpi_free>
/home/xiang/rockpi4-android/optee_os/lib/libutee/tee_api_arith_mpi.c:857
    2d14:	aa1803e1 	mov	x1, x24
    2d18:	aa1303e0 	mov	x0, x19
    2d1c:	97fff9f3 	bl	14e8 <copy_mpi_to_bigint>
    2d20:	34000080 	cbz	w0, 2d30 <TEE_BigIntComputeFMM+0xf8>
/home/xiang/rockpi4-android/optee_os/lib/libutee/tee_api_arith_mpi.c:857 (discriminator 1)
    2d24:	2a0003e2 	mov	w2, w0
    2d28:	52806b21 	mov	w1, #0x359                 	// #857
    2d2c:	17ffffe6 	b	2cc4 <TEE_BigIntComputeFMM+0x8c>
/home/xiang/rockpi4-android/optee_os/lib/libutee/tee_api_arith_mpi.c:858
    2d30:	aa1303e0 	mov	x0, x19
    2d34:	9400073b 	bl	4a20 <mbedtls_mpi_free>
/home/xiang/rockpi4-android/optee_os/lib/libutee/tee_api_arith_mpi.c:859
    2d38:	a94153f3 	ldp	x19, x20, [sp,#16]
    2d3c:	a9425bf5 	ldp	x21, x22, [sp,#32]
    2d40:	a94363f7 	ldp	x23, x24, [sp,#48]
    2d44:	a8cc7bfd 	ldp	x29, x30, [sp],#192
    2d48:	d65f03c0 	ret

0000000000002d4c <api_panic>:
api_panic():
/home/xiang/rockpi4-android/optee_os/lib/libutee/tee_api_arith_mpi.c:19
    2d4c:	a9bf7bfd 	stp	x29, x30, [sp,#-16]!
/home/xiang/rockpi4-android/optee_os/lib/libutee/tee_api_arith_mpi.c:20
    2d50:	aa0203e3 	mov	x3, x2
    2d54:	2a0103e2 	mov	w2, w1
    2d58:	aa0003e1 	mov	x1, x0
/home/xiang/rockpi4-android/optee_os/lib/libutee/tee_api_arith_mpi.c:19
    2d5c:	910003fd 	mov	x29, sp
/home/xiang/rockpi4-android/optee_os/lib/libutee/tee_api_arith_mpi.c:20
    2d60:	b0000040 	adrp	x0, b000 <small_prime+0x140>
    2d64:	910f2000 	add	x0, x0, #0x3c8
    2d68:	97fff770 	bl	b28 <printf>
/home/xiang/rockpi4-android/optee_os/lib/libutee/tee_api_arith_mpi.c:21
    2d6c:	528c24e0 	mov	w0, #0x6127                	// #24871
    2d70:	72a01620 	movk	w0, #0xb1, lsl #16
    2d74:	94000009 	bl	2d98 <TEE_Panic>
    2d78:	14000000 	b	2d78 <api_panic+0x2c>

0000000000002d7c <check_access>:
check_access():
/home/xiang/rockpi4-android/optee_os/lib/libutee/tee_api_panic.c:40
    2d7c:	b4000062 	cbz	x2, 2d88 <check_access+0xc>
/home/xiang/rockpi4-android/optee_os/lib/libutee/tee_api_panic.c:43
    2d80:	b4000081 	cbz	x1, 2d90 <check_access+0x14>
/home/xiang/rockpi4-android/optee_os/lib/libutee/tee_api_panic.c:47
    2d84:	17fff814 	b	dd4 <TEE_CheckMemoryAccessRights>
/home/xiang/rockpi4-android/optee_os/lib/libutee/tee_api_panic.c:41
    2d88:	52800000 	mov	w0, #0x0                   	// #0
    2d8c:	d65f03c0 	ret
/home/xiang/rockpi4-android/optee_os/lib/libutee/tee_api_panic.c:44
    2d90:	129ffe00 	mov	w0, #0xffff000f            	// #-65521
/home/xiang/rockpi4-android/optee_os/lib/libutee/tee_api_panic.c:50
    2d94:	d65f03c0 	ret

