
/home/xiang/rockpi4-android/external/hello_ta/ta/out/8aaaf200-2450-11e4-abe2-0002a5d5c51b.elf:     file format elf64-littleaarch64
/home/xiang/rockpi4-android/external/hello_ta/ta/out/8aaaf200-2450-11e4-abe2-0002a5d5c51b.elf
architecture: aarch64, flags 0x00000150:
HAS_SYMS, DYNAMIC, D_PAGED
start address 0x0000000000000164

Program Header:
    LOAD off    0x0000000000001000 vaddr 0x0000000000000000 paddr 0x0000000000000000 align 2**12
         filesz 0x000000000000c3b0 memsz 0x000000000000c3b0 flags r-x
    LOAD off    0x000000000000e000 vaddr 0x000000000000d000 paddr 0x000000000000d000 align 2**12
         filesz 0x00000000000004ec memsz 0x000000000000b580 flags rw-
 DYNAMIC off    0x000000000000e000 vaddr 0x000000000000d000 paddr 0x000000000000d000 align 2**3
         filesz 0x0000000000000100 memsz 0x0000000000000100 flags rw-
   STACK off    0x0000000000000000 vaddr 0x0000000000000000 paddr 0x0000000000000000 align 2**4
         filesz 0x0000000000000000 memsz 0x0000000000000000 flags rw-

Dynamic Section:
  HASH                 0x000000000000c098
  STRTAB               0x000000000000bfb0
  SYMTAB               0x000000000000bde8
  STRSZ                0x00000000000000e8
  SYMENT               0x0000000000000018
  DEBUG                0x0000000000000000
  RELA                 0x000000000000c0f8
  RELASZ               0x0000000000000438
  RELAENT              0x0000000000000018
  FLAGS_1              0x0000000008000000
  RELACOUNT            0x000000000000001d
private flags = 0:

Sections:
Idx Name          Size      VMA               LMA               File off  Algn
  0 .ta_head      00000020  0000000000000000  0000000000000000  00001000  2**3
                  CONTENTS, ALLOC, LOAD, READONLY, DATA
  1 .text         0000ac0c  0000000000000020  0000000000000020  00001020  2**3
                  CONTENTS, ALLOC, LOAD, READONLY, CODE
  2 .rodata       000011b1  000000000000ac30  000000000000ac30  0000bc30  2**3
                  CONTENTS, ALLOC, LOAD, READONLY, DATA
  3 .dynsym       000001c8  000000000000bde8  000000000000bde8  0000cde8  2**3
                  CONTENTS, ALLOC, LOAD, READONLY, DATA
  4 .dynstr       000000e8  000000000000bfb0  000000000000bfb0  0000cfb0  2**0
                  CONTENTS, ALLOC, LOAD, READONLY, DATA
  5 .hash         00000060  000000000000c098  000000000000c098  0000d098  2**3
                  CONTENTS, ALLOC, LOAD, READONLY, DATA
  6 .rela.dyn     000002b8  000000000000c0f8  000000000000c0f8  0000d0f8  2**3
                  CONTENTS, ALLOC, LOAD, READONLY, DATA
  7 .dynamic      00000100  000000000000d000  000000000000d000  0000e000  2**3
                  CONTENTS, ALLOC, LOAD, DATA
  8 .got          000000a0  000000000000d100  000000000000d100  0000e100  2**3
                  CONTENTS, ALLOC, LOAD, DATA
  9 .rela.got     00000180  000000000000d1a0  000000000000d1a0  0000e1a0  2**3
                  CONTENTS, ALLOC, LOAD, READONLY, DATA
 10 .data         000001cc  000000000000d320  000000000000d320  0000e320  2**3
                  CONTENTS, ALLOC, LOAD, DATA
 11 .bss          0000b090  000000000000d4f0  000000000000d4f0  0000e4ec  2**3
                  ALLOC
 12 .debug_info   00014b77  0000000000000000  0000000000000000  0000e4ec  2**0
                  CONTENTS, READONLY, DEBUGGING
 13 .debug_abbrev 00003713  0000000000000000  0000000000000000  00023063  2**0
                  CONTENTS, READONLY, DEBUGGING
 14 .debug_loc    0001d975  0000000000000000  0000000000000000  00026776  2**0
                  CONTENTS, READONLY, DEBUGGING
 15 .debug_aranges 00000940  0000000000000000  0000000000000000  000440f0  2**4
                  CONTENTS, READONLY, DEBUGGING
 16 .debug_macro  000112f1  0000000000000000  0000000000000000  00044a30  2**0
                  CONTENTS, READONLY, DEBUGGING
 17 .debug_line   00006d12  0000000000000000  0000000000000000  00055d21  2**0
                  CONTENTS, READONLY, DEBUGGING
 18 .debug_str    00018357  0000000000000000  0000000000000000  0005ca33  2**0
                  CONTENTS, READONLY, DEBUGGING
 19 .comment      0000002d  0000000000000000  0000000000000000  00074d8a  2**0
                  CONTENTS, READONLY
 20 .debug_frame  00002ea8  0000000000000000  0000000000000000  00074db8  2**3
                  CONTENTS, READONLY, DEBUGGING
 21 .debug_ranges 000014a0  0000000000000000  0000000000000000  00077c60  2**4
                  CONTENTS, READONLY, DEBUGGING
SYMBOL TABLE:
0000000000000000 l    d  .ta_head	0000000000000000 .ta_head
0000000000000020 l    d  .text	0000000000000000 .text
000000000000ac30 l    d  .rodata	0000000000000000 .rodata
000000000000bde8 l    d  .dynsym	0000000000000000 .dynsym
000000000000bfb0 l    d  .dynstr	0000000000000000 .dynstr
000000000000c098 l    d  .hash	0000000000000000 .hash
000000000000c0f8 l    d  .rela.dyn	0000000000000000 .rela.dyn
000000000000d000 l    d  .dynamic	0000000000000000 .dynamic
000000000000d100 l    d  .got	0000000000000000 .got
000000000000d1a0 l    d  .rela.got	0000000000000000 .rela.got
000000000000d320 l    d  .data	0000000000000000 .data
000000000000d4f0 l    d  .bss	0000000000000000 .bss
0000000000000000 l    d  .debug_info	0000000000000000 .debug_info
0000000000000000 l    d  .debug_abbrev	0000000000000000 .debug_abbrev
0000000000000000 l    d  .debug_loc	0000000000000000 .debug_loc
0000000000000000 l    d  .debug_aranges	0000000000000000 .debug_aranges
0000000000000000 l    d  .debug_macro	0000000000000000 .debug_macro
0000000000000000 l    d  .debug_line	0000000000000000 .debug_line
0000000000000000 l    d  .debug_str	0000000000000000 .debug_str
0000000000000000 l    d  .comment	0000000000000000 .comment
0000000000000000 l    d  .debug_frame	0000000000000000 .debug_frame
0000000000000000 l    d  .debug_ranges	0000000000000000 .debug_ranges
0000000000000000 l    df *ABS*	0000000000000000 user_ta_header.c
000000000000ac38 l     O .rodata	0000000000000004 __compound_literal.5
000000000000ac3c l     O .rodata	0000000000000004 __compound_literal.4
000000000000ac40 l     O .rodata	0000000000000004 __compound_literal.3
000000000000ac44 l     O .rodata	0000000000000001 __compound_literal.2
000000000000ac45 l     O .rodata	0000000000000001 __compound_literal.1
000000000000ac46 l     O .rodata	0000000000000001 __compound_literal.0
0000000000000000 l    df *ABS*	0000000000000000 memcpy.c
0000000000000000 l    df *ABS*	0000000000000000 hello_ta.c
0000000000000000 l    df *ABS*	0000000000000000 utee_syscalls_a64.o
0000000000000000 l    df *ABS*	0000000000000000 user_ta_entry.c
000000000000042c l     F .text	00000000000000b0 _get_fn_array
00000000000004dc l     F .text	0000000000000060 _fini_iterate_phdr_cb
000000000000053c l     F .text	0000000000000028 ta_header_get_session
0000000000000564 l     F .text	0000000000000078 to_utee_params
00000000000005dc l     F .text	000000000000006c from_utee_params
0000000000000648 l     F .text	0000000000000094 _init_iterate_phdr_cb
0000000000000810 l     F .text	0000000000000098 ta_header_remove_session
00000000000154f0 l     O .bss	0000000000000008 _num_mod_init
00000000000154f8 l     O .bss	0000000000000001 init_done
000000000000ac68 l     O .rodata	0000000000000016 __func__.4685
000000000000d3f8 l     O .data	0000000000000010 ta_sessions
000000000000d408 l     O .data	0000000000000010 __phdr_info_head
0000000000000000 l    df *ABS*	0000000000000000 abort.c
0000000000000000 l    df *ABS*	0000000000000000 trace_ext.c
0000000000000000 l    df *ABS*	0000000000000000 tee_api.c
0000000000000c70 l     F .text	00000000000000b8 update_out_param
0000000000000de8 l     F .text	00000000000001d4 copy_param
0000000000015558 l     O .bss	0000000000000008 tee_api_instance_data
000000000000ac90 l     O .rodata	000000000000000b __func__.4553
0000000000000000 l    df *ABS*	0000000000000000 tee_api_arith_mpi.c
0000000000002d4c l     F .text	0000000000000030 api_panic
0000000000001420 l     F .text	0000000000000030 mpi_panic
0000000000001450 l     F .text	0000000000000098 get_mpi
00000000000014e8 l     F .text	000000000000006c copy_mpi_to_bigint
0000000000001554 l     F .text	0000000000000118 bigint_binary
000000000000166c l     F .text	0000000000000020 mpi_is_odd
000000000000168c l     F .text	0000000000000028 rng_read
00000000000016b4 l     F .text	0000000000000540 mpi_egcd
0000000000015560 l     O .bss	0000000000003000 data.4506
0000000000001f98 l     F .text	000000000000019c bigint_binary_mod
000000000000aca0 l     O .rodata	0000000000000008 __func__.4540
000000000000aca8 l     O .rodata	000000000000000e __func__.4637
000000000000acb8 l     O .rodata	0000000000000009 __func__.4783
000000000000acc8 l     O .rodata	0000000000000012 __func__.4507
000000000000ace0 l     O .rodata	000000000000000f __func__.4546
000000000000acf0 l     O .rodata	000000000000001f __func__.4564
000000000000ad10 l     O .rodata	0000000000000019 __func__.4571
000000000000ad30 l     O .rodata	0000000000000012 __func__.4656
000000000000ad48 l     O .rodata	0000000000000015 __func__.4602
000000000000ad60 l     O .rodata	000000000000000e __func__.4677
000000000000ad70 l     O .rodata	000000000000000e __func__.4706
000000000000ad80 l     O .rodata	000000000000000e __func__.4714
000000000000ad90 l     O .rodata	0000000000000011 __func__.4747
000000000000ada8 l     O .rodata	0000000000000018 __func__.4760
000000000000adc0 l     O .rodata	000000000000001d __func__.4840
000000000000ade0 l     O .rodata	0000000000000019 __func__.4893
000000000000ae00 l     O .rodata	0000000000000015 __func__.4908
0000000000000000 l    df *ABS*	0000000000000000 tee_api_panic.c
0000000000002d7c l     F .text	000000000000001c check_access
0000000000002da0 l     F .text	0000000000000010 check_res.isra.1
0000000000000000 l    df *ABS*	0000000000000000 tee_api_property.c
0000000000002edc l     F .text	0000000000000070 propset_get
0000000000002f4c l     F .text	0000000000000030 is_propset_pseudo_handle
0000000000002f7c l     F .text	0000000000000118 propget_get_ext_prop
0000000000003094 l     F .text	000000000000017c propget_get_property
000000000000b278 l     O .rodata	0000000000000004 __compound_literal.2
000000000000b27c l     O .rodata	0000000000000004 __compound_literal.1
000000000000b280 l     O .rodata	0000000000000004 __compound_literal.0
0000000000000000 l    df *ABS*	0000000000000000 tee_system_pta.c
000000000000398c l     F .text	0000000000000088 invoke_system_pta
000000000000ae18 l     O .rodata	0000000000000010 uuid.3919
000000000000ae28 l     O .rodata	000000000000000a __func__.3939
000000000000ae38 l     O .rodata	0000000000000017 __func__.3951
0000000000018560 l     O .bss	0000000000000008 sess.3918
0000000000000000 l    df *ABS*	0000000000000000 tcb.c
000000000000ae50 l     O .rodata	0000000000000010 __func__.3708
000000000000ae60 l     O .rodata	0000000000000010 __func__.3735
0000000000018568 l     O .bss	0000000000000008 _tls_size
0000000000018570 l     O .bss	0000000000000008 _tcb
0000000000000000 l    df *ABS*	0000000000000000 assert.c
0000000000000000 l    df *ABS*	0000000000000000 base64.c
000000000000ae78 l     O .rodata	0000000000000041 base64_table
0000000000000000 l    df *ABS*	0000000000000000 bignum.c
00000000000041b4 l     F .text	0000000000000060 mpi_get_digit
0000000000004214 l     F .text	00000000000004dc mpi_mul_hlp
00000000000046f0 l     F .text	0000000000000038 mpi_montg_init.isra.1
0000000000004728 l     F .text	0000000000000060 mpi_bigendian_to_host.part.0
0000000000004788 l     F .text	00000000000000c0 mpi_fill_random_internal
0000000000004848 l     F .text	0000000000000158 mpi_montmul.isra.2
00000000000049a0 l     F .text	0000000000000044 mpi_montred
0000000000004b80 l     F .text	000000000000006c mbedtls_mpi_resize_clear
00000000000067ac l     F .text	00000000000000a8 mpi_check_small_factors
0000000000007100 l     F .text	0000000000000270 mpi_miller_rabin
000000000000aec0 l     O .rodata	00000000000002a0 small_prime
000000000000b160 l     O .rodata	0000000000000024 gcd_pairs
0000000000000000 l    df *ABS*	0000000000000000 constant_time.c
00000000000080e0 l     F .text	0000000000000020 mbedtls_ct_uchar_mask_of_range
0000000000000000 l    df *ABS*	0000000000000000 platform_util.c
000000000000d460 l     O .data	0000000000000008 memset_func
0000000000000000 l    df *ABS*	0000000000000000 bget_malloc.c
00000000000088f8 l     F .text	0000000000000038 raw_malloc_return_hook
00000000000097c0 l     F .text	000000000000002c bget_buf_size.part.7
0000000000009410 l     F .text	00000000000000d8 gen_malloc_add_pool
000000000000b188 l     O .rodata	000000000000000e __func__.3629
000000000000b198 l     O .rodata	0000000000000005 __func__.3543
000000000000b1a0 l     O .rodata	0000000000000006 __func__.3563
000000000000b1a8 l     O .rodata	0000000000000005 __func__.3582
000000000000b1b0 l     O .rodata	0000000000000006 __func__.3574
000000000000b1b8 l     O .rodata	0000000000000006 __func__.3591
000000000000b1c0 l     O .rodata	0000000000000007 __func__.3601
000000000000b1c8 l     O .rodata	0000000000000014 __func__.3799
000000000000b1e0 l     O .rodata	0000000000000013 __func__.3692
000000000000d468 l     O .data	0000000000000080 malloc_ctx
0000000000000000 l    df *ABS*	0000000000000000 snprintf.c
0000000000000000 l    df *ABS*	0000000000000000 memmove.c
0000000000000000 l    df *ABS*	0000000000000000 memset.c
0000000000000000 l    df *ABS*	0000000000000000 strcmp.c
0000000000000000 l    df *ABS*	0000000000000000 strlen.c
0000000000000000 l    df *ABS*	0000000000000000 snprintk.c
0000000000009ac0 l     F .text	0000000000000c24 kprintf.constprop.0
000000000000b1f8 l     O .rodata	0000000000000011 HEXDIGITS
000000000000b210 l     O .rodata	0000000000000011 hexdigits
0000000000000000 l    df *ABS*	0000000000000000 strlcpy.c
0000000000000000 l    df *ABS*	0000000000000000 trace.c
000000000000b228 l     O .rodata	0000000000000005 lvl_strs.3247
0000000000000000 l    df *ABS*	0000000000000000 mempool.c
000000000000b230 l     O .rodata	0000000000000013 __func__.3346
000000000000b248 l     O .rodata	000000000000000b __func__.3327
000000000000b258 l     O .rodata	000000000000000e __func__.3352
0000000000000000 l    df *ABS*	0000000000000000 consttime_memcmp.c
0000000000000000 l    df *ABS*	0000000000000000 memchr.c
0000000000000000 l    df *ABS*	0000000000000000 
000000000000d000 l     O *ABS*	0000000000000000 _DYNAMIC
000000000000d118 l     O *ABS*	0000000000000000 _GLOBAL_OFFSET_TABLE_
0000000000000c34 g     F .text	000000000000003c putchar
0000000000002b98 g     F .text	0000000000000004 TEE_BigIntConvertToFMM
00000000000026f4 g     F .text	000000000000000c TEE_BigIntSquareMod
0000000000002134 g     F .text	000000000000016c TEE_BigIntShiftRight
00000000000095a4 g     F .text	0000000000000004 raw_malloc_add_pool
0000000000003b04 g     F .text	00000000000000b8 tee_invoke_supp_plugin
0000000000004a8c g     F .text	00000000000000f4 mbedtls_mpi_grow
00000000000013d8 g     F .text	0000000000000030 TEE_Realloc
0000000000002ebc g     F .text	0000000000000020 __utee_check_inout_annotation
0000000000009298 g     F .text	0000000000000010 raw_free
0000000000000b28 g     F .text	00000000000000cc printf
0000000000000198 g     F .text	000000000000000c _utee_log
00000000000010b4 g     F .text	0000000000000128 TEE_InvokeTACommand
0000000000002db0 g     F .text	000000000000004c __utee_check_outbuf_annotation
00000000000049f8 g     F .text	0000000000000028 mbedtls_mpi_init_mempool
0000000000000318 g     F .text	000000000000000c _utee_cryp_random_number_generate
000000000000520c g     F .text	00000000000000c0 mbedtls_mpi_write_binary
00000000000099f8 g     F .text	0000000000000054 vsnprintk
0000000000005a5c g     F .text	0000000000000040 mbedtls_mpi_sub_int
00000000000098b8 g     F .text	000000000000004c memmove
00000000000097ec g     F .text	0000000000000078 snprintf
0000000000001f50 g     F .text	0000000000000048 TEE_BigIntCmpS32
0000000000008654 g     F .text	0000000000000288 mbedtls_ct_rsaes_pkcs1_v15_unpadding
0000000000004bec g     F .text	000000000000012c mbedtls_mpi_shrink
000000000000232c g     F .text	000000000000000c TEE_BigIntAdd
00000000000002b8 g     F .text	000000000000000c _utee_cryp_obj_restrict_usage
000000000000ac48 g     O .rodata	0000000000000008 ta_heap_size
0000000000000360 g     F .text	000000000000000c _utee_asymm_operate
0000000000003f60 g     F .text	0000000000000018 _base64_enc_len
0000000000005ce8 g     F .text	00000000000001d8 mbedtls_mpi_read_string
0000000000002344 g     F .text	00000000000000b0 TEE_BigIntNeg
00000000000003b4 g     F .text	000000000000000c _utee_storage_free_enum
0000000000000020 g       .text	0000000000000000 __text_start
00000000000038e0 g     F .text	00000000000000ac TEE_GetNextProperty
00000000000053cc g     F .text	00000000000000bc mbedtls_mpi_shift_r
0000000000009754 g     F .text	000000000000006c malloc_buffer_overlaps_heap
0000000000000264 g     F .text	000000000000000c _utee_hash_init
00000000000026dc g     F .text	000000000000000c TEE_BigIntSubMod
00000000000079cc g     F .text	0000000000000320 mbedtls_mpi_gen_prime
0000000000003580 g     F .text	00000000000000b4 TEE_GetPropertyAsBinaryBlock
0000000000004ec4 g     F .text	0000000000000030 mbedtls_mpi_get_bit
00000000000050d0 g     F .text	0000000000000084 mbedtls_mpi_read_binary
000000000000a98c g     F .text	0000000000000070 trace_printf
000000000000685c g     F .text	0000000000000008 mbedtls_mpi_montmul
0000000000000420 g     F .text	000000000000000c _utee_cache_operation
0000000000000020 g     F .text	00000000000000f0 memcpy
0000000000002b9c g     F .text	000000000000009c TEE_BigIntConvertFromFMM
0000000000002d98 g     F .text	0000000000000008 TEE_Panic
0000000000000bf4 g     F .text	0000000000000040 puts
0000000000002c38 g     F .text	0000000000000114 TEE_BigIntComputeFMM
00000000000091d8 g     F .text	0000000000000038 malloc_get_stats
0000000000001338 g     F .text	0000000000000028 TEE_GetREETime
00000000000095a8 g     F .text	000000000000003c raw_malloc_get_stats
000000000000d320 g     O .data	00000000000000d8 ta_props
0000000000002dfc g     F .text	0000000000000030 __utee_check_instring_annotation
00000000000094e8 g     F .text	0000000000000018 malloc
00000000000037d8 g     F .text	0000000000000004 TEE_FreePropertyEnumerator
0000000000008158 g     F .text	0000000000000010 mbedtls_ct_mpi_uint_mask
0000000000009864 g     F .text	0000000000000054 vsnprintf
000000000000d4e8 g     O .data	0000000000000004 trace_level
0000000000001ee8 g     F .text	0000000000000068 TEE_BigIntCmp
000000000000ac30 g     O .rodata	0000000000000008 ta_num_props
0000000000008f80 g     F .text	00000000000000d4 bgetr
0000000000000378 g     F .text	000000000000000c _utee_storage_obj_open
000000000000ab7c g     F .text	0000000000000014 mempool_free
0000000000000270 g     F .text	000000000000000c _utee_hash_update
0000000000001d44 g     F .text	0000000000000094 TEE_BigIntConvertToOctetString
0000000000004fd4 g     F .text	000000000000006c mbedtls_mpi_bitlen
00000000000022a0 g     F .text	000000000000004c TEE_BigIntGetBit
000000000000ac50 g     O .rodata	0000000000000003 trace_ext_prefix
00000000000003d8 g     F .text	000000000000000c _utee_storage_next_enum
0000000000009288 g     F .text	0000000000000010 raw_malloc
0000000000008c38 g     F .text	0000000000000088 bgetz
0000000000008168 g     F .text	0000000000000018 mbedtls_ct_size_bool_eq
00000000000011e8 g     F .text	000000000000000c TEE_GetInstanceData
0000000000001234 g     F .text	000000000000003c TEE_Wait
0000000000005a9c g     F .text	0000000000000190 mbedtls_mpi_mul_mpi
0000000000001410 g     F .text	0000000000000008 TEE_CacheFlush
000000000000a798 g     F .text	00000000000001f4 trace_vprintf
0000000000000118 g     F .text	0000000000000004 TA_DestroyEntryPoint
00000000000049e4 g     F .text	0000000000000014 mbedtls_mpi_init
0000000000000390 g     F .text	000000000000000c _utee_storage_obj_del
0000000000004f80 g     F .text	0000000000000054 mbedtls_mpi_lsb
0000000000003f08 g     F .text	0000000000000044 _assert_log
000000000000024c g     F .text	000000000000000c _utee_cryp_state_copy
0000000000002b90 g     F .text	0000000000000008 TEE_BigIntFMMContextSizeInU32
0000000000003a78 g     F .text	000000000000008c tee_unmap
000000000000819c g     F .text	0000000000000030 mbedtls_ct_uint_if
0000000000001bf4 g     F .text	0000000000000050 _TEE_MathAPI_Init
0000000000003bbc g     F .text	0000000000000240 __utee_tcb_init
0000000000005908 g     F .text	0000000000000088 mbedtls_mpi_add_mpi
0000000000000ad8 g     F .text	0000000000000020 abort
0000000000007370 g     F .text	0000000000000184 mbedtls_mpi_random
0000000000002e78 g     F .text	0000000000000020 __utee_check_out_annotation
000000000000d4f0 g     O .bss	0000000000008000 ta_heap
0000000000002700 g     F .text	000000000000011c TEE_BigIntInvMod
00000000000006dc g     F .text	0000000000000124 __utee_call_elf_init_fn
000000000000012c g     F .text	0000000000000004 TA_CloseSessionEntryPoint
00000000000001d4 g     F .text	000000000000000c _utee_close_ta_session
0000000000005990 g     F .text	000000000000008c mbedtls_mpi_sub_mpi
000000000000ab90 g     F .text	0000000000000070 consttime_memcmp
000000000000018c g     F .text	000000000000000c _utee_return
00000000000001a4 g     F .text	000000000000000c __utee_panic
0000000000008100 g     F .text	0000000000000048 mbedtls_ct_memcmp
0000000000003dfc g     F .text	000000000000001c __tls_get_addr
0000000000000130 g     F .text	0000000000000034 TA_InvokeCommandEntryPoint
0000000000000800 g     F .text	0000000000000010 __utee_call_elf_fini_fn
0000000000009560 g     F .text	0000000000000010 free_wipe
000000000000aac8 g     F .text	0000000000000064 mempool_alloc
0000000000000180 g     F .text	000000000000000c _utee_panic
0000000000009578 g     F .text	000000000000002c raw_malloc_init_ctx
000000000000ab2c g     F .text	0000000000000050 mempool_calloc
0000000000000414 g     F .text	000000000000000c _utee_cryp_obj_generate_key
00000000000003fc g     F .text	000000000000000c _utee_storage_obj_trunc
000000000000d418 g     O .data	0000000000000048 tee_props
0000000000000204 g     F .text	000000000000000c _utee_unmask_cancellation
0000000000003784 g     F .text	000000000000000c TEE_ResetPropertyEnumerator
0000000000009500 g     F .text	000000000000001c calloc
0000000000001360 g     F .text	0000000000000068 TEE_Malloc
0000000000000dd4 g     F .text	0000000000000014 TEE_CheckMemoryAccessRights
0000000000003634 g     F .text	00000000000000a8 TEE_GetPropertyAsUUID
00000000000001b0 g     F .text	000000000000000c _utee_get_property
0000000000004e5c g     F .text	0000000000000068 mbedtls_mpi_lset
000000000000011c g     F .text	0000000000000010 TA_OpenSessionEntryPoint
0000000000003e18 g     F .text	00000000000000f0 dl_iterate_phdr
0000000000018580 g       .bss	0000000000000000 __ftrace_buf_end
0000000000015500 g     O .bss	0000000000000004 ta_param_types
00000000000063c4 g     F .text	0000000000000040 mbedtls_mpi_div_int
0000000000007914 g     F .text	00000000000000a8 mbedtls_mpi_is_prime_ext
0000000000002b28 g     F .text	0000000000000050 TEE_BigIntIsProbablePrime
0000000000005c2c g     F .text	00000000000000bc mbedtls_mpi_mul_int
0000000000006868 g     F .text	000000000000068c mbedtls_mpi_exp_mod
0000000000008394 g     F .text	00000000000000c0 mbedtls_mpi_safe_cond_assign
0000000000003210 g     F .text	0000000000000224 TEE_GetPropertyAsString
0000000000008554 g     F .text	0000000000000100 mbedtls_mpi_lt_mpi_ct
0000000000001c44 g     F .text	0000000000000064 TEE_BigIntInit
0000000000002e2c g     F .text	000000000000004c __utee_check_outstring_annotation
00000000000011f4 g     F .text	0000000000000008 TEE_MemMove
00000000000088dc g     F .text	000000000000001c mbedtls_platform_zeroize
0000000000001ca8 g     F .text	000000000000009c TEE_BigIntConvertFromOctetString
0000000000000354 g     F .text	000000000000000c _utee_authenc_dec_final
0000000000005488 g     F .text	00000000000000b0 mbedtls_mpi_cmp_abs
00000000000003e4 g     F .text	000000000000000c _utee_storage_obj_read
000000000000ac00 g     F .text	000000000000002c memchr
0000000000000d7c g     F .text	000000000000002c TEE_UnmaskCancellation
0000000000007cec g     F .text	00000000000003f4 mbedtls_mpi_self_test
0000000000000408 g     F .text	000000000000000c _utee_storage_obj_seek
00000000000001f8 g     F .text	000000000000000c _utee_check_access_rights
0000000000005628 g     F .text	0000000000000040 mbedtls_mpi_cmp_int
0000000000004090 g     F .text	0000000000000124 _base64_dec
00000000000003c0 g     F .text	000000000000000c _utee_storage_reset_enum
00000000000082c8 g     F .text	00000000000000cc mbedtls_ct_base64_dec_value
0000000000002e98 g     F .text	0000000000000024 __utee_check_attr_in_annotation
000000000000033c g     F .text	000000000000000c _utee_authenc_update_payload
0000000000002664 g     F .text	000000000000006c TEE_BigIntMod
00000000000064b8 g     F .text	00000000000000a0 mbedtls_mpi_mod_int
000000000000505c g     F .text	0000000000000074 mbedtls_mpi_read_binary_le
00000000000024e4 g     F .text	0000000000000180 TEE_BigIntDiv
00000000000002d0 g     F .text	000000000000000c _utee_cryp_obj_alloc
0000000000018580 g       .bss	0000000000000000 __ftrace_buf_start
000000000000a730 g     F .text	0000000000000038 strlcpy
0000000000008208 g     F .text	00000000000000c0 mbedtls_ct_base64_enc_char
0000000000004d18 g     F .text	00000000000000e4 mbedtls_mpi_copy
00000000000091c0 g     F .text	0000000000000018 malloc_reset_stats
00000000000036dc g     F .text	00000000000000a8 TEE_GetPropertyAsIdentity
000000000000a6e4 g     F .text	000000000000004c __vsprintf
0000000000000234 g     F .text	000000000000000c _utee_set_ta_time
00000000000001e0 g     F .text	000000000000000c _utee_invoke_ta_command
000000000000951c g     F .text	0000000000000018 realloc
0000000000004dfc g     F .text	0000000000000060 mbedtls_mpi_swap
000000000000aa00 g     F .text	00000000000000c8 mempool_alloc_pool
00000000000023f4 g     F .text	00000000000000e8 TEE_BigIntMul
0000000000009570 g     F .text	0000000000000008 raw_malloc_get_ctx_size
00000000000052cc g     F .text	0000000000000100 mbedtls_mpi_shift_l
0000000000005538 g     F .text	00000000000000f0 mbedtls_mpi_cmp_mpi
0000000000001204 g     F .text	0000000000000008 TEE_MemFill
00000000000095e4 g     F .text	0000000000000014 malloc_add_pool
000000000000a788 g     F .text	0000000000000010 trace_get_level
0000000000005668 g     F .text	000000000000013c mbedtls_mpi_add_abs
0000000000002b80 g     F .text	0000000000000010 TEE_BigIntFMMSizeInU32
0000000000003434 g     F .text	00000000000000a4 TEE_GetPropertyAsBool
0000000000009318 g     F .text	00000000000000f8 raw_realloc
0000000000002b78 g     F .text	0000000000000004 TEE_BigIntInitFMM
0000000000000288 g     F .text	000000000000000c _utee_cipher_init
00000000000008a8 g     F .text	0000000000000230 __utee_entry
00000000000034d8 g     F .text	00000000000000a8 TEE_GetPropertyAsU32
000000000000ac2c g       .text	0000000000000000 __text_end
000000000000281c g     F .text	00000000000000d4 TEE_BigIntRelativePrime
0000000000006404 g     F .text	00000000000000b4 mbedtls_mpi_mod_mpi
00000000000002ac g     F .text	000000000000000c _utee_cryp_obj_get_info
0000000000009054 g     F .text	00000000000000d4 bpool
0000000000003790 g     F .text	0000000000000048 TEE_AllocatePropertyEnumerator
0000000000000240 g     F .text	000000000000000c _utee_cryp_state_alloc
0000000000000d50 g     F .text	000000000000002c TEE_GetCancellationFlag
0000000000006ef4 g     F .text	00000000000001a4 mbedtls_mpi_gcd
00000000000012f4 g     F .text	0000000000000044 TEE_SetTAPersistentTime
0000000000005154 g     F .text	00000000000000b8 mbedtls_mpi_write_binary_le
0000000000009904 g     F .text	000000000000001c memset
0000000000009210 g     F .text	0000000000000078 raw_memalign
0000000000001270 g     F .text	0000000000000084 TEE_GetTAPersistentTime
000000000000a9fc g     F .text	0000000000000004 dhex_dump
0000000000000da8 g     F .text	000000000000002c TEE_MaskCancellation
00000000000002c4 g     F .text	000000000000000c _utee_cryp_obj_get_attr
000000000000a768 g     F .text	0000000000000020 trace_set_level
00000000000002a0 g     F .text	000000000000000c _utee_cipher_final
0000000000008180 g     F .text	000000000000001c mbedtls_ct_mpi_uint_lt
0000000000000258 g     F .text	000000000000000c _utee_cryp_state_free
0000000000009920 g     F .text	0000000000000030 strcmp
00000000000001c8 g     F .text	000000000000000c _utee_open_ta_session
0000000000001e5c g     F .text	000000000000008c TEE_BigIntConvertToS32
0000000000002338 g     F .text	000000000000000c TEE_BigIntSub
0000000000000178 g     F .text	0000000000000008 tahead_get_trace_level
00000000000003cc g     F .text	000000000000000c _utee_storage_start_enum
0000000000003a14 g     F .text	0000000000000064 tee_map_zi
0000000000006864 g     F .text	0000000000000004 mbedtls_mpi_montred
0000000000009534 g     F .text	000000000000001c memalign
0000000000008148 g     F .text	0000000000000010 mbedtls_ct_uint_mask
0000000000001dd8 g     F .text	0000000000000084 TEE_BigIntConvertFromS32
0000000000005a1c g     F .text	0000000000000040 mbedtls_mpi_add_int
0000000000000348 g     F .text	000000000000000c _utee_authenc_enc_final
00000000000095f8 g     F .text	000000000000015c malloc_buffer_is_within_alloced
00000000000002dc g     F .text	000000000000000c _utee_cryp_obj_close
0000000000002b7c g     F .text	0000000000000004 TEE_BigIntInitFMMContext
0000000000000210 g     F .text	000000000000000c _utee_mask_cancellation
000000000000039c g     F .text	000000000000000c _utee_storage_obj_rename
00000000000024dc g     F .text	0000000000000008 TEE_BigIntSquare
00000000000003f0 g     F .text	000000000000000c _utee_storage_obj_write
0000000000000110 g     F .text	0000000000000008 TA_CreateEntryPoint
0000000000000164 g     F .text	0000000000000014 __ta_entry
0000000000000330 g     F .text	000000000000000c _utee_authenc_update_aad
0000000000006854 g     F .text	0000000000000008 mbedtls_mpi_montg_init
0000000000009a4c g     F .text	0000000000000074 snprintk
00000000000022ec g     F .text	0000000000000040 TEE_BigIntGetBitCount
0000000000000300 g     F .text	000000000000000c _utee_cryp_obj_copy
00000000000026e8 g     F .text	000000000000000c TEE_BigIntMulMod
00000000000074f4 g     F .text	0000000000000420 mbedtls_mpi_inv_mod
0000000000015508 g     O .bss	0000000000000040 ta_params
0000000000005ec0 g     F .text	0000000000000504 mbedtls_mpi_div_mpi
0000000000005040 g     F .text	000000000000001c mbedtls_mpi_size
0000000000008930 g     F .text	0000000000000308 bget
00000000000037dc g     F .text	0000000000000010 TEE_StartPropertyEnumerator
000000000000021c g     F .text	000000000000000c _utee_wait
0000000000004ef4 g     F .text	000000000000008c mbedtls_mpi_set_bit
00000000000013c8 g     F .text	0000000000000010 TEE_Free
00000000000079bc g     F .text	0000000000000010 mbedtls_mpi_is_prime
0000000000001418 g     F .text	0000000000000008 TEE_CacheInvalidate
0000000000003f4c g     F .text	0000000000000014 _assert_break
00000000000026d0 g     F .text	000000000000000c TEE_BigIntAddMod
00000000000081cc g     F .text	000000000000003c mbedtls_ct_mpi_uint_cond_assign
0000000000000228 g     F .text	000000000000000c _utee_get_time
00000000000037ec g     F .text	00000000000000f4 TEE_GetPropertyName
00000000000002f4 g     F .text	000000000000000c _utee_cryp_obj_populate
00000000000011fc g     F .text	0000000000000008 TEE_MemCompare
0000000000000294 g     F .text	000000000000000c _utee_cipher_update
000000000000996c g     F .text	000000000000008c __vsnprintf
0000000000015548 g     O .bss	0000000000000010 __elf_phdr_info
0000000000000fbc g     F .text	00000000000000f8 TEE_OpenTASession
0000000000000af8 g     F .text	0000000000000028 trace_ext_puts
0000000000000b20 g     F .text	0000000000000008 trace_ext_get_thread_id
000000000000030c g     F .text	000000000000000c _utee_cryp_derive_key
0000000000004a20 g     F .text	000000000000006c mbedtls_mpi_free
00000000000002e8 g     F .text	000000000000000c _utee_cryp_obj_reset
0000000000001408 g     F .text	0000000000000008 TEE_CacheClean
00000000000001bc g     F .text	000000000000000c _utee_get_property_name_to_index
00000000000092a8 g     F .text	0000000000000070 raw_calloc
0000000000003f78 g     F .text	0000000000000118 _base64_enc
0000000000008454 g     F .text	0000000000000100 mbedtls_mpi_safe_cond_swap
0000000000000324 g     F .text	000000000000000c _utee_authenc_init
0000000000009950 g     F .text	000000000000001c strlen
00000000000028f0 g     F .text	0000000000000238 TEE_BigIntComputeExtendedGcd
00000000000003a8 g     F .text	000000000000000c _utee_storage_alloc_enum
000000000000120c g     F .text	0000000000000028 TEE_GetSystemTime
000000000000036c g     F .text	000000000000000c _utee_asymm_verify
0000000000000000 g     O .ta_head	0000000000000020 ta_head
0000000000008cc0 g     F .text	00000000000002c0 brel
00000000000057a4 g     F .text	0000000000000164 mbedtls_mpi_sub_abs
0000000000007098 g     F .text	0000000000000068 mbedtls_mpi_fill_random
00000000000011dc g     F .text	000000000000000c TEE_SetInstanceData
00000000000001ec g     F .text	000000000000000c _utee_get_cancellation_flag
0000000000006558 g     F .text	0000000000000254 mbedtls_mpi_write_string
0000000000000d28 g     F .text	0000000000000028 TEE_CloseTASession
0000000000000384 g     F .text	000000000000000c _utee_storage_obj_create
0000000000009550 g     F .text	0000000000000010 free
0000000000009128 g     F .text	0000000000000098 bstats
0000000000018578 g     O .bss	0000000000000008 mbedtls_mpi_mempool
000000000000027c g     F .text	000000000000000c _utee_hash_final



Disassembly of section .text:

0000000000000020 <memcpy>:
memcpy():
/home/xiang/rockpi4-android/optee_os/lib/libutils/isoc/newlib/memcpy.c:99
      20:	aa0003e5 	mov	x5, x0
/home/xiang/rockpi4-android/optee_os/lib/libutils/isoc/newlib/memcpy.c:106
      24:	f1007c5f 	cmp	x2, #0x1f
      28:	54000569 	b.ls	d4 <memcpy+0xb4>
/home/xiang/rockpi4-android/optee_os/lib/libutils/isoc/newlib/memcpy.c:106 (discriminator 1)
      2c:	aa000023 	orr	x3, x1, x0
      30:	f240087f 	tst	x3, #0x7
      34:	54000621 	b.ne	f8 <memcpy+0xd8>
      38:	d1008047 	sub	x7, x2, #0x20
/home/xiang/rockpi4-android/optee_os/lib/libutils/isoc/newlib/memcpy.c:106
      3c:	aa0103e4 	mov	x4, x1
      40:	927be8e6 	and	x6, x7, #0xffffffffffffffe0
      44:	aa0003e3 	mov	x3, x0
      48:	910080c6 	add	x6, x6, #0x20
      4c:	8b060006 	add	x6, x0, x6
/home/xiang/rockpi4-android/optee_os/lib/libutils/isoc/newlib/memcpy.c:112
      50:	f9400085 	ldr	x5, [x4]
      54:	91008084 	add	x4, x4, #0x20
      58:	f9000065 	str	x5, [x3]
      5c:	91008063 	add	x3, x3, #0x20
/home/xiang/rockpi4-android/optee_os/lib/libutils/isoc/newlib/memcpy.c:111
      60:	eb0300df 	cmp	x6, x3
/home/xiang/rockpi4-android/optee_os/lib/libutils/isoc/newlib/memcpy.c:113
      64:	f85e8085 	ldur	x5, [x4,#-24]
      68:	f81e8065 	stur	x5, [x3,#-24]
/home/xiang/rockpi4-android/optee_os/lib/libutils/isoc/newlib/memcpy.c:114
      6c:	f85f0085 	ldur	x5, [x4,#-16]
      70:	f81f0065 	stur	x5, [x3,#-16]
/home/xiang/rockpi4-android/optee_os/lib/libutils/isoc/newlib/memcpy.c:115
      74:	f85f8085 	ldur	x5, [x4,#-8]
      78:	f81f8065 	stur	x5, [x3,#-8]
/home/xiang/rockpi4-android/optee_os/lib/libutils/isoc/newlib/memcpy.c:111
      7c:	54fffea1 	b.ne	50 <memcpy+0x30>
      80:	927be8e4 	and	x4, x7, #0xffffffffffffffe0
      84:	92401043 	and	x3, x2, #0x1f
      88:	91008084 	add	x4, x4, #0x20
/home/xiang/rockpi4-android/optee_os/lib/libutils/isoc/newlib/memcpy.c:120
      8c:	f1001c7f 	cmp	x3, #0x7
      90:	8b040005 	add	x5, x0, x4
      94:	8b040021 	add	x1, x1, x4
      98:	54000369 	b.ls	104 <memcpy+0xe4>
      9c:	d1002067 	sub	x7, x3, #0x8
      a0:	d2800003 	mov	x3, #0x0                   	// #0
      a4:	927df0e6 	and	x6, x7, #0xfffffffffffffff8
      a8:	910020c6 	add	x6, x6, #0x8
/home/xiang/rockpi4-android/optee_os/lib/libutils/isoc/newlib/memcpy.c:121
      ac:	f8636824 	ldr	x4, [x1,x3]
      b0:	f82368a4 	str	x4, [x5,x3]
      b4:	91002063 	add	x3, x3, #0x8
/home/xiang/rockpi4-android/optee_os/lib/libutils/isoc/newlib/memcpy.c:120
      b8:	eb06007f 	cmp	x3, x6
      bc:	54ffff81 	b.ne	ac <memcpy+0x8c>
      c0:	927df0e3 	and	x3, x7, #0xfffffffffffffff8
      c4:	92400842 	and	x2, x2, #0x7
      c8:	91002063 	add	x3, x3, #0x8
/home/xiang/rockpi4-android/optee_os/lib/libutils/isoc/newlib/memcpy.c:121
      cc:	8b030021 	add	x1, x1, x3
      d0:	8b0300a5 	add	x5, x5, x3
/home/xiang/rockpi4-android/optee_os/lib/libutils/isoc/newlib/memcpy.c:130
      d4:	b4000162 	cbz	x2, 100 <memcpy+0xe0>
/home/xiang/rockpi4-android/optee_os/lib/libutils/isoc/newlib/memcpy.c:100
      d8:	d2800003 	mov	x3, #0x0                   	// #0
/home/xiang/rockpi4-android/optee_os/lib/libutils/isoc/newlib/memcpy.c:131
      dc:	38636824 	ldrb	w4, [x1,x3]
      e0:	382368a4 	strb	w4, [x5,x3]
      e4:	91000463 	add	x3, x3, #0x1
/home/xiang/rockpi4-android/optee_os/lib/libutils/isoc/newlib/memcpy.c:130
      e8:	eb02007f 	cmp	x3, x2
      ec:	54ffff81 	b.ne	dc <memcpy+0xbc>
/home/xiang/rockpi4-android/optee_os/lib/libutils/isoc/newlib/memcpy.c:135
      f0:	d65f03c0 	ret
      f4:	d503201f 	nop
/home/xiang/rockpi4-android/optee_os/lib/libutils/isoc/newlib/memcpy.c:99
      f8:	aa0003e5 	mov	x5, x0
      fc:	17fffff7 	b	d8 <memcpy+0xb8>
     100:	d65f03c0 	ret
/home/xiang/rockpi4-android/optee_os/lib/libutils/isoc/newlib/memcpy.c:120
     104:	aa0303e2 	mov	x2, x3
/home/xiang/rockpi4-android/optee_os/lib/libutils/isoc/newlib/memcpy.c:130
     108:	b5fffe82 	cbnz	x2, d8 <memcpy+0xb8>
     10c:	17fffffd 	b	100 <memcpy+0xe0>

0000000000000110 <TA_CreateEntryPoint>:
TA_CreateEntryPoint():
/home/xiang/rockpi4-android/external/hello_ta/ta/hello_ta.c:29
     110:	52800000 	mov	w0, #0x0                   	// #0
     114:	d65f03c0 	ret

0000000000000118 <TA_DestroyEntryPoint>:
TA_DestroyEntryPoint():
/home/xiang/rockpi4-android/external/hello_ta/ta/hello_ta.c:35
     118:	d65f03c0 	ret

000000000000011c <TA_OpenSessionEntryPoint>:
TA_OpenSessionEntryPoint():
/home/xiang/rockpi4-android/external/hello_ta/ta/hello_ta.c:59
     11c:	7100001f 	cmp	w0, #0x0
/home/xiang/rockpi4-android/external/hello_ta/ta/hello_ta.c:60
     120:	129fff20 	mov	w0, #0xffff0006            	// #-65530
     124:	1a9f1000 	csel	w0, w0, wzr, ne
     128:	d65f03c0 	ret

000000000000012c <TA_CloseSessionEntryPoint>:
TA_CloseSessionEntryPoint():
/home/xiang/rockpi4-android/external/hello_ta/ta/hello_ta.c:66
     12c:	d65f03c0 	ret

0000000000000130 <TA_InvokeCommandEntryPoint>:
TA_InvokeCommandEntryPoint():
/home/xiang/rockpi4-android/external/hello_ta/ta/hello_ta.c:81
     130:	34000161 	cbz	w1, 15c <TA_InvokeCommandEntryPoint+0x2c>
     134:	7100043f 	cmp	w1, #0x1
     138:	54000060 	b.eq	144 <TA_InvokeCommandEntryPoint+0x14>
/home/xiang/rockpi4-android/external/hello_ta/ta/hello_ta.c:88
     13c:	129fff20 	mov	w0, #0xffff0006            	// #-65530
/home/xiang/rockpi4-android/external/hello_ta/ta/hello_ta.c:98
     140:	d65f03c0 	ret
/home/xiang/rockpi4-android/external/hello_ta/ta/hello_ta.c:87
     144:	12000c42 	and	w2, w2, #0xf
     148:	71000c5f 	cmp	w2, #0x3
     14c:	54ffff81 	b.ne	13c <TA_InvokeCommandEntryPoint+0xc>
/home/xiang/rockpi4-android/external/hello_ta/ta/hello_ta.c:91
     150:	b9400060 	ldr	w0, [x3]
     154:	11000400 	add	w0, w0, #0x1
     158:	b9000060 	str	w0, [x3]
/home/xiang/rockpi4-android/external/hello_ta/ta/hello_ta.c:84
     15c:	52800000 	mov	w0, #0x0                   	// #0
     160:	d65f03c0 	ret

0000000000000164 <__ta_entry>:
__ta_entry():
/home/xiang/rockpi4-android/optee_os/out/arm-plat-rockchip/export-ta_arm64/src/user_ta_header.c:48
     164:	a9bf7bfd 	stp	x29, x30, [sp,#-16]!
     168:	910003fd 	mov	x29, sp
/home/xiang/rockpi4-android/optee_os/out/arm-plat-rockchip/export-ta_arm64/src/user_ta_header.c:49
     16c:	940001cf 	bl	8a8 <__utee_entry>
/home/xiang/rockpi4-android/optee_os/out/arm-plat-rockchip/export-ta_arm64/src/user_ta_header.c:60
     170:	2a0003e0 	mov	w0, w0
     174:	94000006 	bl	18c <_utee_return>

0000000000000178 <tahead_get_trace_level>:
tahead_get_trace_level():
/home/xiang/rockpi4-android/optee_os/out/arm-plat-rockchip/export-ta_arm64/src/user_ta_header.c:154
     178:	52800020 	mov	w0, #0x1                   	// #1
     17c:	d65f03c0 	ret

0000000000000180 <_utee_panic>:
_utee_panic():
/home/xiang/rockpi4-android/optee_os/lib/libutee/arch/arm/utee_syscalls_a64.S:41
     180:	a9bf7bfd 	stp	x29, x30, [sp,#-16]!
/home/xiang/rockpi4-android/optee_os/lib/libutee/arch/arm/utee_syscalls_a64.S:42
     184:	910003e1 	mov	x1, sp
/home/xiang/rockpi4-android/optee_os/lib/libutee/arch/arm/utee_syscalls_a64.S:43
     188:	94000007 	bl	1a4 <__utee_panic>

000000000000018c <_utee_return>:
_utee_return():
/home/xiang/rockpi4-android/optee_os/lib/libutee/arch/arm/utee_syscalls_asm.S:8
     18c:	d2800008 	mov	x8, #0x0                   	// #0
     190:	d4000001 	svc	#0x0
     194:	d65f03c0 	ret

0000000000000198 <_utee_log>:
_utee_log():
/home/xiang/rockpi4-android/optee_os/lib/libutee/arch/arm/utee_syscalls_asm.S:10
     198:	d2800028 	mov	x8, #0x1                   	// #1
     19c:	d4000001 	svc	#0x0
     1a0:	d65f03c0 	ret

00000000000001a4 <__utee_panic>:
__utee_panic():
/home/xiang/rockpi4-android/optee_os/lib/libutee/arch/arm/utee_syscalls_asm.S:12
     1a4:	d2800048 	mov	x8, #0x2                   	// #2
     1a8:	d4000001 	svc	#0x0
     1ac:	d65f03c0 	ret

00000000000001b0 <_utee_get_property>:
_utee_get_property():
/home/xiang/rockpi4-android/optee_os/lib/libutee/arch/arm/utee_syscalls_asm.S:14
     1b0:	d2800068 	mov	x8, #0x3                   	// #3
     1b4:	d4000001 	svc	#0x0
     1b8:	d65f03c0 	ret

00000000000001bc <_utee_get_property_name_to_index>:
_utee_get_property_name_to_index():
/home/xiang/rockpi4-android/optee_os/lib/libutee/arch/arm/utee_syscalls_asm.S:16
     1bc:	d2800088 	mov	x8, #0x4                   	// #4
     1c0:	d4000001 	svc	#0x0
     1c4:	d65f03c0 	ret

00000000000001c8 <_utee_open_ta_session>:
_utee_open_ta_session():
/home/xiang/rockpi4-android/optee_os/lib/libutee/arch/arm/utee_syscalls_asm.S:19
     1c8:	d28000a8 	mov	x8, #0x5                   	// #5
     1cc:	d4000001 	svc	#0x0
     1d0:	d65f03c0 	ret

00000000000001d4 <_utee_close_ta_session>:
_utee_close_ta_session():
/home/xiang/rockpi4-android/optee_os/lib/libutee/arch/arm/utee_syscalls_asm.S:21
     1d4:	d28000c8 	mov	x8, #0x6                   	// #6
     1d8:	d4000001 	svc	#0x0
     1dc:	d65f03c0 	ret

00000000000001e0 <_utee_invoke_ta_command>:
_utee_invoke_ta_command():
/home/xiang/rockpi4-android/optee_os/lib/libutee/arch/arm/utee_syscalls_asm.S:23
     1e0:	d28000e8 	mov	x8, #0x7                   	// #7
     1e4:	d4000001 	svc	#0x0
     1e8:	d65f03c0 	ret

00000000000001ec <_utee_get_cancellation_flag>:
_utee_get_cancellation_flag():
/home/xiang/rockpi4-android/optee_os/lib/libutee/arch/arm/utee_syscalls_asm.S:25
     1ec:	d2800128 	mov	x8, #0x9                   	// #9
     1f0:	d4000001 	svc	#0x0
     1f4:	d65f03c0 	ret

00000000000001f8 <_utee_check_access_rights>:
_utee_check_access_rights():
/home/xiang/rockpi4-android/optee_os/lib/libutee/arch/arm/utee_syscalls_asm.S:28
     1f8:	d2800108 	mov	x8, #0x8                   	// #8
     1fc:	d4000001 	svc	#0x0
     200:	d65f03c0 	ret

0000000000000204 <_utee_unmask_cancellation>:
_utee_unmask_cancellation():
/home/xiang/rockpi4-android/optee_os/lib/libutee/arch/arm/utee_syscalls_asm.S:30
     204:	d2800148 	mov	x8, #0xa                   	// #10
     208:	d4000001 	svc	#0x0
     20c:	d65f03c0 	ret

0000000000000210 <_utee_mask_cancellation>:
_utee_mask_cancellation():
/home/xiang/rockpi4-android/optee_os/lib/libutee/arch/arm/utee_syscalls_asm.S:32
     210:	d2800168 	mov	x8, #0xb                   	// #11
     214:	d4000001 	svc	#0x0
     218:	d65f03c0 	ret

000000000000021c <_utee_wait>:
_utee_wait():
/home/xiang/rockpi4-android/optee_os/lib/libutee/arch/arm/utee_syscalls_asm.S:34
     21c:	d2800188 	mov	x8, #0xc                   	// #12
     220:	d4000001 	svc	#0x0
     224:	d65f03c0 	ret

0000000000000228 <_utee_get_time>:
_utee_get_time():
/home/xiang/rockpi4-android/optee_os/lib/libutee/arch/arm/utee_syscalls_asm.S:36
     228:	d28001a8 	mov	x8, #0xd                   	// #13
     22c:	d4000001 	svc	#0x0
     230:	d65f03c0 	ret

0000000000000234 <_utee_set_ta_time>:
_utee_set_ta_time():
/home/xiang/rockpi4-android/optee_os/lib/libutee/arch/arm/utee_syscalls_asm.S:38
     234:	d28001c8 	mov	x8, #0xe                   	// #14
     238:	d4000001 	svc	#0x0
     23c:	d65f03c0 	ret

0000000000000240 <_utee_cryp_state_alloc>:
_utee_cryp_state_alloc():
/home/xiang/rockpi4-android/optee_os/lib/libutee/arch/arm/utee_syscalls_asm.S:40
     240:	d28001e8 	mov	x8, #0xf                   	// #15
     244:	d4000001 	svc	#0x0
     248:	d65f03c0 	ret

000000000000024c <_utee_cryp_state_copy>:
_utee_cryp_state_copy():
/home/xiang/rockpi4-android/optee_os/lib/libutee/arch/arm/utee_syscalls_asm.S:42
     24c:	d2800208 	mov	x8, #0x10                  	// #16
     250:	d4000001 	svc	#0x0
     254:	d65f03c0 	ret

0000000000000258 <_utee_cryp_state_free>:
_utee_cryp_state_free():
/home/xiang/rockpi4-android/optee_os/lib/libutee/arch/arm/utee_syscalls_asm.S:44
     258:	d2800228 	mov	x8, #0x11                  	// #17
     25c:	d4000001 	svc	#0x0
     260:	d65f03c0 	ret

0000000000000264 <_utee_hash_init>:
_utee_hash_init():
/home/xiang/rockpi4-android/optee_os/lib/libutee/arch/arm/utee_syscalls_asm.S:46
     264:	d2800248 	mov	x8, #0x12                  	// #18
     268:	d4000001 	svc	#0x0
     26c:	d65f03c0 	ret

0000000000000270 <_utee_hash_update>:
_utee_hash_update():
/home/xiang/rockpi4-android/optee_os/lib/libutee/arch/arm/utee_syscalls_asm.S:48
     270:	d2800268 	mov	x8, #0x13                  	// #19
     274:	d4000001 	svc	#0x0
     278:	d65f03c0 	ret

000000000000027c <_utee_hash_final>:
_utee_hash_final():
/home/xiang/rockpi4-android/optee_os/lib/libutee/arch/arm/utee_syscalls_asm.S:50
     27c:	d2800288 	mov	x8, #0x14                  	// #20
     280:	d4000001 	svc	#0x0
     284:	d65f03c0 	ret

0000000000000288 <_utee_cipher_init>:
_utee_cipher_init():
/home/xiang/rockpi4-android/optee_os/lib/libutee/arch/arm/utee_syscalls_asm.S:52
     288:	d28002a8 	mov	x8, #0x15                  	// #21
     28c:	d4000001 	svc	#0x0
     290:	d65f03c0 	ret

0000000000000294 <_utee_cipher_update>:
_utee_cipher_update():
/home/xiang/rockpi4-android/optee_os/lib/libutee/arch/arm/utee_syscalls_asm.S:54
     294:	d28002c8 	mov	x8, #0x16                  	// #22
     298:	d4000001 	svc	#0x0
     29c:	d65f03c0 	ret

00000000000002a0 <_utee_cipher_final>:
_utee_cipher_final():
/home/xiang/rockpi4-android/optee_os/lib/libutee/arch/arm/utee_syscalls_asm.S:56
     2a0:	d28002e8 	mov	x8, #0x17                  	// #23
     2a4:	d4000001 	svc	#0x0
     2a8:	d65f03c0 	ret

00000000000002ac <_utee_cryp_obj_get_info>:
_utee_cryp_obj_get_info():
/home/xiang/rockpi4-android/optee_os/lib/libutee/arch/arm/utee_syscalls_asm.S:58
     2ac:	d2800308 	mov	x8, #0x18                  	// #24
     2b0:	d4000001 	svc	#0x0
     2b4:	d65f03c0 	ret

00000000000002b8 <_utee_cryp_obj_restrict_usage>:
_utee_cryp_obj_restrict_usage():
/home/xiang/rockpi4-android/optee_os/lib/libutee/arch/arm/utee_syscalls_asm.S:60
     2b8:	d2800328 	mov	x8, #0x19                  	// #25
     2bc:	d4000001 	svc	#0x0
     2c0:	d65f03c0 	ret

00000000000002c4 <_utee_cryp_obj_get_attr>:
_utee_cryp_obj_get_attr():
/home/xiang/rockpi4-android/optee_os/lib/libutee/arch/arm/utee_syscalls_asm.S:63
     2c4:	d2800348 	mov	x8, #0x1a                  	// #26
     2c8:	d4000001 	svc	#0x0
     2cc:	d65f03c0 	ret

00000000000002d0 <_utee_cryp_obj_alloc>:
_utee_cryp_obj_alloc():
/home/xiang/rockpi4-android/optee_os/lib/libutee/arch/arm/utee_syscalls_asm.S:65
     2d0:	d2800368 	mov	x8, #0x1b                  	// #27
     2d4:	d4000001 	svc	#0x0
     2d8:	d65f03c0 	ret

00000000000002dc <_utee_cryp_obj_close>:
_utee_cryp_obj_close():
/home/xiang/rockpi4-android/optee_os/lib/libutee/arch/arm/utee_syscalls_asm.S:67
     2dc:	d2800388 	mov	x8, #0x1c                  	// #28
     2e0:	d4000001 	svc	#0x0
     2e4:	d65f03c0 	ret

00000000000002e8 <_utee_cryp_obj_reset>:
_utee_cryp_obj_reset():
/home/xiang/rockpi4-android/optee_os/lib/libutee/arch/arm/utee_syscalls_asm.S:69
     2e8:	d28003a8 	mov	x8, #0x1d                  	// #29
     2ec:	d4000001 	svc	#0x0
     2f0:	d65f03c0 	ret

00000000000002f4 <_utee_cryp_obj_populate>:
_utee_cryp_obj_populate():
/home/xiang/rockpi4-android/optee_os/lib/libutee/arch/arm/utee_syscalls_asm.S:71
     2f4:	d28003c8 	mov	x8, #0x1e                  	// #30
     2f8:	d4000001 	svc	#0x0
     2fc:	d65f03c0 	ret

0000000000000300 <_utee_cryp_obj_copy>:
_utee_cryp_obj_copy():
/home/xiang/rockpi4-android/optee_os/lib/libutee/arch/arm/utee_syscalls_asm.S:73
     300:	d28003e8 	mov	x8, #0x1f                  	// #31
     304:	d4000001 	svc	#0x0
     308:	d65f03c0 	ret

000000000000030c <_utee_cryp_derive_key>:
_utee_cryp_derive_key():
/home/xiang/rockpi4-android/optee_os/lib/libutee/arch/arm/utee_syscalls_asm.S:75
     30c:	d2800408 	mov	x8, #0x20                  	// #32
     310:	d4000001 	svc	#0x0
     314:	d65f03c0 	ret

0000000000000318 <_utee_cryp_random_number_generate>:
_utee_cryp_random_number_generate():
/home/xiang/rockpi4-android/optee_os/lib/libutee/arch/arm/utee_syscalls_asm.S:77
     318:	d2800428 	mov	x8, #0x21                  	// #33
     31c:	d4000001 	svc	#0x0
     320:	d65f03c0 	ret

0000000000000324 <_utee_authenc_init>:
_utee_authenc_init():
/home/xiang/rockpi4-android/optee_os/lib/libutee/arch/arm/utee_syscalls_asm.S:80
     324:	d2800448 	mov	x8, #0x22                  	// #34
     328:	d4000001 	svc	#0x0
     32c:	d65f03c0 	ret

0000000000000330 <_utee_authenc_update_aad>:
_utee_authenc_update_aad():
/home/xiang/rockpi4-android/optee_os/lib/libutee/arch/arm/utee_syscalls_asm.S:82
     330:	d2800468 	mov	x8, #0x23                  	// #35
     334:	d4000001 	svc	#0x0
     338:	d65f03c0 	ret

000000000000033c <_utee_authenc_update_payload>:
_utee_authenc_update_payload():
/home/xiang/rockpi4-android/optee_os/lib/libutee/arch/arm/utee_syscalls_asm.S:84
     33c:	d2800488 	mov	x8, #0x24                  	// #36
     340:	d4000001 	svc	#0x0
     344:	d65f03c0 	ret

0000000000000348 <_utee_authenc_enc_final>:
_utee_authenc_enc_final():
/home/xiang/rockpi4-android/optee_os/lib/libutee/arch/arm/utee_syscalls_asm.S:87
     348:	d28004a8 	mov	x8, #0x25                  	// #37
     34c:	d4000001 	svc	#0x0
     350:	d65f03c0 	ret

0000000000000354 <_utee_authenc_dec_final>:
_utee_authenc_dec_final():
/home/xiang/rockpi4-android/optee_os/lib/libutee/arch/arm/utee_syscalls_asm.S:89
     354:	d28004c8 	mov	x8, #0x26                  	// #38
     358:	d4000001 	svc	#0x0
     35c:	d65f03c0 	ret

0000000000000360 <_utee_asymm_operate>:
_utee_asymm_operate():
/home/xiang/rockpi4-android/optee_os/lib/libutee/arch/arm/utee_syscalls_asm.S:91
     360:	d28004e8 	mov	x8, #0x27                  	// #39
     364:	d4000001 	svc	#0x0
     368:	d65f03c0 	ret

000000000000036c <_utee_asymm_verify>:
_utee_asymm_verify():
/home/xiang/rockpi4-android/optee_os/lib/libutee/arch/arm/utee_syscalls_asm.S:93
     36c:	d2800508 	mov	x8, #0x28                  	// #40
     370:	d4000001 	svc	#0x0
     374:	d65f03c0 	ret

0000000000000378 <_utee_storage_obj_open>:
_utee_storage_obj_open():
/home/xiang/rockpi4-android/optee_os/lib/libutee/arch/arm/utee_syscalls_asm.S:95
     378:	d2800528 	mov	x8, #0x29                  	// #41
     37c:	d4000001 	svc	#0x0
     380:	d65f03c0 	ret

0000000000000384 <_utee_storage_obj_create>:
_utee_storage_obj_create():
/home/xiang/rockpi4-android/optee_os/lib/libutee/arch/arm/utee_syscalls_asm.S:97
     384:	d2800548 	mov	x8, #0x2a                  	// #42
     388:	d4000001 	svc	#0x0
     38c:	d65f03c0 	ret

0000000000000390 <_utee_storage_obj_del>:
_utee_storage_obj_del():
/home/xiang/rockpi4-android/optee_os/lib/libutee/arch/arm/utee_syscalls_asm.S:99
     390:	d2800568 	mov	x8, #0x2b                  	// #43
     394:	d4000001 	svc	#0x0
     398:	d65f03c0 	ret

000000000000039c <_utee_storage_obj_rename>:
_utee_storage_obj_rename():
/home/xiang/rockpi4-android/optee_os/lib/libutee/arch/arm/utee_syscalls_asm.S:101
     39c:	d2800588 	mov	x8, #0x2c                  	// #44
     3a0:	d4000001 	svc	#0x0
     3a4:	d65f03c0 	ret

00000000000003a8 <_utee_storage_alloc_enum>:
_utee_storage_alloc_enum():
/home/xiang/rockpi4-android/optee_os/lib/libutee/arch/arm/utee_syscalls_asm.S:103
     3a8:	d28005a8 	mov	x8, #0x2d                  	// #45
     3ac:	d4000001 	svc	#0x0
     3b0:	d65f03c0 	ret

00000000000003b4 <_utee_storage_free_enum>:
_utee_storage_free_enum():
/home/xiang/rockpi4-android/optee_os/lib/libutee/arch/arm/utee_syscalls_asm.S:105
     3b4:	d28005c8 	mov	x8, #0x2e                  	// #46
     3b8:	d4000001 	svc	#0x0
     3bc:	d65f03c0 	ret

00000000000003c0 <_utee_storage_reset_enum>:
_utee_storage_reset_enum():
/home/xiang/rockpi4-android/optee_os/lib/libutee/arch/arm/utee_syscalls_asm.S:107
     3c0:	d28005e8 	mov	x8, #0x2f                  	// #47
     3c4:	d4000001 	svc	#0x0
     3c8:	d65f03c0 	ret

00000000000003cc <_utee_storage_start_enum>:
_utee_storage_start_enum():
/home/xiang/rockpi4-android/optee_os/lib/libutee/arch/arm/utee_syscalls_asm.S:109
     3cc:	d2800608 	mov	x8, #0x30                  	// #48
     3d0:	d4000001 	svc	#0x0
     3d4:	d65f03c0 	ret

00000000000003d8 <_utee_storage_next_enum>:
_utee_storage_next_enum():
/home/xiang/rockpi4-android/optee_os/lib/libutee/arch/arm/utee_syscalls_asm.S:111
     3d8:	d2800628 	mov	x8, #0x31                  	// #49
     3dc:	d4000001 	svc	#0x0
     3e0:	d65f03c0 	ret

00000000000003e4 <_utee_storage_obj_read>:
_utee_storage_obj_read():
/home/xiang/rockpi4-android/optee_os/lib/libutee/arch/arm/utee_syscalls_asm.S:113
     3e4:	d2800648 	mov	x8, #0x32                  	// #50
     3e8:	d4000001 	svc	#0x0
     3ec:	d65f03c0 	ret

00000000000003f0 <_utee_storage_obj_write>:
_utee_storage_obj_write():
/home/xiang/rockpi4-android/optee_os/lib/libutee/arch/arm/utee_syscalls_asm.S:115
     3f0:	d2800668 	mov	x8, #0x33                  	// #51
     3f4:	d4000001 	svc	#0x0
     3f8:	d65f03c0 	ret

00000000000003fc <_utee_storage_obj_trunc>:
_utee_storage_obj_trunc():
/home/xiang/rockpi4-android/optee_os/lib/libutee/arch/arm/utee_syscalls_asm.S:117
     3fc:	d2800688 	mov	x8, #0x34                  	// #52
     400:	d4000001 	svc	#0x0
     404:	d65f03c0 	ret

0000000000000408 <_utee_storage_obj_seek>:
_utee_storage_obj_seek():
/home/xiang/rockpi4-android/optee_os/lib/libutee/arch/arm/utee_syscalls_asm.S:119
     408:	d28006a8 	mov	x8, #0x35                  	// #53
     40c:	d4000001 	svc	#0x0
     410:	d65f03c0 	ret

0000000000000414 <_utee_cryp_obj_generate_key>:
_utee_cryp_obj_generate_key():
/home/xiang/rockpi4-android/optee_os/lib/libutee/arch/arm/utee_syscalls_asm.S:121
     414:	d28006c8 	mov	x8, #0x36                  	// #54
     418:	d4000001 	svc	#0x0
     41c:	d65f03c0 	ret

0000000000000420 <_utee_cache_operation>:
_utee_cache_operation():
/home/xiang/rockpi4-android/optee_os/lib/libutee/arch/arm/utee_syscalls_asm.S:124
     420:	d28008c8 	mov	x8, #0x46                  	// #70
     424:	d4000001 	svc	#0x0
     428:	d65f03c0 	ret

000000000000042c <_get_fn_array>:
_get_fn_array():
/home/xiang/rockpi4-android/optee_os/lib/libutee/arch/arm/user_ta_entry.c:81
     42c:	79403009 	ldrh	w9, [x0,#24]
/home/xiang/rockpi4-android/optee_os/lib/libutee/arch/arm/user_ta_entry.c:92
     430:	93407c21 	sxtw	x1, w1
/home/xiang/rockpi4-android/optee_os/lib/libutee/arch/arm/user_ta_entry.c:95
     434:	93407c42 	sxtw	x2, w2
/home/xiang/rockpi4-android/optee_os/lib/libutee/arch/arm/user_ta_entry.c:81
     438:	d2800007 	mov	x7, #0x0                   	// #0
/home/xiang/rockpi4-android/optee_os/lib/libutee/arch/arm/user_ta_entry.c:82
     43c:	d280070a 	mov	x10, #0x38                  	// #56
/home/xiang/rockpi4-android/optee_os/lib/libutee/arch/arm/user_ta_entry.c:81 (discriminator 1)
     440:	eb0900ff 	cmp	x7, x9
     444:	54000043 	b.cc	44c <_get_fn_array+0x20>
/home/xiang/rockpi4-android/optee_os/lib/libutee/arch/arm/user_ta_entry.c:101
     448:	d65f03c0 	ret
/home/xiang/rockpi4-android/optee_os/lib/libutee/arch/arm/user_ta_entry.c:82
     44c:	9b0a7ce5 	mul	x5, x7, x10
     450:	f9400808 	ldr	x8, [x0,#16]
     454:	8b050106 	add	x6, x8, x5
/home/xiang/rockpi4-android/optee_os/lib/libutee/arch/arm/user_ta_entry.c:83
     458:	b8656905 	ldr	w5, [x8,x5]
     45c:	710008bf 	cmp	w5, #0x2
     460:	54000060 	b.eq	46c <_get_fn_array+0x40>
/home/xiang/rockpi4-android/optee_os/lib/libutee/arch/arm/user_ta_entry.c:81
     464:	910004e7 	add	x7, x7, #0x1
     468:	17fffff6 	b	440 <_get_fn_array+0x14>
/home/xiang/rockpi4-android/optee_os/lib/libutee/arch/arm/user_ta_entry.c:86
     46c:	f94008c5 	ldr	x5, [x6,#16]
     470:	f9400008 	ldr	x8, [x0]
/home/xiang/rockpi4-android/optee_os/lib/libutee/arch/arm/user_ta_entry.c:85
     474:	f94014c6 	ldr	x6, [x6,#40]
/home/xiang/rockpi4-android/optee_os/lib/libutee/arch/arm/user_ta_entry.c:86
     478:	8b0800a5 	add	x5, x5, x8
     47c:	927cecc6 	and	x6, x6, #0xfffffffffffffff0
     480:	8b0500c6 	add	x6, x6, x5
/home/xiang/rockpi4-android/optee_os/lib/libutee/arch/arm/user_ta_entry.c:87 (discriminator 1)
     484:	eb0600bf 	cmp	x5, x6
     488:	54fffee0 	b.eq	464 <_get_fn_array+0x38>
/home/xiang/rockpi4-android/optee_os/lib/libutee/arch/arm/user_ta_entry.c:88
     48c:	f9400068 	ldr	x8, [x3]
     490:	b4000068 	cbz	x8, 49c <_get_fn_array+0x70>
/home/xiang/rockpi4-android/optee_os/lib/libutee/arch/arm/user_ta_entry.c:88 (discriminator 1)
     494:	f9400088 	ldr	x8, [x4]
     498:	b5fffe68 	cbnz	x8, 464 <_get_fn_array+0x38>
/home/xiang/rockpi4-android/optee_os/lib/libutee/arch/arm/user_ta_entry.c:90
     49c:	f94000a8 	ldr	x8, [x5]
     4a0:	b4fffe28 	cbz	x8, 464 <_get_fn_array+0x38>
/home/xiang/rockpi4-android/optee_os/lib/libutee/arch/arm/user_ta_entry.c:92
     4a4:	eb01011f 	cmp	x8, x1
     4a8:	540000e1 	b.ne	4c4 <_get_fn_array+0x98>
/home/xiang/rockpi4-android/optee_os/lib/libutee/arch/arm/user_ta_entry.c:93
     4ac:	f940000b 	ldr	x11, [x0]
     4b0:	f94004a8 	ldr	x8, [x5,#8]
     4b4:	8b0b0108 	add	x8, x8, x11
     4b8:	f9000068 	str	x8, [x3]
/home/xiang/rockpi4-android/optee_os/lib/libutee/arch/arm/user_ta_entry.c:98 (discriminator 2)
     4bc:	910040a5 	add	x5, x5, #0x10
     4c0:	17fffff1 	b	484 <_get_fn_array+0x58>
/home/xiang/rockpi4-android/optee_os/lib/libutee/arch/arm/user_ta_entry.c:95
     4c4:	eb02011f 	cmp	x8, x2
     4c8:	54ffffa1 	b.ne	4bc <_get_fn_array+0x90>
/home/xiang/rockpi4-android/optee_os/lib/libutee/arch/arm/user_ta_entry.c:96
     4cc:	f94004a8 	ldr	x8, [x5,#8]
     4d0:	d343fd08 	lsr	x8, x8, #3
     4d4:	f9000088 	str	x8, [x4]
     4d8:	17fffff9 	b	4bc <_get_fn_array+0x90>

00000000000004dc <_fini_iterate_phdr_cb>:
_fini_iterate_phdr_cb():
/home/xiang/rockpi4-android/optee_os/lib/libutee/arch/arm/user_ta_entry.c:137
     4dc:	a9bd7bfd 	stp	x29, x30, [sp,#-48]!
/home/xiang/rockpi4-android/optee_os/lib/libutee/arch/arm/user_ta_entry.c:142
     4e0:	52800382 	mov	w2, #0x1c                  	// #28
     4e4:	52800341 	mov	w1, #0x1a                  	// #26
/home/xiang/rockpi4-android/optee_os/lib/libutee/arch/arm/user_ta_entry.c:137
     4e8:	910003fd 	mov	x29, sp
/home/xiang/rockpi4-android/optee_os/lib/libutee/arch/arm/user_ta_entry.c:139
     4ec:	9100c3a4 	add	x4, x29, #0x30
/home/xiang/rockpi4-android/optee_os/lib/libutee/arch/arm/user_ta_entry.c:137
     4f0:	f9000bf3 	str	x19, [sp,#16]
/home/xiang/rockpi4-android/optee_os/lib/libutee/arch/arm/user_ta_entry.c:144
     4f4:	d2800033 	mov	x19, #0x1                   	// #1
/home/xiang/rockpi4-android/optee_os/lib/libutee/arch/arm/user_ta_entry.c:142
     4f8:	910083a3 	add	x3, x29, #0x20
/home/xiang/rockpi4-android/optee_os/lib/libutee/arch/arm/user_ta_entry.c:138
     4fc:	f90013bf 	str	xzr, [x29,#32]
/home/xiang/rockpi4-android/optee_os/lib/libutee/arch/arm/user_ta_entry.c:139
     500:	f81f8c9f 	str	xzr, [x4,#-8]!
/home/xiang/rockpi4-android/optee_os/lib/libutee/arch/arm/user_ta_entry.c:142
     504:	97ffffca 	bl	42c <_get_fn_array>
/home/xiang/rockpi4-android/optee_os/lib/libutee/arch/arm/user_ta_entry.c:144 (discriminator 1)
     508:	f94017a0 	ldr	x0, [x29,#40]
     50c:	eb00027f 	cmp	x19, x0
     510:	540000a9 	b.ls	524 <_fini_iterate_phdr_cb+0x48>
/home/xiang/rockpi4-android/optee_os/lib/libutee/arch/arm/user_ta_entry.c:148
     514:	f9400bf3 	ldr	x19, [sp,#16]
     518:	52800000 	mov	w0, #0x0                   	// #0
     51c:	a8c37bfd 	ldp	x29, x30, [sp],#48
     520:	d65f03c0 	ret
/home/xiang/rockpi4-android/optee_os/lib/libutee/arch/arm/user_ta_entry.c:145 (discriminator 3)
     524:	f94013a1 	ldr	x1, [x29,#32]
     528:	cb130000 	sub	x0, x0, x19
/home/xiang/rockpi4-android/optee_os/lib/libutee/arch/arm/user_ta_entry.c:144 (discriminator 3)
     52c:	91000673 	add	x19, x19, #0x1
/home/xiang/rockpi4-android/optee_os/lib/libutee/arch/arm/user_ta_entry.c:145 (discriminator 3)
     530:	f8607820 	ldr	x0, [x1,x0,lsl #3]
     534:	d63f0000 	blr	x0
     538:	17fffff4 	b	508 <_fini_iterate_phdr_cb+0x2c>

000000000000053c <ta_header_get_session>:
ta_header_get_session():
/home/xiang/rockpi4-android/optee_os/lib/libutee/arch/arm/user_ta_entry.c:196
     53c:	2a0003e1 	mov	w1, w0
/home/xiang/rockpi4-android/optee_os/lib/libutee/arch/arm/user_ta_entry.c:199
     540:	b0000060 	adrp	x0, d000 <_DYNAMIC>
     544:	f941fc00 	ldr	x0, [x0,#1016]
/home/xiang/rockpi4-android/optee_os/lib/libutee/arch/arm/user_ta_entry.c:199 (discriminator 1)
     548:	b5000040 	cbnz	x0, 550 <ta_header_get_session+0x14>
/home/xiang/rockpi4-android/optee_os/lib/libutee/arch/arm/user_ta_entry.c:204
     54c:	d65f03c0 	ret
/home/xiang/rockpi4-android/optee_os/lib/libutee/arch/arm/user_ta_entry.c:200
     550:	b9400002 	ldr	w2, [x0]
     554:	6b01005f 	cmp	w2, w1
     558:	54ffffa0 	b.eq	54c <ta_header_get_session+0x10>
/home/xiang/rockpi4-android/optee_os/lib/libutee/arch/arm/user_ta_entry.c:199 (discriminator 2)
     55c:	f9400800 	ldr	x0, [x0,#16]
     560:	17fffffa 	b	548 <ta_header_get_session+0xc>

0000000000000564 <to_utee_params>:
to_utee_params():
/home/xiang/rockpi4-android/optee_os/lib/libutee/arch/arm/user_ta_entry.c:260
     564:	d0000045 	adrp	x5, a000 <kprintf.constprop.0+0x540>
     568:	913160a5 	add	x5, x5, #0xc58
/home/xiang/rockpi4-android/optee_os/lib/libutee/arch/arm/user_ta_entry.c:258
     56c:	2a0103e3 	mov	w3, w1
     570:	52800004 	mov	w4, #0x0                   	// #0
     574:	f8008403 	str	x3, [x0],#8
/home/xiang/rockpi4-android/optee_os/lib/libutee/arch/arm/user_ta_entry.c:260
     578:	1ac42423 	lsr	w3, w1, w4
     57c:	12000c63 	and	w3, w3, #0xf
     580:	51000463 	sub	w3, w3, #0x1
     584:	7100187f 	cmp	w3, #0x6
     588:	54000268 	b.hi	5d4 <to_utee_params+0x70>
     58c:	386348a3 	ldrb	w3, [x5,w3,uxtw]
     590:	10000066 	adr	x6, 59c <to_utee_params+0x38>
     594:	8b2388c3 	add	x3, x6, w3, sxtb #2
     598:	d61f0060 	br	x3
/home/xiang/rockpi4-android/optee_os/lib/libutee/arch/arm/user_ta_entry.c:264
     59c:	b9400043 	ldr	w3, [x2]
     5a0:	f9000003 	str	x3, [x0]
/home/xiang/rockpi4-android/optee_os/lib/libutee/arch/arm/user_ta_entry.c:265
     5a4:	b9400443 	ldr	w3, [x2,#4]
/home/xiang/rockpi4-android/optee_os/lib/libutee/arch/arm/user_ta_entry.c:271
     5a8:	f9000403 	str	x3, [x0,#8]
     5ac:	11001084 	add	w4, w4, #0x4
     5b0:	91004042 	add	x2, x2, #0x10
     5b4:	91004000 	add	x0, x0, #0x10
/home/xiang/rockpi4-android/optee_os/lib/libutee/arch/arm/user_ta_entry.c:259 (discriminator 2)
     5b8:	7100409f 	cmp	w4, #0x10
     5bc:	54fffde1 	b.ne	578 <to_utee_params+0x14>
/home/xiang/rockpi4-android/optee_os/lib/libutee/arch/arm/user_ta_entry.c:279
     5c0:	d65f03c0 	ret
/home/xiang/rockpi4-android/optee_os/lib/libutee/arch/arm/user_ta_entry.c:270
     5c4:	f9400043 	ldr	x3, [x2]
     5c8:	f9000003 	str	x3, [x0]
/home/xiang/rockpi4-android/optee_os/lib/libutee/arch/arm/user_ta_entry.c:271
     5cc:	b9400843 	ldr	w3, [x2,#8]
     5d0:	17fffff6 	b	5a8 <to_utee_params+0x44>
/home/xiang/rockpi4-android/optee_os/lib/libutee/arch/arm/user_ta_entry.c:275
     5d4:	a9007c1f 	stp	xzr, xzr, [x0]
/home/xiang/rockpi4-android/optee_os/lib/libutee/arch/arm/user_ta_entry.c:276
     5d8:	17fffff5 	b	5ac <to_utee_params+0x48>

00000000000005dc <from_utee_params>:
from_utee_params():
/home/xiang/rockpi4-android/optee_os/lib/libutee/arch/arm/user_ta_entry.c:286
     5dc:	f8408446 	ldr	x6, [x2],#8
/home/xiang/rockpi4-android/optee_os/lib/libutee/arch/arm/user_ta_entry.c:292
     5e0:	d0000045 	adrp	x5, a000 <kprintf.constprop.0+0x540>
     5e4:	913180a5 	add	x5, x5, #0xc60
/home/xiang/rockpi4-android/optee_os/lib/libutee/arch/arm/user_ta_entry.c:286
     5e8:	52800004 	mov	w4, #0x0                   	// #0
     5ec:	2a0603e9 	mov	w9, w6
/home/xiang/rockpi4-android/optee_os/lib/libutee/arch/arm/user_ta_entry.c:292
     5f0:	1ac42523 	lsr	w3, w9, w4
     5f4:	12000c63 	and	w3, w3, #0xf
     5f8:	51000463 	sub	w3, w3, #0x1
     5fc:	7100187f 	cmp	w3, #0x6
/home/xiang/rockpi4-android/optee_os/lib/libutee/arch/arm/user_ta_entry.c:290
     600:	a9401c48 	ldp	x8, x7, [x2]
/home/xiang/rockpi4-android/optee_os/lib/libutee/arch/arm/user_ta_entry.c:292
     604:	540000c8 	b.hi	61c <from_utee_params+0x40>
     608:	386348a3 	ldrb	w3, [x5,w3,uxtw]
     60c:	1000006a 	adr	x10, 618 <from_utee_params+0x3c>
     610:	8b238943 	add	x3, x10, w3, sxtb #2
     614:	d61f0060 	br	x3
/home/xiang/rockpi4-android/optee_os/lib/libutee/arch/arm/user_ta_entry.c:297
     618:	29001c08 	stp	w8, w7, [x0]
     61c:	11001084 	add	w4, w4, #0x4
     620:	91004042 	add	x2, x2, #0x10
     624:	91004000 	add	x0, x0, #0x10
/home/xiang/rockpi4-android/optee_os/lib/libutee/arch/arm/user_ta_entry.c:288 (discriminator 2)
     628:	7100409f 	cmp	w4, #0x10
     62c:	54fffe21 	b.ne	5f0 <from_utee_params+0x14>
/home/xiang/rockpi4-android/optee_os/lib/libutee/arch/arm/user_ta_entry.c:310
     630:	b4000041 	cbz	x1, 638 <from_utee_params+0x5c>
/home/xiang/rockpi4-android/optee_os/lib/libutee/arch/arm/user_ta_entry.c:311
     634:	b9000026 	str	w6, [x1]
     638:	d65f03c0 	ret
/home/xiang/rockpi4-android/optee_os/lib/libutee/arch/arm/user_ta_entry.c:302
     63c:	f9000008 	str	x8, [x0]
/home/xiang/rockpi4-android/optee_os/lib/libutee/arch/arm/user_ta_entry.c:303
     640:	b9000807 	str	w7, [x0,#8]
/home/xiang/rockpi4-android/optee_os/lib/libutee/arch/arm/user_ta_entry.c:304
     644:	17fffff6 	b	61c <from_utee_params+0x40>

0000000000000648 <_init_iterate_phdr_cb>:
_init_iterate_phdr_cb():
/home/xiang/rockpi4-android/optee_os/lib/libutee/arch/arm/user_ta_entry.c:57
     648:	a9bd7bfd 	stp	x29, x30, [sp,#-48]!
     64c:	910003fd 	mov	x29, sp
     650:	a90153f3 	stp	x19, x20, [sp,#16]
     654:	aa0203f4 	mov	x20, x2
     658:	f90013f5 	str	x21, [sp,#32]
     65c:	aa0003f5 	mov	x21, x0
/home/xiang/rockpi4-android/optee_os/lib/libutee/arch/arm/user_ta_entry.c:61
     660:	d2800a00 	mov	x0, #0x50                  	// #80
     664:	940023a1 	bl	94e8 <malloc>
/home/xiang/rockpi4-android/optee_os/lib/libutee/arch/arm/user_ta_entry.c:62
     668:	b5000140 	cbnz	x0, 690 <_init_iterate_phdr_cb+0x48>
/home/xiang/rockpi4-android/optee_os/lib/libutee/arch/arm/user_ta_entry.c:63
     66c:	f0000044 	adrp	x4, b000 <small_prime+0x140>
     670:	d0000040 	adrp	x0, a000 <kprintf.constprop.0+0x540>
     674:	910d8484 	add	x4, x4, #0x361
     678:	9131a000 	add	x0, x0, #0xc68
     67c:	52800023 	mov	w3, #0x1                   	// #1
     680:	52800022 	mov	w2, #0x1                   	// #1
     684:	528007e1 	mov	w1, #0x3f                  	// #63
     688:	940028c1 	bl	a98c <trace_printf>
/home/xiang/rockpi4-android/optee_os/lib/libutee/arch/arm/user_ta_entry.c:64
     68c:	94000113 	bl	ad8 <abort>
     690:	aa0003f3 	mov	x19, x0
/home/xiang/rockpi4-android/optee_os/lib/libutee/arch/arm/user_ta_entry.c:66
     694:	aa1503e1 	mov	x1, x21
     698:	d2800802 	mov	x2, #0x40                  	// #64
     69c:	97fffe61 	bl	20 <memcpy>
/home/xiang/rockpi4-android/optee_os/lib/libutee/arch/arm/user_ta_entry.c:67
     6a0:	b0000060 	adrp	x0, d000 <_DYNAMIC>
     6a4:	910fe000 	add	x0, x0, #0x3f8
/home/xiang/rockpi4-android/optee_os/lib/libutee/arch/arm/user_ta_entry.c:70
     6a8:	f94013f5 	ldr	x21, [sp,#32]
/home/xiang/rockpi4-android/optee_os/lib/libutee/arch/arm/user_ta_entry.c:67
     6ac:	f9400c01 	ldr	x1, [x0,#24]
     6b0:	a904067f 	stp	xzr, x1, [x19,#64]
     6b4:	f9000033 	str	x19, [x1]
     6b8:	91010273 	add	x19, x19, #0x40
     6bc:	f9000c13 	str	x19, [x0,#24]
/home/xiang/rockpi4-android/optee_os/lib/libutee/arch/arm/user_ta_entry.c:68
     6c0:	f9400280 	ldr	x0, [x20]
     6c4:	91000400 	add	x0, x0, #0x1
     6c8:	f9000280 	str	x0, [x20]
/home/xiang/rockpi4-android/optee_os/lib/libutee/arch/arm/user_ta_entry.c:70
     6cc:	52800000 	mov	w0, #0x0                   	// #0
     6d0:	a94153f3 	ldp	x19, x20, [sp,#16]
     6d4:	a8c37bfd 	ldp	x29, x30, [sp],#48
     6d8:	d65f03c0 	ret

00000000000006dc <__utee_call_elf_init_fn>:
__utee_call_elf_init_fn():
/home/xiang/rockpi4-android/optee_os/lib/libutee/arch/arm/user_ta_entry.c:104
     6dc:	a9b97bfd 	stp	x29, x30, [sp,#-112]!
/home/xiang/rockpi4-android/optee_os/lib/libutee/arch/arm/user_ta_entry.c:113
     6e0:	90000000 	adrp	x0, 0 <ta_head>
     6e4:	91192000 	add	x0, x0, #0x648
/home/xiang/rockpi4-android/optee_os/lib/libutee/arch/arm/user_ta_entry.c:104
     6e8:	910003fd 	mov	x29, sp
     6ec:	a90153f3 	stp	x19, x20, [sp,#16]
/home/xiang/rockpi4-android/optee_os/lib/libutee/arch/arm/user_ta_entry.c:113
     6f0:	910183a1 	add	x1, x29, #0x60
/home/xiang/rockpi4-android/optee_os/lib/libutee/arch/arm/user_ta_entry.c:104
     6f4:	a90363f7 	stp	x23, x24, [sp,#48]
/home/xiang/rockpi4-android/optee_os/lib/libutee/arch/arm/user_ta_entry.c:119
     6f8:	9101a3b8 	add	x24, x29, #0x68
/home/xiang/rockpi4-android/optee_os/lib/libutee/arch/arm/user_ta_entry.c:104
     6fc:	a9025bf5 	stp	x21, x22, [sp,#32]
/home/xiang/rockpi4-android/optee_os/lib/libutee/arch/arm/user_ta_entry.c:108
     700:	d2800013 	mov	x19, #0x0                   	// #0
/home/xiang/rockpi4-android/optee_os/lib/libutee/arch/arm/user_ta_entry.c:104
     704:	f90023f9 	str	x25, [sp,#64]
/home/xiang/rockpi4-android/optee_os/lib/libutee/arch/arm/user_ta_entry.c:119
     708:	910163b9 	add	x25, x29, #0x58
/home/xiang/rockpi4-android/optee_os/lib/libutee/arch/arm/user_ta_entry.c:106
     70c:	a905ffbf 	stp	xzr, xzr, [x29,#88]
     710:	b00000b6 	adrp	x22, 15000 <ta_heap+0x7b10>
/home/xiang/rockpi4-android/optee_os/lib/libutee/arch/arm/user_ta_entry.c:107
     714:	f90037bf 	str	xzr, [x29,#104]
/home/xiang/rockpi4-android/optee_os/lib/libutee/arch/arm/user_ta_entry.c:113
     718:	94000dc0 	bl	3e18 <dl_iterate_phdr>
/home/xiang/rockpi4-android/optee_os/lib/libutee/arch/arm/user_ta_entry.c:116
     71c:	b0000061 	adrp	x1, d000 <_DYNAMIC>
     720:	910fe020 	add	x0, x1, #0x3f8
     724:	aa0103f7 	mov	x23, x1
     728:	f9400c00 	ldr	x0, [x0,#24]
     72c:	f9400400 	ldr	x0, [x0,#8]
     730:	f9400014 	ldr	x20, [x0]
/home/xiang/rockpi4-android/optee_os/lib/libutee/arch/arm/user_ta_entry.c:116 (discriminator 1)
     734:	b40000d4 	cbz	x20, 74c <__utee_call_elf_init_fn+0x70>
/home/xiang/rockpi4-android/optee_os/lib/libutee/arch/arm/user_ta_entry.c:117
     738:	f9427ac1 	ldr	x1, [x22,#1264]
     73c:	f94033a0 	ldr	x0, [x29,#96]
     740:	cb010000 	sub	x0, x0, x1
     744:	eb00027f 	cmp	x19, x0
     748:	54000181 	b.ne	778 <__utee_call_elf_init_fn+0x9c>
/home/xiang/rockpi4-android/optee_os/lib/libutee/arch/arm/user_ta_entry.c:129
     74c:	910fe2e1 	add	x1, x23, #0x3f8
/home/xiang/rockpi4-android/optee_os/lib/libutee/arch/arm/user_ta_entry.c:127
     750:	f9427ac0 	ldr	x0, [x22,#1264]
/home/xiang/rockpi4-android/optee_os/lib/libutee/arch/arm/user_ta_entry.c:130
     754:	aa0103f4 	mov	x20, x1
/home/xiang/rockpi4-android/optee_os/lib/libutee/arch/arm/user_ta_entry.c:127
     758:	8b130013 	add	x19, x0, x19
     75c:	f9027ad3 	str	x19, [x22,#1264]
/home/xiang/rockpi4-android/optee_os/lib/libutee/arch/arm/user_ta_entry.c:129
     760:	f9400820 	ldr	x0, [x1,#16]
/home/xiang/rockpi4-android/optee_os/lib/libutee/arch/arm/user_ta_entry.c:129 (discriminator 2)
     764:	b4000420 	cbz	x0, 7e8 <__utee_call_elf_init_fn+0x10c>
     768:	a9440413 	ldp	x19, x1, [x0,#64]
/home/xiang/rockpi4-android/optee_os/lib/libutee/arch/arm/user_ta_entry.c:130 (discriminator 3)
     76c:	b5000333 	cbnz	x19, 7d0 <__utee_call_elf_init_fn+0xf4>
/home/xiang/rockpi4-android/optee_os/lib/libutee/arch/arm/user_ta_entry.c:130 (discriminator 2)
     770:	f9000e81 	str	x1, [x20,#24]
     774:	14000018 	b	7d4 <__utee_call_elf_init_fn+0xf8>
/home/xiang/rockpi4-android/optee_os/lib/libutee/arch/arm/user_ta_entry.c:121
     778:	d2800015 	mov	x21, #0x0                   	// #0
/home/xiang/rockpi4-android/optee_os/lib/libutee/arch/arm/user_ta_entry.c:119
     77c:	aa1803e4 	mov	x4, x24
     780:	aa1903e3 	mov	x3, x25
     784:	52800362 	mov	w2, #0x1b                  	// #27
     788:	52800321 	mov	w1, #0x19                  	// #25
     78c:	aa1403e0 	mov	x0, x20
     790:	97ffff27 	bl	42c <_get_fn_array>
/home/xiang/rockpi4-android/optee_os/lib/libutee/arch/arm/user_ta_entry.c:121 (discriminator 1)
     794:	f94037a0 	ldr	x0, [x29,#104]
     798:	eb0002bf 	cmp	x21, x0
     79c:	54000103 	b.cc	7bc <__utee_call_elf_init_fn+0xe0>
/home/xiang/rockpi4-android/optee_os/lib/libutee/arch/arm/user_ta_entry.c:116 (discriminator 2)
     7a0:	f9402680 	ldr	x0, [x20,#72]
/home/xiang/rockpi4-android/optee_os/lib/libutee/arch/arm/user_ta_entry.c:125 (discriminator 2)
     7a4:	91000673 	add	x19, x19, #0x1
/home/xiang/rockpi4-android/optee_os/lib/libutee/arch/arm/user_ta_entry.c:116 (discriminator 2)
     7a8:	f9400400 	ldr	x0, [x0,#8]
     7ac:	f9400014 	ldr	x20, [x0]
/home/xiang/rockpi4-android/optee_os/lib/libutee/arch/arm/user_ta_entry.c:123 (discriminator 2)
     7b0:	f9002fbf 	str	xzr, [x29,#88]
/home/xiang/rockpi4-android/optee_os/lib/libutee/arch/arm/user_ta_entry.c:124 (discriminator 2)
     7b4:	f90037bf 	str	xzr, [x29,#104]
     7b8:	17ffffdf 	b	734 <__utee_call_elf_init_fn+0x58>
/home/xiang/rockpi4-android/optee_os/lib/libutee/arch/arm/user_ta_entry.c:122 (discriminator 3)
     7bc:	f9402fa0 	ldr	x0, [x29,#88]
     7c0:	f8757800 	ldr	x0, [x0,x21,lsl #3]
/home/xiang/rockpi4-android/optee_os/lib/libutee/arch/arm/user_ta_entry.c:121 (discriminator 3)
     7c4:	910006b5 	add	x21, x21, #0x1
/home/xiang/rockpi4-android/optee_os/lib/libutee/arch/arm/user_ta_entry.c:122 (discriminator 3)
     7c8:	d63f0000 	blr	x0
     7cc:	17fffff2 	b	794 <__utee_call_elf_init_fn+0xb8>
/home/xiang/rockpi4-android/optee_os/lib/libutee/arch/arm/user_ta_entry.c:130 (discriminator 1)
     7d0:	f9002661 	str	x1, [x19,#72]
/home/xiang/rockpi4-android/optee_os/lib/libutee/arch/arm/user_ta_entry.c:130 (discriminator 4)
     7d4:	f9402401 	ldr	x1, [x0,#72]
     7d8:	f9000033 	str	x19, [x1]
/home/xiang/rockpi4-android/optee_os/lib/libutee/arch/arm/user_ta_entry.c:131 (discriminator 4)
     7dc:	9400235d 	bl	9550 <free>
/home/xiang/rockpi4-android/optee_os/lib/libutee/arch/arm/user_ta_entry.c:129 (discriminator 4)
     7e0:	aa1303e0 	mov	x0, x19
     7e4:	17ffffe0 	b	764 <__utee_call_elf_init_fn+0x88>
/home/xiang/rockpi4-android/optee_os/lib/libutee/arch/arm/user_ta_entry.c:133
     7e8:	a94153f3 	ldp	x19, x20, [sp,#16]
     7ec:	a9425bf5 	ldp	x21, x22, [sp,#32]
     7f0:	a94363f7 	ldp	x23, x24, [sp,#48]
     7f4:	f94023f9 	ldr	x25, [sp,#64]
     7f8:	a8c77bfd 	ldp	x29, x30, [sp],#112
     7fc:	d65f03c0 	ret

0000000000000800 <__utee_call_elf_fini_fn>:
__utee_call_elf_fini_fn():
/home/xiang/rockpi4-android/optee_os/lib/libutee/arch/arm/user_ta_entry.c:152
     800:	d2800001 	mov	x1, #0x0                   	// #0
     804:	90000000 	adrp	x0, 0 <ta_head>
     808:	91137000 	add	x0, x0, #0x4dc
     80c:	14000d83 	b	3e18 <dl_iterate_phdr>

0000000000000810 <ta_header_remove_session>:
ta_header_remove_session():
/home/xiang/rockpi4-android/optee_os/lib/libutee/arch/arm/user_ta_entry.c:233
     810:	a9be7bfd 	stp	x29, x30, [sp,#-32]!
     814:	2a0003e2 	mov	w2, w0
     818:	910003fd 	mov	x29, sp
     81c:	f9000bf3 	str	x19, [sp,#16]
/home/xiang/rockpi4-android/optee_os/lib/libutee/arch/arm/user_ta_entry.c:237
     820:	b0000073 	adrp	x19, d000 <_DYNAMIC>
     824:	f941fe60 	ldr	x0, [x19,#1016]
/home/xiang/rockpi4-android/optee_os/lib/libutee/arch/arm/user_ta_entry.c:237 (discriminator 1)
     828:	b5000080 	cbnz	x0, 838 <ta_header_remove_session+0x28>
/home/xiang/rockpi4-android/optee_os/lib/libutee/arch/arm/user_ta_entry.c:251
     82c:	f9400bf3 	ldr	x19, [sp,#16]
     830:	a8c27bfd 	ldp	x29, x30, [sp],#32
     834:	d65f03c0 	ret
/home/xiang/rockpi4-android/optee_os/lib/libutee/arch/arm/user_ta_entry.c:238
     838:	b9400001 	ldr	w1, [x0]
     83c:	6b02003f 	cmp	w1, w2
     840:	f9400801 	ldr	x1, [x0,#16]
     844:	540002e1 	b.ne	8a0 <ta_header_remove_session+0x90>
     848:	f9400c02 	ldr	x2, [x0,#24]
/home/xiang/rockpi4-android/optee_os/lib/libutee/arch/arm/user_ta_entry.c:239
     84c:	b4000241 	cbz	x1, 894 <ta_header_remove_session+0x84>
/home/xiang/rockpi4-android/optee_os/lib/libutee/arch/arm/user_ta_entry.c:239 (discriminator 1)
     850:	f9000c22 	str	x2, [x1,#24]
/home/xiang/rockpi4-android/optee_os/lib/libutee/arch/arm/user_ta_entry.c:239 (discriminator 4)
     854:	f9400c02 	ldr	x2, [x0,#24]
     858:	f9000041 	str	x1, [x2]
/home/xiang/rockpi4-android/optee_os/lib/libutee/arch/arm/user_ta_entry.c:240 (discriminator 4)
     85c:	940002db 	bl	13c8 <TEE_Free>
/home/xiang/rockpi4-android/optee_os/lib/libutee/arch/arm/user_ta_entry.c:245 (discriminator 4)
     860:	f941fe60 	ldr	x0, [x19,#1016]
     864:	b5fffe40 	cbnz	x0, 82c <ta_header_remove_session+0x1c>
/home/xiang/rockpi4-android/optee_os/lib/libutee/arch/arm/user_ta_entry.c:243 (discriminator 1)
     868:	b0000060 	adrp	x0, d000 <_DYNAMIC>
     86c:	52800281 	mov	w1, #0x14                  	// #20
     870:	f940c800 	ldr	x0, [x0,#400]
     874:	b9401400 	ldr	w0, [x0,#20]
     878:	0a010000 	and	w0, w0, w1
/home/xiang/rockpi4-android/optee_os/lib/libutee/arch/arm/user_ta_entry.c:245 (discriminator 1)
     87c:	6b01001f 	cmp	w0, w1
     880:	54fffd60 	b.eq	82c <ta_header_remove_session+0x1c>
uninit_instance():
/home/xiang/rockpi4-android/optee_os/lib/libutee/arch/arm/user_ta_entry.c:180
     884:	97fffe25 	bl	118 <TA_DestroyEntryPoint>
ta_header_remove_session():
/home/xiang/rockpi4-android/optee_os/lib/libutee/arch/arm/user_ta_entry.c:251
     888:	f9400bf3 	ldr	x19, [sp,#16]
     88c:	a8c27bfd 	ldp	x29, x30, [sp],#32
uninit_instance():
/home/xiang/rockpi4-android/optee_os/lib/libutee/arch/arm/user_ta_entry.c:181
     890:	17ffffdc 	b	800 <__utee_call_elf_fini_fn>
ta_header_remove_session():
/home/xiang/rockpi4-android/optee_os/lib/libutee/arch/arm/user_ta_entry.c:239 (discriminator 2)
     894:	910fe263 	add	x3, x19, #0x3f8
     898:	f9000462 	str	x2, [x3,#8]
     89c:	17ffffee 	b	854 <ta_header_remove_session+0x44>
/home/xiang/rockpi4-android/optee_os/lib/libutee/arch/arm/user_ta_entry.c:237 (discriminator 2)
     8a0:	aa0103e0 	mov	x0, x1
     8a4:	17ffffe1 	b	828 <ta_header_remove_session+0x18>

00000000000008a8 <__utee_entry>:
__utee_entry():
/home/xiang/rockpi4-android/optee_os/lib/libutee/arch/arm/user_ta_entry.c:379
     8a8:	a9b77bfd 	stp	x29, x30, [sp,#-144]!
/home/xiang/rockpi4-android/optee_os/lib/libutee/arch/arm/user_ta_entry.c:382
     8ac:	f100041f 	cmp	x0, #0x1
/home/xiang/rockpi4-android/optee_os/lib/libutee/arch/arm/user_ta_entry.c:379
     8b0:	910003fd 	mov	x29, sp
     8b4:	a90153f3 	stp	x19, x20, [sp,#16]
     8b8:	b0000074 	adrp	x20, d000 <_DYNAMIC>
     8bc:	a9025bf5 	stp	x21, x22, [sp,#32]
     8c0:	aa0103f5 	mov	x21, x1
     8c4:	a90363f7 	stp	x23, x24, [sp,#48]
/home/xiang/rockpi4-android/optee_os/lib/libutee/arch/arm/user_ta_entry.c:382
     8c8:	54000be0 	b.eq	a44 <__utee_entry+0x19c>
     8cc:	aa0203f7 	mov	x23, x2
     8d0:	b40000e0 	cbz	x0, 8ec <__utee_entry+0x44>
     8d4:	f100081f 	cmp	x0, #0x2
     8d8:	54000c80 	b.eq	a68 <__utee_entry+0x1c0>
/home/xiang/rockpi4-android/optee_os/lib/libutee/arch/arm/user_ta_entry.c:394
     8dc:	52800000 	mov	w0, #0x0                   	// #0
/home/xiang/rockpi4-android/optee_os/lib/libutee/arch/arm/user_ta_entry.c:393
     8e0:	12800013 	mov	w19, #0xffffffff            	// #-1
/home/xiang/rockpi4-android/optee_os/lib/libutee/arch/arm/user_ta_entry.c:394
     8e4:	9400092d 	bl	2d98 <TEE_Panic>
/home/xiang/rockpi4-android/optee_os/lib/libutee/arch/arm/user_ta_entry.c:395
     8e8:	14000023 	b	974 <__utee_entry+0xcc>
ta_header_add_session():
/home/xiang/rockpi4-android/optee_os/lib/libutee/arch/arm/user_ta_entry.c:208
     8ec:	2a0103e0 	mov	w0, w1
     8f0:	97ffff13 	bl	53c <ta_header_get_session>
/home/xiang/rockpi4-android/optee_os/lib/libutee/arch/arm/user_ta_entry.c:211
     8f4:	b50006a0 	cbnz	x0, 9c8 <__utee_entry+0x120>
/home/xiang/rockpi4-android/optee_os/lib/libutee/arch/arm/user_ta_entry.c:214
     8f8:	b00000a0 	adrp	x0, 15000 <ta_heap+0x7b10>
     8fc:	9113c000 	add	x0, x0, #0x4f0
     900:	39402001 	ldrb	w1, [x0,#8]
     904:	340000e1 	cbz	w1, 920 <__utee_entry+0x78>
/home/xiang/rockpi4-android/optee_os/lib/libutee/arch/arm/user_ta_entry.c:221
     908:	52b00001 	mov	w1, #0x80000000            	// #-2147483648
     90c:	52800400 	mov	w0, #0x20                  	// #32
     910:	94000294 	bl	1360 <TEE_Malloc>
/home/xiang/rockpi4-android/optee_os/lib/libutee/arch/arm/user_ta_entry.c:223
     914:	b5000480 	cbnz	x0, 9a4 <__utee_entry+0xfc>
/home/xiang/rockpi4-android/optee_os/lib/libutee/arch/arm/user_ta_entry.c:224
     918:	129ffe73 	mov	w19, #0xffff000c            	// #-65524
     91c:	14000016 	b	974 <__utee_entry+0xcc>
/home/xiang/rockpi4-android/optee_os/lib/libutee/arch/arm/user_ta_entry.c:215
     920:	52800021 	mov	w1, #0x1                   	// #1
     924:	39002001 	strb	w1, [x0,#8]
init_instance():
/home/xiang/rockpi4-android/optee_os/lib/libutee/arch/arm/user_ta_entry.c:167
     928:	97fffe14 	bl	178 <tahead_get_trace_level>
     92c:	9400278f 	bl	a768 <trace_set_level>
/home/xiang/rockpi4-android/optee_os/lib/libutee/arch/arm/user_ta_entry.c:169
     930:	f9409280 	ldr	x0, [x20,#288]
     934:	f9400001 	ldr	x1, [x0]
     938:	f940ae80 	ldr	x0, [x20,#344]
     93c:	9400232a 	bl	95e4 <malloc_add_pool>
get_memtag_implementation():
/home/xiang/rockpi4-android/optee_os/lib/libutee/arch/arm/user_ta_entry.c:158
     940:	910243a2 	add	x2, x29, #0x90
/home/xiang/rockpi4-android/optee_os/lib/libutee/arch/arm/user_ta_entry.c:160
     944:	f0000041 	adrp	x1, b000 <small_prime+0x140>
     948:	910de821 	add	x1, x1, #0x37a
     94c:	d29fffa0 	mov	x0, #0xfffd                	// #65533
     950:	f2bfffe0 	movk	x0, #0xffff, lsl #16
/home/xiang/rockpi4-android/optee_os/lib/libutee/arch/arm/user_ta_entry.c:158
     954:	b81c0c5f 	str	wzr, [x2,#-64]!
/home/xiang/rockpi4-android/optee_os/lib/libutee/arch/arm/user_ta_entry.c:160
     958:	94000ae0 	bl	34d8 <TEE_GetPropertyAsU32>
init_instance():
/home/xiang/rockpi4-android/optee_os/lib/libutee/arch/arm/user_ta_entry.c:171
     95c:	940004a6 	bl	1bf4 <_TEE_MathAPI_Init>
/home/xiang/rockpi4-android/optee_os/lib/libutee/arch/arm/user_ta_entry.c:172
     960:	94000c97 	bl	3bbc <__utee_tcb_init>
/home/xiang/rockpi4-android/optee_os/lib/libutee/arch/arm/user_ta_entry.c:173
     964:	97ffff5e 	bl	6dc <__utee_call_elf_init_fn>
/home/xiang/rockpi4-android/optee_os/lib/libutee/arch/arm/user_ta_entry.c:174
     968:	97fffdea 	bl	110 <TA_CreateEntryPoint>
     96c:	2a0003f3 	mov	w19, w0
ta_header_add_session():
/home/xiang/rockpi4-android/optee_os/lib/libutee/arch/arm/user_ta_entry.c:217
     970:	34fffcc0 	cbz	w0, 908 <__utee_entry+0x60>
ta_header_save_params():
/home/xiang/rockpi4-android/optee_os/lib/libutee/arch/arm/user_ta_entry.c:187
     974:	f940ba80 	ldr	x0, [x20,#368]
/home/xiang/rockpi4-android/optee_os/lib/libutee/arch/arm/user_ta_entry.c:192
     978:	d2800802 	mov	x2, #0x40                  	// #64
     97c:	52800001 	mov	w1, #0x0                   	// #0
/home/xiang/rockpi4-android/optee_os/lib/libutee/arch/arm/user_ta_entry.c:187
     980:	b900001f 	str	wzr, [x0]
/home/xiang/rockpi4-android/optee_os/lib/libutee/arch/arm/user_ta_entry.c:192
     984:	f940c280 	ldr	x0, [x20,#384]
     988:	940023df 	bl	9904 <memset>
__utee_entry():
/home/xiang/rockpi4-android/optee_os/lib/libutee/arch/arm/user_ta_entry.c:400
     98c:	2a1303e0 	mov	w0, w19
     990:	a94153f3 	ldp	x19, x20, [sp,#16]
     994:	a9425bf5 	ldp	x21, x22, [sp,#32]
     998:	a94363f7 	ldp	x23, x24, [sp,#48]
     99c:	a8c97bfd 	ldp	x29, x30, [sp],#144
     9a0:	d65f03c0 	ret
ta_header_add_session():
/home/xiang/rockpi4-android/optee_os/lib/libutee/arch/arm/user_ta_entry.c:227
     9a4:	b0000061 	adrp	x1, d000 <_DYNAMIC>
     9a8:	910fe021 	add	x1, x1, #0x3f8
     9ac:	f9400422 	ldr	x2, [x1,#8]
     9b0:	f9000c02 	str	x2, [x0,#24]
/home/xiang/rockpi4-android/optee_os/lib/libutee/arch/arm/user_ta_entry.c:225
     9b4:	b9000015 	str	w21, [x0]
/home/xiang/rockpi4-android/optee_os/lib/libutee/arch/arm/user_ta_entry.c:227
     9b8:	a900fc1f 	stp	xzr, xzr, [x0,#8]
     9bc:	f9000040 	str	x0, [x2]
     9c0:	91004000 	add	x0, x0, #0x10
     9c4:	f9000420 	str	x0, [x1,#8]
entry_open_session():
/home/xiang/rockpi4-android/optee_os/lib/libutee/arch/arm/user_ta_entry.c:326
     9c8:	2a1503e0 	mov	w0, w21
     9cc:	97fffedc 	bl	53c <ta_header_get_session>
     9d0:	aa0003f3 	mov	x19, x0
/home/xiang/rockpi4-android/optee_os/lib/libutee/arch/arm/user_ta_entry.c:327
     9d4:	b5000060 	cbnz	x0, 9e0 <__utee_entry+0x138>
entry_close_session():
/home/xiang/rockpi4-android/optee_os/lib/libutee/arch/arm/user_ta_entry.c:348
     9d8:	129fff13 	mov	w19, #0xffff0007            	// #-65529
     9dc:	17ffffe6 	b	974 <__utee_entry+0xcc>
entry_open_session():
/home/xiang/rockpi4-android/optee_os/lib/libutee/arch/arm/user_ta_entry.c:330
     9e0:	910143b6 	add	x22, x29, #0x50
     9e4:	aa1703e2 	mov	x2, x23
     9e8:	910133a1 	add	x1, x29, #0x4c
     9ec:	aa1603e0 	mov	x0, x22
     9f0:	97fffefb 	bl	5dc <from_utee_params>
/home/xiang/rockpi4-android/optee_os/lib/libutee/arch/arm/user_ta_entry.c:331
     9f4:	b9404fb8 	ldr	w24, [x29,#76]
ta_header_save_params():
/home/xiang/rockpi4-android/optee_os/lib/libutee/arch/arm/user_ta_entry.c:187
     9f8:	f940ba80 	ldr	x0, [x20,#368]
/home/xiang/rockpi4-android/optee_os/lib/libutee/arch/arm/user_ta_entry.c:190
     9fc:	d2800802 	mov	x2, #0x40                  	// #64
     a00:	aa1603e1 	mov	x1, x22
/home/xiang/rockpi4-android/optee_os/lib/libutee/arch/arm/user_ta_entry.c:187
     a04:	b9000018 	str	w24, [x0]
/home/xiang/rockpi4-android/optee_os/lib/libutee/arch/arm/user_ta_entry.c:190
     a08:	f940c280 	ldr	x0, [x20,#384]
     a0c:	97fffd85 	bl	20 <memcpy>
entry_open_session():
/home/xiang/rockpi4-android/optee_os/lib/libutee/arch/arm/user_ta_entry.c:333
     a10:	91002262 	add	x2, x19, #0x8
     a14:	aa1603e1 	mov	x1, x22
     a18:	2a1803e0 	mov	w0, w24
     a1c:	97fffdc0 	bl	11c <TA_OpenSessionEntryPoint>
/home/xiang/rockpi4-android/optee_os/lib/libutee/arch/arm/user_ta_entry.c:336
     a20:	b9404fa1 	ldr	w1, [x29,#76]
/home/xiang/rockpi4-android/optee_os/lib/libutee/arch/arm/user_ta_entry.c:333
     a24:	2a0003f3 	mov	w19, w0
/home/xiang/rockpi4-android/optee_os/lib/libutee/arch/arm/user_ta_entry.c:336
     a28:	aa1603e2 	mov	x2, x22
     a2c:	aa1703e0 	mov	x0, x23
     a30:	97fffecd 	bl	564 <to_utee_params>
/home/xiang/rockpi4-android/optee_os/lib/libutee/arch/arm/user_ta_entry.c:338
     a34:	34fffa13 	cbz	w19, 974 <__utee_entry+0xcc>
/home/xiang/rockpi4-android/optee_os/lib/libutee/arch/arm/user_ta_entry.c:339
     a38:	2a1503e0 	mov	w0, w21
     a3c:	97ffff75 	bl	810 <ta_header_remove_session>
     a40:	17ffffcd 	b	974 <__utee_entry+0xcc>
entry_close_session():
/home/xiang/rockpi4-android/optee_os/lib/libutee/arch/arm/user_ta_entry.c:345
     a44:	2a0103e0 	mov	w0, w1
     a48:	97fffebd 	bl	53c <ta_header_get_session>
/home/xiang/rockpi4-android/optee_os/lib/libutee/arch/arm/user_ta_entry.c:347
     a4c:	b4fffc60 	cbz	x0, 9d8 <__utee_entry+0x130>
/home/xiang/rockpi4-android/optee_os/lib/libutee/arch/arm/user_ta_entry.c:350
     a50:	f9400400 	ldr	x0, [x0,#8]
/home/xiang/rockpi4-android/optee_os/lib/libutee/arch/arm/user_ta_entry.c:353
     a54:	52800013 	mov	w19, #0x0                   	// #0
/home/xiang/rockpi4-android/optee_os/lib/libutee/arch/arm/user_ta_entry.c:350
     a58:	97fffdb5 	bl	12c <TA_CloseSessionEntryPoint>
/home/xiang/rockpi4-android/optee_os/lib/libutee/arch/arm/user_ta_entry.c:352
     a5c:	2a1503e0 	mov	w0, w21
     a60:	97ffff6c 	bl	810 <ta_header_remove_session>
     a64:	17ffffc4 	b	974 <__utee_entry+0xcc>
entry_invoke_command():
/home/xiang/rockpi4-android/optee_os/lib/libutee/arch/arm/user_ta_entry.c:362
     a68:	2a0103e0 	mov	w0, w1
     a6c:	97fffeb4 	bl	53c <ta_header_get_session>
     a70:	aa0003f3 	mov	x19, x0
/home/xiang/rockpi4-android/optee_os/lib/libutee/arch/arm/user_ta_entry.c:364
     a74:	b4fffb20 	cbz	x0, 9d8 <__utee_entry+0x130>
/home/xiang/rockpi4-android/optee_os/lib/libutee/arch/arm/user_ta_entry.c:367
     a78:	910143b5 	add	x21, x29, #0x50
     a7c:	aa0303f8 	mov	x24, x3
     a80:	aa1703e2 	mov	x2, x23
     a84:	910133a1 	add	x1, x29, #0x4c
     a88:	aa1503e0 	mov	x0, x21
     a8c:	97fffed4 	bl	5dc <from_utee_params>
ta_header_save_params():
/home/xiang/rockpi4-android/optee_os/lib/libutee/arch/arm/user_ta_entry.c:187
     a90:	f940ba80 	ldr	x0, [x20,#368]
/home/xiang/rockpi4-android/optee_os/lib/libutee/arch/arm/user_ta_entry.c:190
     a94:	aa1503e1 	mov	x1, x21
entry_invoke_command():
/home/xiang/rockpi4-android/optee_os/lib/libutee/arch/arm/user_ta_entry.c:368
     a98:	b9404fb6 	ldr	w22, [x29,#76]
ta_header_save_params():
/home/xiang/rockpi4-android/optee_os/lib/libutee/arch/arm/user_ta_entry.c:190
     a9c:	d2800802 	mov	x2, #0x40                  	// #64
/home/xiang/rockpi4-android/optee_os/lib/libutee/arch/arm/user_ta_entry.c:187
     aa0:	b9000016 	str	w22, [x0]
/home/xiang/rockpi4-android/optee_os/lib/libutee/arch/arm/user_ta_entry.c:190
     aa4:	f940c280 	ldr	x0, [x20,#384]
     aa8:	97fffd5e 	bl	20 <memcpy>
entry_invoke_command():
/home/xiang/rockpi4-android/optee_os/lib/libutee/arch/arm/user_ta_entry.c:370
     aac:	f9400660 	ldr	x0, [x19,#8]
     ab0:	2a1603e2 	mov	w2, w22
     ab4:	2a1803e1 	mov	w1, w24
     ab8:	aa1503e3 	mov	x3, x21
     abc:	97fffd9d 	bl	130 <TA_InvokeCommandEntryPoint>
     ac0:	2a0003f3 	mov	w19, w0
/home/xiang/rockpi4-android/optee_os/lib/libutee/arch/arm/user_ta_entry.c:373
     ac4:	b9404fa1 	ldr	w1, [x29,#76]
     ac8:	aa1503e2 	mov	x2, x21
     acc:	aa1703e0 	mov	x0, x23
     ad0:	97fffea5 	bl	564 <to_utee_params>
     ad4:	17ffffa8 	b	974 <__utee_entry+0xcc>

0000000000000ad8 <abort>:
abort():
/home/xiang/rockpi4-android/optee_os/lib/libutee/abort.c:12
     ad8:	a9bf7bfd 	stp	x29, x30, [sp,#-16]!
/home/xiang/rockpi4-android/optee_os/lib/libutee/abort.c:13
     adc:	f0000040 	adrp	x0, b000 <small_prime+0x140>
     ae0:	910ec000 	add	x0, x0, #0x3b0
/home/xiang/rockpi4-android/optee_os/lib/libutee/abort.c:12
     ae4:	910003fd 	mov	x29, sp
/home/xiang/rockpi4-android/optee_os/lib/libutee/abort.c:13
     ae8:	94000043 	bl	bf4 <puts>
/home/xiang/rockpi4-android/optee_os/lib/libutee/abort.c:14
     aec:	d2800000 	mov	x0, #0x0                   	// #0
     af0:	97fffda4 	bl	180 <_utee_panic>
     af4:	14000000 	b	af4 <abort+0x1c>

0000000000000af8 <trace_ext_puts>:
trace_ext_puts():
/home/xiang/rockpi4-android/optee_os/lib/libutee/trace_ext.c:22
     af8:	a9be7bfd 	stp	x29, x30, [sp,#-32]!
     afc:	910003fd 	mov	x29, sp
     b00:	f9000bf3 	str	x19, [sp,#16]
     b04:	aa0003f3 	mov	x19, x0
/home/xiang/rockpi4-android/optee_os/lib/libutee/trace_ext.c:26
     b08:	94002392 	bl	9950 <strlen>
     b0c:	aa0003e1 	mov	x1, x0
     b10:	aa1303e0 	mov	x0, x19
/home/xiang/rockpi4-android/optee_os/lib/libutee/trace_ext.c:28
     b14:	f9400bf3 	ldr	x19, [sp,#16]
     b18:	a8c27bfd 	ldp	x29, x30, [sp],#32
/home/xiang/rockpi4-android/optee_os/lib/libutee/trace_ext.c:26
     b1c:	17fffd9f 	b	198 <_utee_log>

0000000000000b20 <trace_ext_get_thread_id>:
trace_ext_get_thread_id():
/home/xiang/rockpi4-android/optee_os/lib/libutee/trace_ext.c:33
     b20:	12800000 	mov	w0, #0xffffffff            	// #-1
     b24:	d65f03c0 	ret

0000000000000b28 <printf>:
printf():
/home/xiang/rockpi4-android/optee_os/lib/libutee/trace_ext.c:41
     b28:	d10883ff 	sub	sp, sp, #0x220
     b2c:	a9007bfd 	stp	x29, x30, [sp]
     b30:	910003fd 	mov	x29, sp
     b34:	a90153f3 	stp	x19, x20, [sp,#16]
     b38:	aa0003f3 	mov	x19, x0
     b3c:	910403a0 	add	x0, x29, #0x100
     b40:	a91e8ba1 	stp	x1, x2, [x29,#488]
     b44:	a91f93a3 	stp	x3, x4, [x29,#504]
     b48:	f90107a5 	str	x5, [x29,#520]
     b4c:	f9010ba6 	str	x6, [x29,#528]
     b50:	f9010fa7 	str	x7, [x29,#536]
     b54:	3d801800 	str	q0, [x0,#96]
     b58:	3d801c01 	str	q1, [x0,#112]
     b5c:	3d802002 	str	q2, [x0,#128]
     b60:	3d802403 	str	q3, [x0,#144]
     b64:	3d802804 	str	q4, [x0,#160]
     b68:	3d802c05 	str	q5, [x0,#176]
     b6c:	3d803006 	str	q6, [x0,#192]
     b70:	3d803407 	str	q7, [x0,#208]
/home/xiang/rockpi4-android/optee_os/lib/libutee/trace_ext.c:46
     b74:	94002705 	bl	a788 <trace_get_level>
     b78:	7100001f 	cmp	w0, #0x0
     b7c:	5400038d 	b.le	bec <printf+0xc4>
/home/xiang/rockpi4-android/optee_os/lib/libutee/trace_ext.c:49
     b80:	910883a0 	add	x0, x29, #0x220
     b84:	a90403a0 	stp	x0, x0, [x29,#64]
     b88:	910783a0 	add	x0, x29, #0x1e0
     b8c:	f9002ba0 	str	x0, [x29,#80]
     b90:	128006e0 	mov	w0, #0xffffffc8            	// #-56
     b94:	b9005ba0 	str	w0, [x29,#88]
     b98:	12800fe0 	mov	w0, #0xffffff80            	// #-128
     b9c:	b9005fa0 	str	w0, [x29,#92]
/home/xiang/rockpi4-android/optee_os/lib/libutee/trace_ext.c:50
     ba0:	a94407a0 	ldp	x0, x1, [x29,#64]
     ba4:	a90207a0 	stp	x0, x1, [x29,#32]
     ba8:	a94507a0 	ldp	x0, x1, [x29,#80]
     bac:	910183b4 	add	x20, x29, #0x60
     bb0:	a90307a0 	stp	x0, x1, [x29,#48]
     bb4:	aa1303e2 	mov	x2, x19
     bb8:	910083a3 	add	x3, x29, #0x20
     bbc:	d2802001 	mov	x1, #0x100                 	// #256
     bc0:	aa1403e0 	mov	x0, x20
     bc4:	94002328 	bl	9864 <vsnprintf>
     bc8:	2a0003f3 	mov	w19, w0
/home/xiang/rockpi4-android/optee_os/lib/libutee/trace_ext.c:53
     bcc:	37f80060 	tbnz	w0, #31, bd8 <printf+0xb0>
/home/xiang/rockpi4-android/optee_os/lib/libutee/trace_ext.c:56
     bd0:	aa1403e0 	mov	x0, x20
     bd4:	97ffffc9 	bl	af8 <trace_ext_puts>
/home/xiang/rockpi4-android/optee_os/lib/libutee/trace_ext.c:59
     bd8:	2a1303e0 	mov	w0, w19
     bdc:	a94153f3 	ldp	x19, x20, [sp,#16]
     be0:	a9407bfd 	ldp	x29, x30, [sp]
     be4:	910883ff 	add	sp, sp, #0x220
     be8:	d65f03c0 	ret
/home/xiang/rockpi4-android/optee_os/lib/libutee/trace_ext.c:47
     bec:	52800013 	mov	w19, #0x0                   	// #0
     bf0:	17fffffa 	b	bd8 <printf+0xb0>

0000000000000bf4 <puts>:
puts():
/home/xiang/rockpi4-android/optee_os/lib/libutee/trace_ext.c:62
     bf4:	a9be7bfd 	stp	x29, x30, [sp,#-32]!
     bf8:	910003fd 	mov	x29, sp
     bfc:	f9000bf3 	str	x19, [sp,#16]
     c00:	aa0003f3 	mov	x19, x0
/home/xiang/rockpi4-android/optee_os/lib/libutee/trace_ext.c:63
     c04:	940026e1 	bl	a788 <trace_get_level>
     c08:	7100001f 	cmp	w0, #0x0
     c0c:	540000cd 	b.le	c24 <puts+0x30>
/home/xiang/rockpi4-android/optee_os/lib/libutee/trace_ext.c:64
     c10:	aa1303e0 	mov	x0, x19
     c14:	97ffffb9 	bl	af8 <trace_ext_puts>
/home/xiang/rockpi4-android/optee_os/lib/libutee/trace_ext.c:65
     c18:	f0000040 	adrp	x0, b000 <small_prime+0x140>
     c1c:	91292c00 	add	x0, x0, #0xa4b
     c20:	97ffffb6 	bl	af8 <trace_ext_puts>
/home/xiang/rockpi4-android/optee_os/lib/libutee/trace_ext.c:68
     c24:	52800020 	mov	w0, #0x1                   	// #1
     c28:	f9400bf3 	ldr	x19, [sp,#16]
     c2c:	a8c27bfd 	ldp	x29, x30, [sp],#32
     c30:	d65f03c0 	ret

0000000000000c34 <putchar>:
putchar():
/home/xiang/rockpi4-android/optee_os/lib/libutee/trace_ext.c:71
     c34:	a9bd7bfd 	stp	x29, x30, [sp,#-48]!
     c38:	910003fd 	mov	x29, sp
     c3c:	f9000bf3 	str	x19, [sp,#16]
     c40:	2a0003f3 	mov	w19, w0
/home/xiang/rockpi4-android/optee_os/lib/libutee/trace_ext.c:72
     c44:	3900a3a0 	strb	w0, [x29,#40]
     c48:	3900a7bf 	strb	wzr, [x29,#41]
/home/xiang/rockpi4-android/optee_os/lib/libutee/trace_ext.c:74
     c4c:	940026cf 	bl	a788 <trace_get_level>
     c50:	7100001f 	cmp	w0, #0x0
     c54:	5400006d 	b.le	c60 <putchar+0x2c>
/home/xiang/rockpi4-android/optee_os/lib/libutee/trace_ext.c:75
     c58:	9100a3a0 	add	x0, x29, #0x28
     c5c:	97ffffa7 	bl	af8 <trace_ext_puts>
/home/xiang/rockpi4-android/optee_os/lib/libutee/trace_ext.c:82
     c60:	12001e60 	and	w0, w19, #0xff
     c64:	f9400bf3 	ldr	x19, [sp,#16]
     c68:	a8c37bfd 	ldp	x29, x30, [sp],#48
     c6c:	d65f03c0 	ret

0000000000000c70 <update_out_param>:
update_out_param():
/home/xiang/rockpi4-android/optee_os/lib/libutee/tee_api.c:121
     c70:	a9bb7bfd 	stp	x29, x30, [sp,#-80]!
     c74:	910003fd 	mov	x29, sp
     c78:	a90153f3 	stp	x19, x20, [sp,#16]
/home/xiang/rockpi4-android/optee_os/lib/libutee/tee_api.c:123
     c7c:	aa0203f4 	mov	x20, x2
/home/xiang/rockpi4-android/optee_os/lib/libutee/tee_api.c:121
     c80:	a90363f7 	stp	x23, x24, [sp,#48]
     c84:	aa0003f3 	mov	x19, x0
/home/xiang/rockpi4-android/optee_os/lib/libutee/tee_api.c:129
     c88:	d0000058 	adrp	x24, a000 <kprintf.constprop.0+0x540>
     c8c:	91320318 	add	x24, x24, #0xc80
/home/xiang/rockpi4-android/optee_os/lib/libutee/tee_api.c:123
     c90:	f8408697 	ldr	x23, [x20],#8
/home/xiang/rockpi4-android/optee_os/lib/libutee/tee_api.c:121
     c94:	f90023f9 	str	x25, [sp,#64]
     c98:	aa0103f9 	mov	x25, x1
     c9c:	a9025bf5 	stp	x21, x22, [sp,#32]
/home/xiang/rockpi4-android/optee_os/lib/libutee/tee_api.c:125
     ca0:	d2800015 	mov	x21, #0x0                   	// #0
/home/xiang/rockpi4-android/optee_os/lib/libutee/tee_api.c:129
     ca4:	531e76a1 	lsl	w1, w21, #2
/home/xiang/rockpi4-android/optee_os/lib/libutee/tee_api.c:127
     ca8:	f9400696 	ldr	x22, [x20,#8]
/home/xiang/rockpi4-android/optee_os/lib/libutee/tee_api.c:129
     cac:	1ac126e0 	lsr	w0, w23, w1
     cb0:	12000c00 	and	w0, w0, #0xf
     cb4:	51000800 	sub	w0, w0, #0x2
     cb8:	7100141f 	cmp	w0, #0x5
     cbc:	540000e8 	b.hi	cd8 <update_out_param+0x68>
     cc0:	38604b00 	ldrb	w0, [x24,w0,uxtw]
     cc4:	10000061 	adr	x1, cd0 <update_out_param+0x60>
     cc8:	8b208820 	add	x0, x1, w0, sxtb #2
     ccc:	d61f0000 	br	x0
/home/xiang/rockpi4-android/optee_os/lib/libutee/tee_api.c:132
     cd0:	f9400280 	ldr	x0, [x20]
/home/xiang/rockpi4-android/optee_os/lib/libutee/tee_api.c:133
     cd4:	29005a60 	stp	w0, w22, [x19]
/home/xiang/rockpi4-android/optee_os/lib/libutee/tee_api.c:125 (discriminator 2)
     cd8:	910006b5 	add	x21, x21, #0x1
     cdc:	91004294 	add	x20, x20, #0x10
     ce0:	91004273 	add	x19, x19, #0x10
     ce4:	f10012bf 	cmp	x21, #0x4
     ce8:	54fffde1 	b.ne	ca4 <update_out_param+0x34>
/home/xiang/rockpi4-android/optee_os/lib/libutee/tee_api.c:146
     cec:	a94153f3 	ldp	x19, x20, [sp,#16]
     cf0:	a9425bf5 	ldp	x21, x22, [sp,#32]
     cf4:	a94363f7 	ldp	x23, x24, [sp,#48]
     cf8:	f94023f9 	ldr	x25, [sp,#64]
     cfc:	a8c57bfd 	ldp	x29, x30, [sp],#80
     d00:	d65f03c0 	ret
/home/xiang/rockpi4-android/optee_os/lib/libutee/tee_api.c:137
     d04:	f8757b21 	ldr	x1, [x25,x21,lsl #3]
     d08:	b40000c1 	cbz	x1, d20 <update_out_param+0xb0>
/home/xiang/rockpi4-android/optee_os/lib/libutee/tee_api.c:139
     d0c:	b9400a62 	ldr	w2, [x19,#8]
/home/xiang/rockpi4-android/optee_os/lib/libutee/tee_api.c:138
     d10:	f9400260 	ldr	x0, [x19]
/home/xiang/rockpi4-android/optee_os/lib/libutee/tee_api.c:139
     d14:	eb16005f 	cmp	x2, x22
/home/xiang/rockpi4-android/optee_os/lib/libutee/tee_api.c:138
     d18:	9a969042 	csel	x2, x2, x22, ls
     d1c:	97fffcc1 	bl	20 <memcpy>
/home/xiang/rockpi4-android/optee_os/lib/libutee/tee_api.c:140
     d20:	b9000a76 	str	w22, [x19,#8]
/home/xiang/rockpi4-android/optee_os/lib/libutee/tee_api.c:141
     d24:	17ffffed 	b	cd8 <update_out_param+0x68>

0000000000000d28 <TEE_CloseTASession>:
TEE_CloseTASession():
/home/xiang/rockpi4-android/optee_os/lib/libutee/tee_api.c:196
     d28:	b4000120 	cbz	x0, d4c <TEE_CloseTASession+0x24>
/home/xiang/rockpi4-android/optee_os/lib/libutee/tee_api.c:195
     d2c:	a9bf7bfd 	stp	x29, x30, [sp,#-16]!
     d30:	910003fd 	mov	x29, sp
/home/xiang/rockpi4-android/optee_os/lib/libutee/tee_api.c:197
     d34:	97fffd28 	bl	1d4 <_utee_close_ta_session>
/home/xiang/rockpi4-android/optee_os/lib/libutee/tee_api.c:199
     d38:	34000060 	cbz	w0, d44 <TEE_CloseTASession+0x1c>
/home/xiang/rockpi4-android/optee_os/lib/libutee/tee_api.c:202
     d3c:	a8c17bfd 	ldp	x29, x30, [sp],#16
/home/xiang/rockpi4-android/optee_os/lib/libutee/tee_api.c:200
     d40:	14000816 	b	2d98 <TEE_Panic>
/home/xiang/rockpi4-android/optee_os/lib/libutee/tee_api.c:202
     d44:	a8c17bfd 	ldp	x29, x30, [sp],#16
     d48:	d65f03c0 	ret
     d4c:	d65f03c0 	ret

0000000000000d50 <TEE_GetCancellationFlag>:
TEE_GetCancellationFlag():
/home/xiang/rockpi4-android/optee_os/lib/libutee/tee_api.c:257
     d50:	a9be7bfd 	stp	x29, x30, [sp,#-32]!
     d54:	910003fd 	mov	x29, sp
/home/xiang/rockpi4-android/optee_os/lib/libutee/tee_api.c:259
     d58:	910073a0 	add	x0, x29, #0x1c
     d5c:	97fffd24 	bl	1ec <_utee_get_cancellation_flag>
/home/xiang/rockpi4-android/optee_os/lib/libutee/tee_api.c:261
     d60:	34000040 	cbz	w0, d68 <TEE_GetCancellationFlag+0x18>
/home/xiang/rockpi4-android/optee_os/lib/libutee/tee_api.c:262
     d64:	b9001fbf 	str	wzr, [x29,#28]
/home/xiang/rockpi4-android/optee_os/lib/libutee/tee_api.c:263
     d68:	b9401fa0 	ldr	w0, [x29,#28]
/home/xiang/rockpi4-android/optee_os/lib/libutee/tee_api.c:264
     d6c:	a8c27bfd 	ldp	x29, x30, [sp],#32
/home/xiang/rockpi4-android/optee_os/lib/libutee/tee_api.c:263
     d70:	7100001f 	cmp	w0, #0x0
/home/xiang/rockpi4-android/optee_os/lib/libutee/tee_api.c:264
     d74:	1a9f07e0 	cset	w0, ne
     d78:	d65f03c0 	ret

0000000000000d7c <TEE_UnmaskCancellation>:
TEE_UnmaskCancellation():
/home/xiang/rockpi4-android/optee_os/lib/libutee/tee_api.c:267
     d7c:	a9be7bfd 	stp	x29, x30, [sp,#-32]!
     d80:	910003fd 	mov	x29, sp
/home/xiang/rockpi4-android/optee_os/lib/libutee/tee_api.c:269
     d84:	910073a0 	add	x0, x29, #0x1c
     d88:	97fffd1f 	bl	204 <_utee_unmask_cancellation>
/home/xiang/rockpi4-android/optee_os/lib/libutee/tee_api.c:271
     d8c:	34000040 	cbz	w0, d94 <TEE_UnmaskCancellation+0x18>
/home/xiang/rockpi4-android/optee_os/lib/libutee/tee_api.c:272
     d90:	94000802 	bl	2d98 <TEE_Panic>
/home/xiang/rockpi4-android/optee_os/lib/libutee/tee_api.c:273
     d94:	b9401fa0 	ldr	w0, [x29,#28]
/home/xiang/rockpi4-android/optee_os/lib/libutee/tee_api.c:274
     d98:	a8c27bfd 	ldp	x29, x30, [sp],#32
/home/xiang/rockpi4-android/optee_os/lib/libutee/tee_api.c:273
     d9c:	7100001f 	cmp	w0, #0x0
/home/xiang/rockpi4-android/optee_os/lib/libutee/tee_api.c:274
     da0:	1a9f07e0 	cset	w0, ne
     da4:	d65f03c0 	ret

0000000000000da8 <TEE_MaskCancellation>:
TEE_MaskCancellation():
/home/xiang/rockpi4-android/optee_os/lib/libutee/tee_api.c:277
     da8:	a9be7bfd 	stp	x29, x30, [sp,#-32]!
     dac:	910003fd 	mov	x29, sp
/home/xiang/rockpi4-android/optee_os/lib/libutee/tee_api.c:279
     db0:	910073a0 	add	x0, x29, #0x1c
     db4:	97fffd17 	bl	210 <_utee_mask_cancellation>
/home/xiang/rockpi4-android/optee_os/lib/libutee/tee_api.c:281
     db8:	34000040 	cbz	w0, dc0 <TEE_MaskCancellation+0x18>
/home/xiang/rockpi4-android/optee_os/lib/libutee/tee_api.c:282
     dbc:	940007f7 	bl	2d98 <TEE_Panic>
/home/xiang/rockpi4-android/optee_os/lib/libutee/tee_api.c:283
     dc0:	b9401fa0 	ldr	w0, [x29,#28]
/home/xiang/rockpi4-android/optee_os/lib/libutee/tee_api.c:284
     dc4:	a8c27bfd 	ldp	x29, x30, [sp],#32
/home/xiang/rockpi4-android/optee_os/lib/libutee/tee_api.c:283
     dc8:	7100001f 	cmp	w0, #0x0
/home/xiang/rockpi4-android/optee_os/lib/libutee/tee_api.c:284
     dcc:	1a9f07e0 	cset	w0, ne
     dd0:	d65f03c0 	ret

0000000000000dd4 <TEE_CheckMemoryAccessRights>:
TEE_CheckMemoryAccessRights():
/home/xiang/rockpi4-android/optee_os/lib/libutee/tee_api.c:293
     dd4:	34000062 	cbz	w2, de0 <TEE_CheckMemoryAccessRights+0xc>
/home/xiang/rockpi4-android/optee_os/lib/libutee/tee_api.c:297
     dd8:	2a0203e2 	mov	w2, w2
     ddc:	17fffd07 	b	1f8 <_utee_check_access_rights>
/home/xiang/rockpi4-android/optee_os/lib/libutee/tee_api.c:309
     de0:	52800000 	mov	w0, #0x0                   	// #0
     de4:	d65f03c0 	ret

0000000000000de8 <copy_param>:
copy_param():
/home/xiang/rockpi4-android/optee_os/lib/libutee/tee_api.c:29
     de8:	a9b87bfd 	stp	x29, x30, [sp,#-128]!
     dec:	910003fd 	mov	x29, sp
     df0:	a9046bf9 	stp	x25, x26, [sp,#64]
     df4:	aa0303f9 	mov	x25, x3
     df8:	a90363f7 	stp	x23, x24, [sp,#48]
/home/xiang/rockpi4-android/optee_os/lib/libutee/tee_api.c:34
     dfc:	910203a3 	add	x3, x29, #0x80
/home/xiang/rockpi4-android/optee_os/lib/libutee/tee_api.c:29
     e00:	aa0403f8 	mov	x24, x4
     e04:	a90153f3 	stp	x19, x20, [sp,#16]
     e08:	a9025bf5 	stp	x21, x22, [sp,#32]
     e0c:	aa0003f3 	mov	x19, x0
     e10:	a90573fb 	stp	x27, x28, [sp,#80]
     e14:	2a0103f6 	mov	w22, w1
/home/xiang/rockpi4-android/optee_os/lib/libutee/tee_api.c:45
     e18:	f900033f 	str	xzr, [x25]
/home/xiang/rockpi4-android/optee_os/lib/libutee/tee_api.c:29
     e1c:	aa0503f7 	mov	x23, x5
     e20:	aa0203f4 	mov	x20, x2
/home/xiang/rockpi4-android/optee_os/lib/libutee/tee_api.c:46
     e24:	aa0203fc 	mov	x28, x2
/home/xiang/rockpi4-android/optee_os/lib/libutee/tee_api.c:34
     e28:	b81f8c7f 	str	wzr, [x3,#-8]!
/home/xiang/rockpi4-android/optee_os/lib/libutee/tee_api.c:32
     e2c:	d280001b 	mov	x27, #0x0                   	// #0
/home/xiang/rockpi4-android/optee_os/lib/libutee/tee_api.c:47
     e30:	d2800015 	mov	x21, #0x0                   	// #0
/home/xiang/rockpi4-android/optee_os/lib/libutee/tee_api.c:66
     e34:	52800024 	mov	w4, #0x1                   	// #1
/home/xiang/rockpi4-android/optee_os/lib/libutee/tee_api.c:46
     e38:	f900031f 	str	xzr, [x24]
/home/xiang/rockpi4-android/optee_os/lib/libutee/tee_api.c:49
     e3c:	531e76a1 	lsl	w1, w21, #2
/home/xiang/rockpi4-android/optee_os/lib/libutee/tee_api.c:48
     e40:	f8357aff 	str	xzr, [x23,x21,lsl #3]
/home/xiang/rockpi4-android/optee_os/lib/libutee/tee_api.c:49
     e44:	1ac126c0 	lsr	w0, w22, w1
     e48:	12000c00 	and	w0, w0, #0xf
     e4c:	51001400 	sub	w0, w0, #0x5
     e50:	7100081f 	cmp	w0, #0x2
     e54:	54000248 	b.hi	e9c <copy_param+0xb4>
/home/xiang/rockpi4-android/optee_os/lib/libutee/tee_api.c:54
     e58:	b9400b82 	ldr	w2, [x28,#8]
/home/xiang/rockpi4-android/optee_os/lib/libutee/tee_api.c:53
     e5c:	f9400381 	ldr	x1, [x28]
/home/xiang/rockpi4-android/optee_os/lib/libutee/tee_api.c:54
     e60:	2a0203fa 	mov	w26, w2
/home/xiang/rockpi4-android/optee_os/lib/libutee/tee_api.c:64
     e64:	f100003f 	cmp	x1, #0x0
     e68:	fa401b44 	ccmp	x26, #0x0, #0x4, ne
     e6c:	54000180 	b.eq	e9c <copy_param+0xb4>
     e70:	b90067a4 	str	w4, [x29,#100]
/home/xiang/rockpi4-android/optee_os/lib/libutee/tee_api.c:65 (discriminator 1)
     e74:	52800020 	mov	w0, #0x1                   	// #1
     e78:	f90037a3 	str	x3, [x29,#104]
     e7c:	97ffffd6 	bl	dd4 <TEE_CheckMemoryAccessRights>
/home/xiang/rockpi4-android/optee_os/lib/libutee/tee_api.c:64 (discriminator 1)
     e80:	b94067a4 	ldr	w4, [x29,#100]
     e84:	f94037a3 	ldr	x3, [x29,#104]
     e88:	350000a0 	cbnz	w0, e9c <copy_param+0xb4>
/home/xiang/rockpi4-android/optee_os/lib/libutee/tee_api.c:67
     e8c:	91003f5a 	add	x26, x26, #0xf
/home/xiang/rockpi4-android/optee_os/lib/libutee/tee_api.c:66
     e90:	38236aa4 	strb	w4, [x21,x3]
/home/xiang/rockpi4-android/optee_os/lib/libutee/tee_api.c:67
     e94:	927cef5a 	and	x26, x26, #0xfffffffffffffff0
     e98:	8b1a037b 	add	x27, x27, x26
/home/xiang/rockpi4-android/optee_os/lib/libutee/tee_api.c:47 (discriminator 2)
     e9c:	910006b5 	add	x21, x21, #0x1
     ea0:	9100439c 	add	x28, x28, #0x10
     ea4:	f10012bf 	cmp	x21, #0x4
     ea8:	54fffca1 	b.ne	e3c <copy_param+0x54>
/home/xiang/rockpi4-android/optee_os/lib/libutee/tee_api.c:75
     eac:	b400031b 	cbz	x27, f0c <copy_param+0x124>
/home/xiang/rockpi4-android/optee_os/lib/libutee/tee_api.c:76
     eb0:	2a1503e1 	mov	w1, w21
     eb4:	aa1b03e0 	mov	x0, x27
     eb8:	94000ad7 	bl	3a14 <tee_map_zi>
     ebc:	aa0003e3 	mov	x3, x0
/home/xiang/rockpi4-android/optee_os/lib/libutee/tee_api.c:77
     ec0:	b40007a0 	cbz	x0, fb4 <copy_param+0x1cc>
/home/xiang/rockpi4-android/optee_os/lib/libutee/tee_api.c:79
     ec4:	f9000320 	str	x0, [x25]
/home/xiang/rockpi4-android/optee_os/lib/libutee/tee_api.c:80
     ec8:	f900031b 	str	x27, [x24]
/home/xiang/rockpi4-android/optee_os/lib/libutee/tee_api.c:85
     ecc:	d0000059 	adrp	x25, a000 <kprintf.constprop.0+0x540>
/home/xiang/rockpi4-android/optee_os/lib/libutee/tee_api.c:95
     ed0:	9101e3bb 	add	x27, x29, #0x78
/home/xiang/rockpi4-android/optee_os/lib/libutee/tee_api.c:85
     ed4:	91322339 	add	x25, x25, #0xc88
/home/xiang/rockpi4-android/optee_os/lib/libutee/tee_api.c:83
     ed8:	2a1603e0 	mov	w0, w22
/home/xiang/rockpi4-android/optee_os/lib/libutee/tee_api.c:84
     edc:	d2800015 	mov	x21, #0x0                   	// #0
/home/xiang/rockpi4-android/optee_os/lib/libutee/tee_api.c:83
     ee0:	f8008660 	str	x0, [x19],#8
/home/xiang/rockpi4-android/optee_os/lib/libutee/tee_api.c:85
     ee4:	531e76a1 	lsl	w1, w21, #2
     ee8:	1ac126c0 	lsr	w0, w22, w1
     eec:	12000c00 	and	w0, w0, #0xf
     ef0:	51000401 	sub	w1, w0, #0x1
     ef4:	7100183f 	cmp	w1, #0x6
     ef8:	540005a8 	b.hi	fac <copy_param+0x1c4>
     efc:	38614b21 	ldrb	w1, [x25,w1,uxtw]
     f00:	10000062 	adr	x2, f0c <copy_param+0x124>
     f04:	8b218841 	add	x1, x2, w1, sxtb #2
     f08:	d61f0020 	br	x1
/home/xiang/rockpi4-android/optee_os/lib/libutee/tee_api.c:31
     f0c:	d2800003 	mov	x3, #0x0                   	// #0
     f10:	17ffffef 	b	ecc <copy_param+0xe4>
/home/xiang/rockpi4-android/optee_os/lib/libutee/tee_api.c:88
     f14:	b9400280 	ldr	w0, [x20]
     f18:	f9000260 	str	x0, [x19]
/home/xiang/rockpi4-android/optee_os/lib/libutee/tee_api.c:89
     f1c:	b9400680 	ldr	w0, [x20,#4]
     f20:	f9000660 	str	x0, [x19,#8]
/home/xiang/rockpi4-android/optee_os/lib/libutee/tee_api.c:84 (discriminator 2)
     f24:	910006b5 	add	x21, x21, #0x1
     f28:	91004294 	add	x20, x20, #0x10
     f2c:	91004273 	add	x19, x19, #0x10
     f30:	f10012bf 	cmp	x21, #0x4
     f34:	54fffd81 	b.ne	ee4 <copy_param+0xfc>
/home/xiang/rockpi4-android/optee_os/lib/libutee/tee_api.c:115
     f38:	52800000 	mov	w0, #0x0                   	// #0
/home/xiang/rockpi4-android/optee_os/lib/libutee/tee_api.c:116
     f3c:	a94153f3 	ldp	x19, x20, [sp,#16]
     f40:	a9425bf5 	ldp	x21, x22, [sp,#32]
     f44:	a94363f7 	ldp	x23, x24, [sp,#48]
     f48:	a9446bf9 	ldp	x25, x26, [sp,#64]
     f4c:	a94573fb 	ldp	x27, x28, [sp,#80]
     f50:	a8c87bfd 	ldp	x29, x30, [sp],#128
     f54:	d65f03c0 	ret
/home/xiang/rockpi4-android/optee_os/lib/libutee/tee_api.c:95
     f58:	387b6aa1 	ldrb	w1, [x21,x27]
/home/xiang/rockpi4-android/optee_os/lib/libutee/tee_api.c:94
     f5c:	b9400a9a 	ldr	w26, [x20,#8]
/home/xiang/rockpi4-android/optee_os/lib/libutee/tee_api.c:95
     f60:	340001c1 	cbz	w1, f98 <copy_param+0x1b0>
/home/xiang/rockpi4-android/optee_os/lib/libutee/tee_api.c:98
     f64:	91003f58 	add	x24, x26, #0xf
/home/xiang/rockpi4-android/optee_os/lib/libutee/tee_api.c:97
     f68:	f8357ae3 	str	x3, [x23,x21,lsl #3]
/home/xiang/rockpi4-android/optee_os/lib/libutee/tee_api.c:98
     f6c:	927cef18 	and	x24, x24, #0xfffffffffffffff0
/home/xiang/rockpi4-android/optee_os/lib/libutee/tee_api.c:99
     f70:	7100181f 	cmp	w0, #0x6
/home/xiang/rockpi4-android/optee_os/lib/libutee/tee_api.c:98
     f74:	8b180078 	add	x24, x3, x24
/home/xiang/rockpi4-android/optee_os/lib/libutee/tee_api.c:99
     f78:	540000c0 	b.eq	f90 <copy_param+0x1a8>
/home/xiang/rockpi4-android/optee_os/lib/libutee/tee_api.c:101
     f7c:	f9400281 	ldr	x1, [x20]
     f80:	aa0303e0 	mov	x0, x3
     f84:	aa1a03e2 	mov	x2, x26
     f88:	97fffc26 	bl	20 <memcpy>
     f8c:	aa0003e3 	mov	x3, x0
     f90:	aa0303e0 	mov	x0, x3
     f94:	14000003 	b	fa0 <copy_param+0x1b8>
/home/xiang/rockpi4-android/optee_os/lib/libutee/tee_api.c:103
     f98:	f9400280 	ldr	x0, [x20]
     f9c:	aa0303f8 	mov	x24, x3
/home/xiang/rockpi4-android/optee_os/lib/libutee/tee_api.c:107
     fa0:	aa1803e3 	mov	x3, x24
/home/xiang/rockpi4-android/optee_os/lib/libutee/tee_api.c:106
     fa4:	a9006a60 	stp	x0, x26, [x19]
/home/xiang/rockpi4-android/optee_os/lib/libutee/tee_api.c:107
     fa8:	17ffffdf 	b	f24 <copy_param+0x13c>
/home/xiang/rockpi4-android/optee_os/lib/libutee/tee_api.c:110
     fac:	a9007e7f 	stp	xzr, xzr, [x19]
/home/xiang/rockpi4-android/optee_os/lib/libutee/tee_api.c:111
     fb0:	17ffffdd 	b	f24 <copy_param+0x13c>
/home/xiang/rockpi4-android/optee_os/lib/libutee/tee_api.c:78
     fb4:	129ffe60 	mov	w0, #0xffff000c            	// #-65524
     fb8:	17ffffe1 	b	f3c <copy_param+0x154>

0000000000000fbc <TEE_OpenTASession>:
TEE_OpenTASession():
/home/xiang/rockpi4-android/optee_os/lib/libutee/tee_api.c:154
     fbc:	a9b37bfd 	stp	x29, x30, [sp,#-208]!
     fc0:	910003fd 	mov	x29, sp
     fc4:	a90153f3 	stp	x19, x20, [sp,#16]
     fc8:	2a0203f3 	mov	w19, w2
     fcc:	a9046bf9 	stp	x25, x26, [sp,#64]
     fd0:	aa0303f4 	mov	x20, x3
     fd4:	a9025bf5 	stp	x21, x22, [sp,#32]
     fd8:	2a0103f9 	mov	w25, w1
     fdc:	a90363f7 	stp	x23, x24, [sp,#48]
     fe0:	aa0403f6 	mov	x22, x4
/home/xiang/rockpi4-android/optee_os/lib/libutee/tee_api.c:157
     fe4:	b90057bf 	str	wzr, [x29,#84]
/home/xiang/rockpi4-android/optee_os/lib/libutee/tee_api.c:154
     fe8:	aa0003f8 	mov	x24, x0
/home/xiang/rockpi4-android/optee_os/lib/libutee/tee_api.c:159
     fec:	a905ffbf 	stp	xzr, xzr, [x29,#88]
/home/xiang/rockpi4-android/optee_os/lib/libutee/tee_api.c:154
     ff0:	aa0503fa 	mov	x26, x5
/home/xiang/rockpi4-android/optee_os/lib/libutee/tee_api.c:160
     ff4:	a906ffbf 	stp	xzr, xzr, [x29,#104]
     ff8:	a907ffbf 	stp	xzr, xzr, [x29,#120]
/home/xiang/rockpi4-android/optee_os/lib/libutee/tee_api.c:162
     ffc:	34000082 	cbz	w2, 100c <TEE_OpenTASession+0x50>
/home/xiang/rockpi4-android/optee_os/lib/libutee/tee_api.c:163
    1000:	d2800801 	mov	x1, #0x40                  	// #64
    1004:	aa0303e0 	mov	x0, x3
    1008:	940007ad 	bl	2ebc <__utee_check_inout_annotation>
/home/xiang/rockpi4-android/optee_os/lib/libutee/tee_api.c:166
    100c:	d2800101 	mov	x1, #0x8                   	// #8
    1010:	aa1603e0 	mov	x0, x22
/home/xiang/rockpi4-android/optee_os/lib/libutee/tee_api.c:168
    1014:	9101a3b7 	add	x23, x29, #0x68
/home/xiang/rockpi4-android/optee_os/lib/libutee/tee_api.c:166
    1018:	94000798 	bl	2e78 <__utee_check_out_annotation>
/home/xiang/rockpi4-android/optee_os/lib/libutee/tee_api.c:168
    101c:	910223b5 	add	x21, x29, #0x88
    1020:	2a1303e1 	mov	w1, w19
    1024:	aa1703e5 	mov	x5, x23
    1028:	910183a4 	add	x4, x29, #0x60
    102c:	910163a3 	add	x3, x29, #0x58
    1030:	aa1403e2 	mov	x2, x20
    1034:	aa1503e0 	mov	x0, x21
    1038:	97ffff6c 	bl	de8 <copy_param>
    103c:	2a0003f3 	mov	w19, w0
/home/xiang/rockpi4-android/optee_os/lib/libutee/tee_api.c:169
    1040:	35000260 	cbnz	w0, 108c <TEE_OpenTASession+0xd0>
/home/xiang/rockpi4-android/optee_os/lib/libutee/tee_api.c:171
    1044:	aa1a03e4 	mov	x4, x26
    1048:	910153a3 	add	x3, x29, #0x54
    104c:	aa1503e2 	mov	x2, x21
    1050:	2a1903e1 	mov	w1, w25
    1054:	aa1803e0 	mov	x0, x24
    1058:	97fffc5c 	bl	1c8 <_utee_open_ta_session>
/home/xiang/rockpi4-android/optee_os/lib/libutee/tee_api.c:173
    105c:	aa1503e2 	mov	x2, x21
/home/xiang/rockpi4-android/optee_os/lib/libutee/tee_api.c:171
    1060:	2a0003f3 	mov	w19, w0
/home/xiang/rockpi4-android/optee_os/lib/libutee/tee_api.c:173
    1064:	aa1703e1 	mov	x1, x23
    1068:	aa1403e0 	mov	x0, x20
    106c:	97ffff01 	bl	c70 <update_out_param>
/home/xiang/rockpi4-android/optee_os/lib/libutee/tee_api.c:174
    1070:	f9402fa0 	ldr	x0, [x29,#88]
    1074:	b40000a0 	cbz	x0, 1088 <TEE_OpenTASession+0xcc>
/home/xiang/rockpi4-android/optee_os/lib/libutee/tee_api.c:175
    1078:	f94033a1 	ldr	x1, [x29,#96]
    107c:	94000a7f 	bl	3a78 <tee_unmap>
/home/xiang/rockpi4-android/optee_os/lib/libutee/tee_api.c:177
    1080:	34000040 	cbz	w0, 1088 <TEE_OpenTASession+0xcc>
/home/xiang/rockpi4-android/optee_os/lib/libutee/tee_api.c:178
    1084:	94000745 	bl	2d98 <TEE_Panic>
/home/xiang/rockpi4-android/optee_os/lib/libutee/tee_api.c:187
    1088:	34000053 	cbz	w19, 1090 <TEE_OpenTASession+0xd4>
/home/xiang/rockpi4-android/optee_os/lib/libutee/tee_api.c:188
    108c:	b90057bf 	str	wzr, [x29,#84]
/home/xiang/rockpi4-android/optee_os/lib/libutee/tee_api.c:190
    1090:	b94057a0 	ldr	w0, [x29,#84]
/home/xiang/rockpi4-android/optee_os/lib/libutee/tee_api.c:192
    1094:	a94363f7 	ldp	x23, x24, [sp,#48]
    1098:	a9446bf9 	ldp	x25, x26, [sp,#64]
/home/xiang/rockpi4-android/optee_os/lib/libutee/tee_api.c:190
    109c:	f90002c0 	str	x0, [x22]
/home/xiang/rockpi4-android/optee_os/lib/libutee/tee_api.c:192
    10a0:	2a1303e0 	mov	w0, w19
    10a4:	a94153f3 	ldp	x19, x20, [sp,#16]
    10a8:	a9425bf5 	ldp	x21, x22, [sp,#32]
    10ac:	a8cd7bfd 	ldp	x29, x30, [sp],#208
    10b0:	d65f03c0 	ret

00000000000010b4 <TEE_InvokeTACommand>:
TEE_InvokeTACommand():
/home/xiang/rockpi4-android/optee_os/lib/libutee/tee_api.c:209
    10b4:	a9b37bfd 	stp	x29, x30, [sp,#-208]!
    10b8:	910003fd 	mov	x29, sp
    10bc:	a90153f3 	stp	x19, x20, [sp,#16]
    10c0:	2a0303f3 	mov	w19, w3
    10c4:	a9046bf9 	stp	x25, x26, [sp,#64]
    10c8:	aa0503f4 	mov	x20, x5
    10cc:	a9025bf5 	stp	x21, x22, [sp,#32]
    10d0:	2a0103f9 	mov	w25, w1
    10d4:	a90363f7 	stp	x23, x24, [sp,#48]
    10d8:	aa0003f8 	mov	x24, x0
/home/xiang/rockpi4-android/optee_os/lib/libutee/tee_api.c:214
    10dc:	a905ffbf 	stp	xzr, xzr, [x29,#88]
/home/xiang/rockpi4-android/optee_os/lib/libutee/tee_api.c:211
    10e0:	52800060 	mov	w0, #0x3                   	// #3
/home/xiang/rockpi4-android/optee_os/lib/libutee/tee_api.c:215
    10e4:	a906ffbf 	stp	xzr, xzr, [x29,#104]
/home/xiang/rockpi4-android/optee_os/lib/libutee/tee_api.c:209
    10e8:	2a0203fa 	mov	w26, w2
/home/xiang/rockpi4-android/optee_os/lib/libutee/tee_api.c:211
    10ec:	b90057a0 	str	w0, [x29,#84]
/home/xiang/rockpi4-android/optee_os/lib/libutee/tee_api.c:209
    10f0:	aa0403f5 	mov	x21, x4
/home/xiang/rockpi4-android/optee_os/lib/libutee/tee_api.c:215
    10f4:	a907ffbf 	stp	xzr, xzr, [x29,#120]
/home/xiang/rockpi4-android/optee_os/lib/libutee/tee_api.c:217
    10f8:	34000083 	cbz	w3, 1108 <TEE_InvokeTACommand+0x54>
/home/xiang/rockpi4-android/optee_os/lib/libutee/tee_api.c:218
    10fc:	d2800801 	mov	x1, #0x40                  	// #64
    1100:	aa0403e0 	mov	x0, x4
    1104:	9400076e 	bl	2ebc <__utee_check_inout_annotation>
/home/xiang/rockpi4-android/optee_os/lib/libutee/tee_api.c:221
    1108:	b4000094 	cbz	x20, 1118 <TEE_InvokeTACommand+0x64>
/home/xiang/rockpi4-android/optee_os/lib/libutee/tee_api.c:222
    110c:	d2800081 	mov	x1, #0x4                   	// #4
    1110:	aa1403e0 	mov	x0, x20
    1114:	94000759 	bl	2e78 <__utee_check_out_annotation>
/home/xiang/rockpi4-android/optee_os/lib/libutee/tee_api.c:225
    1118:	9101a3b7 	add	x23, x29, #0x68
    111c:	910223b6 	add	x22, x29, #0x88
    1120:	2a1303e1 	mov	w1, w19
    1124:	aa1703e5 	mov	x5, x23
    1128:	910183a4 	add	x4, x29, #0x60
    112c:	910163a3 	add	x3, x29, #0x58
    1130:	aa1503e2 	mov	x2, x21
    1134:	aa1603e0 	mov	x0, x22
    1138:	97ffff2c 	bl	de8 <copy_param>
    113c:	2a0003f3 	mov	w19, w0
/home/xiang/rockpi4-android/optee_os/lib/libutee/tee_api.c:226
    1140:	35000240 	cbnz	w0, 1188 <TEE_InvokeTACommand+0xd4>
/home/xiang/rockpi4-android/optee_os/lib/libutee/tee_api.c:228
    1144:	910153a4 	add	x4, x29, #0x54
    1148:	aa1603e3 	mov	x3, x22
    114c:	2a1a03e2 	mov	w2, w26
    1150:	2a1903e1 	mov	w1, w25
    1154:	aa1803e0 	mov	x0, x24
    1158:	97fffc22 	bl	1e0 <_utee_invoke_ta_command>
/home/xiang/rockpi4-android/optee_os/lib/libutee/tee_api.c:231
    115c:	aa1603e2 	mov	x2, x22
/home/xiang/rockpi4-android/optee_os/lib/libutee/tee_api.c:228
    1160:	2a0003f3 	mov	w19, w0
/home/xiang/rockpi4-android/optee_os/lib/libutee/tee_api.c:231
    1164:	aa1703e1 	mov	x1, x23
    1168:	aa1503e0 	mov	x0, x21
    116c:	97fffec1 	bl	c70 <update_out_param>
/home/xiang/rockpi4-android/optee_os/lib/libutee/tee_api.c:232
    1170:	f9402fa0 	ldr	x0, [x29,#88]
    1174:	b40000a0 	cbz	x0, 1188 <TEE_InvokeTACommand+0xd4>
/home/xiang/rockpi4-android/optee_os/lib/libutee/tee_api.c:233
    1178:	f94033a1 	ldr	x1, [x29,#96]
    117c:	94000a3f 	bl	3a78 <tee_unmap>
/home/xiang/rockpi4-android/optee_os/lib/libutee/tee_api.c:235
    1180:	34000040 	cbz	w0, 1188 <TEE_InvokeTACommand+0xd4>
/home/xiang/rockpi4-android/optee_os/lib/libutee/tee_api.c:236
    1184:	94000705 	bl	2d98 <TEE_Panic>
    1188:	b94057a0 	ldr	w0, [x29,#84]
/home/xiang/rockpi4-android/optee_os/lib/libutee/tee_api.c:240
    118c:	b4000054 	cbz	x20, 1194 <TEE_InvokeTACommand+0xe0>
/home/xiang/rockpi4-android/optee_os/lib/libutee/tee_api.c:241
    1190:	b9000280 	str	w0, [x20]
/home/xiang/rockpi4-android/optee_os/lib/libutee/tee_api.c:243
    1194:	7100101f 	cmp	w0, #0x4
    1198:	54000140 	b.eq	11c0 <TEE_InvokeTACommand+0x10c>
/home/xiang/rockpi4-android/optee_os/lib/libutee/tee_api.c:246
    119c:	7100027f 	cmp	w19, #0x0
    11a0:	129ffe60 	mov	w0, #0xffff000c            	// #-65524
    11a4:	7a401264 	ccmp	w19, w0, #0x4, ne
    11a8:	540000c0 	b.eq	11c0 <TEE_InvokeTACommand+0x10c>
/home/xiang/rockpi4-android/optee_os/lib/libutee/tee_api.c:247
    11ac:	1299fb60 	mov	w0, #0xffff3024            	// #-53212
    11b0:	6b00027f 	cmp	w19, w0
    11b4:	54000060 	b.eq	11c0 <TEE_InvokeTACommand+0x10c>
/home/xiang/rockpi4-android/optee_os/lib/libutee/tee_api.c:249
    11b8:	2a1303e0 	mov	w0, w19
    11bc:	940006f7 	bl	2d98 <TEE_Panic>
/home/xiang/rockpi4-android/optee_os/lib/libutee/tee_api.c:252
    11c0:	2a1303e0 	mov	w0, w19
    11c4:	a94153f3 	ldp	x19, x20, [sp,#16]
    11c8:	a9425bf5 	ldp	x21, x22, [sp,#32]
    11cc:	a94363f7 	ldp	x23, x24, [sp,#48]
    11d0:	a9446bf9 	ldp	x25, x26, [sp,#64]
    11d4:	a8cd7bfd 	ldp	x29, x30, [sp],#208
    11d8:	d65f03c0 	ret

00000000000011dc <TEE_SetInstanceData>:
TEE_SetInstanceData():
/home/xiang/rockpi4-android/optee_os/lib/libutee/tee_api.c:313
    11dc:	900000a1 	adrp	x1, 15000 <ta_heap+0x7b10>
    11e0:	f902ac20 	str	x0, [x1,#1368]
    11e4:	d65f03c0 	ret

00000000000011e8 <TEE_GetInstanceData>:
TEE_GetInstanceData():
/home/xiang/rockpi4-android/optee_os/lib/libutee/tee_api.c:319
    11e8:	900000a0 	adrp	x0, 15000 <ta_heap+0x7b10>
    11ec:	f942ac00 	ldr	x0, [x0,#1368]
    11f0:	d65f03c0 	ret

00000000000011f4 <TEE_MemMove>:
TEE_MemMove():
/home/xiang/rockpi4-android/optee_os/lib/libutee/tee_api.c:323
    11f4:	2a0203e2 	mov	w2, w2
    11f8:	140021b0 	b	98b8 <memmove>

00000000000011fc <TEE_MemCompare>:
TEE_MemCompare():
/home/xiang/rockpi4-android/optee_os/lib/libutee/tee_api.c:328
    11fc:	2a0203e2 	mov	w2, w2
    1200:	14002664 	b	ab90 <consttime_memcmp>

0000000000001204 <TEE_MemFill>:
TEE_MemFill():
/home/xiang/rockpi4-android/optee_os/lib/libutee/tee_api.c:333
    1204:	2a0203e2 	mov	w2, w2
    1208:	140021bf 	b	9904 <memset>

000000000000120c <TEE_GetSystemTime>:
TEE_GetSystemTime():
/home/xiang/rockpi4-android/optee_os/lib/libutee/tee_api.c:339
    120c:	a9bf7bfd 	stp	x29, x30, [sp,#-16]!
/home/xiang/rockpi4-android/optee_os/lib/libutee/tee_api.c:340
    1210:	aa0003e1 	mov	x1, x0
    1214:	d2800000 	mov	x0, #0x0                   	// #0
/home/xiang/rockpi4-android/optee_os/lib/libutee/tee_api.c:339
    1218:	910003fd 	mov	x29, sp
/home/xiang/rockpi4-android/optee_os/lib/libutee/tee_api.c:340
    121c:	97fffc03 	bl	228 <_utee_get_time>
/home/xiang/rockpi4-android/optee_os/lib/libutee/tee_api.c:342
    1220:	34000060 	cbz	w0, 122c <TEE_GetSystemTime+0x20>
/home/xiang/rockpi4-android/optee_os/lib/libutee/tee_api.c:344
    1224:	a8c17bfd 	ldp	x29, x30, [sp],#16
/home/xiang/rockpi4-android/optee_os/lib/libutee/tee_api.c:343
    1228:	140006dc 	b	2d98 <TEE_Panic>
/home/xiang/rockpi4-android/optee_os/lib/libutee/tee_api.c:344
    122c:	a8c17bfd 	ldp	x29, x30, [sp],#16
    1230:	d65f03c0 	ret

0000000000001234 <TEE_Wait>:
TEE_Wait():
/home/xiang/rockpi4-android/optee_os/lib/libutee/tee_api.c:347
    1234:	a9be7bfd 	stp	x29, x30, [sp,#-32]!
/home/xiang/rockpi4-android/optee_os/lib/libutee/tee_api.c:348
    1238:	2a0003e0 	mov	w0, w0
/home/xiang/rockpi4-android/optee_os/lib/libutee/tee_api.c:347
    123c:	910003fd 	mov	x29, sp
    1240:	f9000bf3 	str	x19, [sp,#16]
/home/xiang/rockpi4-android/optee_os/lib/libutee/tee_api.c:348
    1244:	97fffbf6 	bl	21c <_utee_wait>
/home/xiang/rockpi4-android/optee_os/lib/libutee/tee_api.c:350
    1248:	7100001f 	cmp	w0, #0x0
    124c:	129fffa1 	mov	w1, #0xffff0002            	// #-65534
/home/xiang/rockpi4-android/optee_os/lib/libutee/tee_api.c:348
    1250:	2a0003f3 	mov	w19, w0
/home/xiang/rockpi4-android/optee_os/lib/libutee/tee_api.c:350
    1254:	7a411004 	ccmp	w0, w1, #0x4, ne
    1258:	54000040 	b.eq	1260 <TEE_Wait+0x2c>
/home/xiang/rockpi4-android/optee_os/lib/libutee/tee_api.c:351
    125c:	940006cf 	bl	2d98 <TEE_Panic>
/home/xiang/rockpi4-android/optee_os/lib/libutee/tee_api.c:354
    1260:	2a1303e0 	mov	w0, w19
    1264:	f9400bf3 	ldr	x19, [sp,#16]
    1268:	a8c27bfd 	ldp	x29, x30, [sp],#32
    126c:	d65f03c0 	ret

0000000000001270 <TEE_GetTAPersistentTime>:
TEE_GetTAPersistentTime():
/home/xiang/rockpi4-android/optee_os/lib/libutee/tee_api.c:357
    1270:	a9be7bfd 	stp	x29, x30, [sp,#-32]!
/home/xiang/rockpi4-android/optee_os/lib/libutee/tee_api.c:360
    1274:	aa0003e1 	mov	x1, x0
/home/xiang/rockpi4-android/optee_os/lib/libutee/tee_api.c:357
    1278:	910003fd 	mov	x29, sp
    127c:	a90153f3 	stp	x19, x20, [sp,#16]
    1280:	aa0003f4 	mov	x20, x0
/home/xiang/rockpi4-android/optee_os/lib/libutee/tee_api.c:360
    1284:	d2800020 	mov	x0, #0x1                   	// #1
    1288:	97fffbe8 	bl	228 <_utee_get_time>
    128c:	2a0003f3 	mov	w19, w0
/home/xiang/rockpi4-android/optee_os/lib/libutee/tee_api.c:362
    1290:	7100001f 	cmp	w0, #0x0
    1294:	1a9f07e0 	cset	w0, ne
    1298:	1299fe01 	mov	w1, #0xffff300f            	// #-53233
    129c:	6b01027f 	cmp	w19, w1
    12a0:	1a9f07e1 	cset	w1, ne
    12a4:	6a01001f 	tst	w0, w1
    12a8:	54000040 	b.eq	12b0 <TEE_GetTAPersistentTime+0x40>
/home/xiang/rockpi4-android/optee_os/lib/libutee/tee_api.c:364
    12ac:	29007e9f 	stp	wzr, wzr, [x20]
/home/xiang/rockpi4-android/optee_os/lib/libutee/tee_api.c:368
    12b0:	11402e61 	add	w1, w19, #0xb, lsl #12
    12b4:	7100043f 	cmp	w1, #0x1
    12b8:	1a9f97e1 	cset	w1, hi
/home/xiang/rockpi4-android/optee_os/lib/libutee/tee_api.c:367
    12bc:	6a01001f 	tst	w0, w1
    12c0:	54000120 	b.eq	12e4 <TEE_GetTAPersistentTime+0x74>
/home/xiang/rockpi4-android/optee_os/lib/libutee/tee_api.c:369
    12c4:	1299fe00 	mov	w0, #0xffff300f            	// #-53233
    12c8:	6b00027f 	cmp	w19, w0
    12cc:	540000c0 	b.eq	12e4 <TEE_GetTAPersistentTime+0x74>
/home/xiang/rockpi4-android/optee_os/lib/libutee/tee_api.c:370
    12d0:	129ffe60 	mov	w0, #0xffff000c            	// #-65524
    12d4:	6b00027f 	cmp	w19, w0
    12d8:	54000060 	b.eq	12e4 <TEE_GetTAPersistentTime+0x74>
/home/xiang/rockpi4-android/optee_os/lib/libutee/tee_api.c:372
    12dc:	2a1303e0 	mov	w0, w19
    12e0:	940006ae 	bl	2d98 <TEE_Panic>
/home/xiang/rockpi4-android/optee_os/lib/libutee/tee_api.c:375
    12e4:	2a1303e0 	mov	w0, w19
    12e8:	a94153f3 	ldp	x19, x20, [sp,#16]
    12ec:	a8c27bfd 	ldp	x29, x30, [sp],#32
    12f0:	d65f03c0 	ret

00000000000012f4 <TEE_SetTAPersistentTime>:
TEE_SetTAPersistentTime():
/home/xiang/rockpi4-android/optee_os/lib/libutee/tee_api.c:378
    12f4:	a9be7bfd 	stp	x29, x30, [sp,#-32]!
    12f8:	910003fd 	mov	x29, sp
    12fc:	f9000bf3 	str	x19, [sp,#16]
/home/xiang/rockpi4-android/optee_os/lib/libutee/tee_api.c:381
    1300:	97fffbcd 	bl	234 <_utee_set_ta_time>
/home/xiang/rockpi4-android/optee_os/lib/libutee/tee_api.c:383
    1304:	7100001f 	cmp	w0, #0x0
    1308:	129ffe61 	mov	w1, #0xffff000c            	// #-65524
/home/xiang/rockpi4-android/optee_os/lib/libutee/tee_api.c:381
    130c:	2a0003f3 	mov	w19, w0
/home/xiang/rockpi4-android/optee_os/lib/libutee/tee_api.c:383
    1310:	7a411004 	ccmp	w0, w1, #0x4, ne
    1314:	540000a0 	b.eq	1328 <TEE_SetTAPersistentTime+0x34>
/home/xiang/rockpi4-android/optee_os/lib/libutee/tee_api.c:384
    1318:	1299f7c1 	mov	w1, #0xffff3041            	// #-53183
    131c:	6b01001f 	cmp	w0, w1
    1320:	54000040 	b.eq	1328 <TEE_SetTAPersistentTime+0x34>
/home/xiang/rockpi4-android/optee_os/lib/libutee/tee_api.c:386
    1324:	9400069d 	bl	2d98 <TEE_Panic>
/home/xiang/rockpi4-android/optee_os/lib/libutee/tee_api.c:389
    1328:	2a1303e0 	mov	w0, w19
    132c:	f9400bf3 	ldr	x19, [sp,#16]
    1330:	a8c27bfd 	ldp	x29, x30, [sp],#32
    1334:	d65f03c0 	ret

0000000000001338 <TEE_GetREETime>:
TEE_GetREETime():
/home/xiang/rockpi4-android/optee_os/lib/libutee/tee_api.c:392
    1338:	a9bf7bfd 	stp	x29, x30, [sp,#-16]!
/home/xiang/rockpi4-android/optee_os/lib/libutee/tee_api.c:393
    133c:	aa0003e1 	mov	x1, x0
    1340:	d2800040 	mov	x0, #0x2                   	// #2
/home/xiang/rockpi4-android/optee_os/lib/libutee/tee_api.c:392
    1344:	910003fd 	mov	x29, sp
/home/xiang/rockpi4-android/optee_os/lib/libutee/tee_api.c:393
    1348:	97fffbb8 	bl	228 <_utee_get_time>
/home/xiang/rockpi4-android/optee_os/lib/libutee/tee_api.c:395
    134c:	34000060 	cbz	w0, 1358 <TEE_GetREETime+0x20>
/home/xiang/rockpi4-android/optee_os/lib/libutee/tee_api.c:397
    1350:	a8c17bfd 	ldp	x29, x30, [sp],#16
/home/xiang/rockpi4-android/optee_os/lib/libutee/tee_api.c:396
    1354:	14000691 	b	2d98 <TEE_Panic>
/home/xiang/rockpi4-android/optee_os/lib/libutee/tee_api.c:397
    1358:	a8c17bfd 	ldp	x29, x30, [sp],#16
    135c:	d65f03c0 	ret

0000000000001360 <TEE_Malloc>:
TEE_Malloc():
/home/xiang/rockpi4-android/optee_os/lib/libutee/tee_api.c:401
    1360:	34000300 	cbz	w0, 13c0 <TEE_Malloc+0x60>
/home/xiang/rockpi4-android/optee_os/lib/libutee/tee_api.c:404
    1364:	35000081 	cbnz	w1, 1374 <TEE_Malloc+0x14>
/home/xiang/rockpi4-android/optee_os/lib/libutee/tee_api.c:405
    1368:	2a0003e1 	mov	w1, w0
    136c:	d2800020 	mov	x0, #0x1                   	// #1
    1370:	14002064 	b	9500 <calloc>
/home/xiang/rockpi4-android/optee_os/lib/libutee/tee_api.c:406
    1374:	52b00002 	mov	w2, #0x80000000            	// #-2147483648
    1378:	6b02003f 	cmp	w1, w2
    137c:	54000061 	b.ne	1388 <TEE_Malloc+0x28>
/home/xiang/rockpi4-android/optee_os/lib/libutee/tee_api.c:407
    1380:	2a0003e0 	mov	w0, w0
    1384:	14002059 	b	94e8 <malloc>
/home/xiang/rockpi4-android/optee_os/lib/libutee/tee_api.c:400
    1388:	a9bf7bfd 	stp	x29, x30, [sp,#-16]!
    138c:	2a0103e5 	mov	w5, w1
/home/xiang/rockpi4-android/optee_os/lib/libutee/tee_api.c:409
    1390:	52800023 	mov	w3, #0x1                   	// #1
    1394:	52800022 	mov	w2, #0x1                   	// #1
/home/xiang/rockpi4-android/optee_os/lib/libutee/tee_api.c:400
    1398:	910003fd 	mov	x29, sp
/home/xiang/rockpi4-android/optee_os/lib/libutee/tee_api.c:409
    139c:	52803321 	mov	w1, #0x199                 	// #409
    13a0:	d0000044 	adrp	x4, b000 <small_prime+0x140>
    13a4:	b0000040 	adrp	x0, a000 <kprintf.constprop.0+0x540>
    13a8:	910edc84 	add	x4, x4, #0x3b7
    13ac:	91324000 	add	x0, x0, #0xc90
    13b0:	94002577 	bl	a98c <trace_printf>
/home/xiang/rockpi4-android/optee_os/lib/libutee/tee_api.c:411
    13b4:	d2800000 	mov	x0, #0x0                   	// #0
/home/xiang/rockpi4-android/optee_os/lib/libutee/tee_api.c:412
    13b8:	a8c17bfd 	ldp	x29, x30, [sp],#16
    13bc:	d65f03c0 	ret
/home/xiang/rockpi4-android/optee_os/lib/libutee/tee_api.c:402
    13c0:	d2800020 	mov	x0, #0x1                   	// #1
    13c4:	d65f03c0 	ret

00000000000013c8 <TEE_Free>:
TEE_Free():
/home/xiang/rockpi4-android/optee_os/lib/libutee/tee_api.c:429
    13c8:	f100041f 	cmp	x0, #0x1
    13cc:	54000040 	b.eq	13d4 <TEE_Free+0xc>
/home/xiang/rockpi4-android/optee_os/lib/libutee/tee_api.c:430
    13d0:	14002060 	b	9550 <free>
    13d4:	d65f03c0 	ret

00000000000013d8 <TEE_Realloc>:
TEE_Realloc():
/home/xiang/rockpi4-android/optee_os/lib/libutee/tee_api.c:416
    13d8:	340000c1 	cbz	w1, 13f0 <TEE_Realloc+0x18>
/home/xiang/rockpi4-android/optee_os/lib/libutee/tee_api.c:421
    13dc:	f100041f 	cmp	x0, #0x1
    13e0:	2a0103e1 	mov	w1, w1
    13e4:	54000041 	b.ne	13ec <TEE_Realloc+0x14>
/home/xiang/rockpi4-android/optee_os/lib/libutee/tee_api.c:422
    13e8:	14002046 	b	9500 <calloc>
/home/xiang/rockpi4-android/optee_os/lib/libutee/tee_api.c:424
    13ec:	1400204c 	b	951c <realloc>
/home/xiang/rockpi4-android/optee_os/lib/libutee/tee_api.c:415
    13f0:	a9bf7bfd 	stp	x29, x30, [sp,#-16]!
    13f4:	910003fd 	mov	x29, sp
/home/xiang/rockpi4-android/optee_os/lib/libutee/tee_api.c:417
    13f8:	97fffff4 	bl	13c8 <TEE_Free>
/home/xiang/rockpi4-android/optee_os/lib/libutee/tee_api.c:425
    13fc:	d2800020 	mov	x0, #0x1                   	// #1
    1400:	a8c17bfd 	ldp	x29, x30, [sp],#16
    1404:	d65f03c0 	ret

0000000000001408 <TEE_CacheClean>:
TEE_CacheClean():
/home/xiang/rockpi4-android/optee_os/lib/libutee/tee_api.c:436
    1408:	d2800002 	mov	x2, #0x0                   	// #0
    140c:	17fffc05 	b	420 <_utee_cache_operation>

0000000000001410 <TEE_CacheFlush>:
TEE_CacheFlush():
/home/xiang/rockpi4-android/optee_os/lib/libutee/tee_api.c:440
    1410:	d2800022 	mov	x2, #0x1                   	// #1
    1414:	17fffc03 	b	420 <_utee_cache_operation>

0000000000001418 <TEE_CacheInvalidate>:
TEE_CacheInvalidate():
/home/xiang/rockpi4-android/optee_os/lib/libutee/tee_api.c:445
    1418:	d2800042 	mov	x2, #0x2                   	// #2
    141c:	17fffc01 	b	420 <_utee_cache_operation>

0000000000001420 <mpi_panic>:
mpi_panic():
/home/xiang/rockpi4-android/optee_os/lib/libutee/tee_api_arith_mpi.c:29
    1420:	a9bf7bfd 	stp	x29, x30, [sp,#-16]!
/home/xiang/rockpi4-android/optee_os/lib/libutee/tee_api_arith_mpi.c:30
    1424:	2a0203e3 	mov	w3, w2
    1428:	2a0103e2 	mov	w2, w1
    142c:	aa0003e1 	mov	x1, x0
/home/xiang/rockpi4-android/optee_os/lib/libutee/tee_api_arith_mpi.c:29
    1430:	910003fd 	mov	x29, sp
/home/xiang/rockpi4-android/optee_os/lib/libutee/tee_api_arith_mpi.c:30
    1434:	d0000040 	adrp	x0, b000 <small_prime+0x140>
    1438:	910fa000 	add	x0, x0, #0x3e8
    143c:	97fffdbb 	bl	b28 <printf>
/home/xiang/rockpi4-android/optee_os/lib/libutee/tee_api_arith_mpi.c:31
    1440:	528c24e0 	mov	w0, #0x6127                	// #24871
    1444:	72a01620 	movk	w0, #0xb1, lsl #16
    1448:	94000654 	bl	2d98 <TEE_Panic>
    144c:	14000000 	b	144c <mpi_panic+0x2c>

0000000000001450 <get_mpi>:
get_mpi():
/home/xiang/rockpi4-android/optee_os/lib/libutee/tee_api_arith_mpi.c:86
    1450:	a9bd7bfd 	stp	x29, x30, [sp,#-48]!
    1454:	910003fd 	mov	x29, sp
    1458:	a90153f3 	stp	x19, x20, [sp,#16]
    145c:	aa0103f3 	mov	x19, x1
    1460:	a9025bf5 	stp	x21, x22, [sp,#32]
    1464:	aa0003f4 	mov	x20, x0
/home/xiang/rockpi4-android/optee_os/lib/libutee/tee_api_arith_mpi.c:101
    1468:	94000d64 	bl	49f8 <mbedtls_mpi_init_mempool>
/home/xiang/rockpi4-android/optee_os/lib/libutee/tee_api_arith_mpi.c:103
    146c:	b4000373 	cbz	x19, 14d8 <get_mpi+0x88>
/home/xiang/rockpi4-android/optee_os/lib/libutee/tee_api_arith_mpi.c:106
    1470:	79400e61 	ldrh	w1, [x19,#6]
/home/xiang/rockpi4-android/optee_os/lib/libutee/tee_api_arith_mpi.c:105
    1474:	91002276 	add	x22, x19, #0x8
    1478:	d37ef435 	lsl	x21, x1, #2
/home/xiang/rockpi4-android/optee_os/lib/libutee/tee_api_arith_mpi.c:109
    147c:	b4000081 	cbz	x1, 148c <get_mpi+0x3c>
/home/xiang/rockpi4-android/optee_os/lib/libutee/tee_api_arith_mpi.c:109 (discriminator 1)
    1480:	8b150260 	add	x0, x19, x21
    1484:	b9400400 	ldr	w0, [x0,#4]
    1488:	34000120 	cbz	w0, 14ac <get_mpi+0x5c>
/home/xiang/rockpi4-android/optee_os/lib/libutee/tee_api_arith_mpi.c:112
    148c:	aa1403e0 	mov	x0, x20
    1490:	94000d7f 	bl	4a8c <mbedtls_mpi_grow>
    1494:	34000100 	cbz	w0, 14b4 <get_mpi+0x64>
/home/xiang/rockpi4-android/optee_os/lib/libutee/tee_api_arith_mpi.c:112 (discriminator 1)
    1498:	2a0003e2 	mov	w2, w0
    149c:	52800e01 	mov	w1, #0x70                  	// #112
    14a0:	b0000040 	adrp	x0, a000 <kprintf.constprop.0+0x540>
    14a4:	91328000 	add	x0, x0, #0xca0
    14a8:	97ffffde 	bl	1420 <mpi_panic>
/home/xiang/rockpi4-android/optee_os/lib/libutee/tee_api_arith_mpi.c:110
    14ac:	d1000421 	sub	x1, x1, #0x1
    14b0:	17fffff2 	b	1478 <get_mpi+0x28>
/home/xiang/rockpi4-android/optee_os/lib/libutee/tee_api_arith_mpi.c:113
    14b4:	b9400260 	ldr	w0, [x19]
/home/xiang/rockpi4-android/optee_os/lib/libutee/tee_api_arith_mpi.c:114
    14b8:	aa1503e2 	mov	x2, x21
    14bc:	aa1603e1 	mov	x1, x22
/home/xiang/rockpi4-android/optee_os/lib/libutee/tee_api_arith_mpi.c:116
    14c0:	a9425bf5 	ldp	x21, x22, [sp,#32]
/home/xiang/rockpi4-android/optee_os/lib/libutee/tee_api_arith_mpi.c:113
    14c4:	79000280 	strh	w0, [x20]
/home/xiang/rockpi4-android/optee_os/lib/libutee/tee_api_arith_mpi.c:114
    14c8:	f9400a80 	ldr	x0, [x20,#16]
/home/xiang/rockpi4-android/optee_os/lib/libutee/tee_api_arith_mpi.c:116
    14cc:	a94153f3 	ldp	x19, x20, [sp,#16]
    14d0:	a8c37bfd 	ldp	x29, x30, [sp],#48
/home/xiang/rockpi4-android/optee_os/lib/libutee/tee_api_arith_mpi.c:114
    14d4:	17fffad3 	b	20 <memcpy>
/home/xiang/rockpi4-android/optee_os/lib/libutee/tee_api_arith_mpi.c:116
    14d8:	a94153f3 	ldp	x19, x20, [sp,#16]
    14dc:	a9425bf5 	ldp	x21, x22, [sp,#32]
    14e0:	a8c37bfd 	ldp	x29, x30, [sp],#48
    14e4:	d65f03c0 	ret

00000000000014e8 <copy_mpi_to_bigint>:
copy_mpi_to_bigint():
/home/xiang/rockpi4-android/optee_os/lib/libutee/tee_api_arith_mpi.c:63
    14e8:	f9400404 	ldr	x4, [x0,#8]
    14ec:	d37ef482 	lsl	x2, x4, #2
    14f0:	d1001043 	sub	x3, x2, #0x4
/home/xiang/rockpi4-android/optee_os/lib/libutee/tee_api_arith_mpi.c:66
    14f4:	b40000a4 	cbz	x4, 1508 <copy_mpi_to_bigint+0x20>
/home/xiang/rockpi4-android/optee_os/lib/libutee/tee_api_arith_mpi.c:66 (discriminator 1)
    14f8:	f9400805 	ldr	x5, [x0,#16]
    14fc:	b86368a5 	ldr	w5, [x5,x3]
    1500:	d1001063 	sub	x3, x3, #0x4
    1504:	34000205 	cbz	w5, 1544 <copy_mpi_to_bigint+0x5c>
/home/xiang/rockpi4-android/optee_os/lib/libutee/tee_api_arith_mpi.c:69
    1508:	79400823 	ldrh	w3, [x1,#4]
    150c:	eb04007f 	cmp	x3, x4
    1510:	540001e3 	b.cc	154c <copy_mpi_to_bigint+0x64>
/home/xiang/rockpi4-android/optee_os/lib/libutee/tee_api_arith_mpi.c:61
    1514:	a9bf7bfd 	stp	x29, x30, [sp,#-16]!
    1518:	aa0003e3 	mov	x3, x0
    151c:	910003fd 	mov	x29, sp
/home/xiang/rockpi4-android/optee_os/lib/libutee/tee_api_arith_mpi.c:72
    1520:	79000c24 	strh	w4, [x1,#6]
/home/xiang/rockpi4-android/optee_os/lib/libutee/tee_api_arith_mpi.c:73
    1524:	79c00004 	ldrsh	w4, [x0]
    1528:	aa0103e0 	mov	x0, x1
/home/xiang/rockpi4-android/optee_os/lib/libutee/tee_api_arith_mpi.c:74
    152c:	f9400861 	ldr	x1, [x3,#16]
/home/xiang/rockpi4-android/optee_os/lib/libutee/tee_api_arith_mpi.c:73
    1530:	b8008404 	str	w4, [x0],#8
/home/xiang/rockpi4-android/optee_os/lib/libutee/tee_api_arith_mpi.c:74
    1534:	97fffabb 	bl	20 <memcpy>
/home/xiang/rockpi4-android/optee_os/lib/libutee/tee_api_arith_mpi.c:76
    1538:	52800000 	mov	w0, #0x0                   	// #0
/home/xiang/rockpi4-android/optee_os/lib/libutee/tee_api_arith_mpi.c:77
    153c:	a8c17bfd 	ldp	x29, x30, [sp],#16
    1540:	d65f03c0 	ret
/home/xiang/rockpi4-android/optee_os/lib/libutee/tee_api_arith_mpi.c:67
    1544:	d1000484 	sub	x4, x4, #0x1
    1548:	17ffffeb 	b	14f4 <copy_mpi_to_bigint+0xc>
/home/xiang/rockpi4-android/optee_os/lib/libutee/tee_api_arith_mpi.c:70
    154c:	1299fe00 	mov	w0, #0xffff300f            	// #-53233
    1550:	d65f03c0 	ret

0000000000001554 <bigint_binary>:
bigint_binary():
/home/xiang/rockpi4-android/optee_os/lib/libutee/tee_api_arith_mpi.c:319
    1554:	a9b67bfd 	stp	x29, x30, [sp,#-160]!
    1558:	910003fd 	mov	x29, sp
    155c:	a90153f3 	stp	x19, x20, [sp,#16]
/home/xiang/rockpi4-android/optee_os/lib/libutee/tee_api_arith_mpi.c:326
    1560:	910163b3 	add	x19, x29, #0x58
/home/xiang/rockpi4-android/optee_os/lib/libutee/tee_api_arith_mpi.c:319
    1564:	a9046bf9 	stp	x25, x26, [sp,#64]
    1568:	aa0203f4 	mov	x20, x2
    156c:	a9025bf5 	stp	x21, x22, [sp,#32]
    1570:	aa0103f9 	mov	x25, x1
    1574:	a90363f7 	stp	x23, x24, [sp,#48]
    1578:	aa0003f6 	mov	x22, x0
/home/xiang/rockpi4-android/optee_os/lib/libutee/tee_api_arith_mpi.c:326
    157c:	aa0003e1 	mov	x1, x0
/home/xiang/rockpi4-android/optee_os/lib/libutee/tee_api_arith_mpi.c:319
    1580:	aa0303fa 	mov	x26, x3
/home/xiang/rockpi4-android/optee_os/lib/libutee/tee_api_arith_mpi.c:326
    1584:	aa1303e0 	mov	x0, x19
    1588:	97ffffb2 	bl	1450 <get_mpi>
/home/xiang/rockpi4-android/optee_os/lib/libutee/tee_api_arith_mpi.c:328
    158c:	eb1902df 	cmp	x22, x25
    1590:	9101c3b8 	add	x24, x29, #0x70
    1594:	54000320 	b.eq	15f8 <bigint_binary+0xa4>
/home/xiang/rockpi4-android/optee_os/lib/libutee/tee_api_arith_mpi.c:323
    1598:	aa1803f5 	mov	x21, x24
/home/xiang/rockpi4-android/optee_os/lib/libutee/tee_api_arith_mpi.c:331
    159c:	aa1903e1 	mov	x1, x25
    15a0:	aa1803e0 	mov	x0, x24
    15a4:	97ffffab 	bl	1450 <get_mpi>
/home/xiang/rockpi4-android/optee_os/lib/libutee/tee_api_arith_mpi.c:333
    15a8:	eb1402df 	cmp	x22, x20
    15ac:	910223b7 	add	x23, x29, #0x88
    15b0:	54000280 	b.eq	1600 <bigint_binary+0xac>
/home/xiang/rockpi4-android/optee_os/lib/libutee/tee_api_arith_mpi.c:335
    15b4:	eb14033f 	cmp	x25, x20
    15b8:	54000280 	b.eq	1608 <bigint_binary+0xb4>
/home/xiang/rockpi4-android/optee_os/lib/libutee/tee_api_arith_mpi.c:338
    15bc:	aa1403e1 	mov	x1, x20
/home/xiang/rockpi4-android/optee_os/lib/libutee/tee_api_arith_mpi.c:324
    15c0:	aa1703f4 	mov	x20, x23
/home/xiang/rockpi4-android/optee_os/lib/libutee/tee_api_arith_mpi.c:338
    15c4:	aa1703e0 	mov	x0, x23
    15c8:	97ffffa2 	bl	1450 <get_mpi>
/home/xiang/rockpi4-android/optee_os/lib/libutee/tee_api_arith_mpi.c:340
    15cc:	aa1403e2 	mov	x2, x20
    15d0:	aa1503e1 	mov	x1, x21
    15d4:	aa1303e0 	mov	x0, x19
    15d8:	d63f0340 	blr	x26
    15dc:	340001a0 	cbz	w0, 1610 <bigint_binary+0xbc>
/home/xiang/rockpi4-android/optee_os/lib/libutee/tee_api_arith_mpi.c:340 (discriminator 1)
    15e0:	2a0003e2 	mov	w2, w0
    15e4:	52802a81 	mov	w1, #0x154                 	// #340
/home/xiang/rockpi4-android/optee_os/lib/libutee/tee_api_arith_mpi.c:342 (discriminator 1)
    15e8:	b0000040 	adrp	x0, a000 <kprintf.constprop.0+0x540>
    15ec:	91328000 	add	x0, x0, #0xca0
    15f0:	91002000 	add	x0, x0, #0x8
    15f4:	97ffff8b 	bl	1420 <mpi_panic>
/home/xiang/rockpi4-android/optee_os/lib/libutee/tee_api_arith_mpi.c:329
    15f8:	aa1303f5 	mov	x21, x19
    15fc:	17ffffeb 	b	15a8 <bigint_binary+0x54>
/home/xiang/rockpi4-android/optee_os/lib/libutee/tee_api_arith_mpi.c:334
    1600:	aa1303f4 	mov	x20, x19
    1604:	17fffff2 	b	15cc <bigint_binary+0x78>
/home/xiang/rockpi4-android/optee_os/lib/libutee/tee_api_arith_mpi.c:336
    1608:	aa1503f4 	mov	x20, x21
    160c:	17fffff0 	b	15cc <bigint_binary+0x78>
/home/xiang/rockpi4-android/optee_os/lib/libutee/tee_api_arith_mpi.c:342
    1610:	aa1603e1 	mov	x1, x22
    1614:	aa1303e0 	mov	x0, x19
    1618:	97ffffb4 	bl	14e8 <copy_mpi_to_bigint>
    161c:	34000080 	cbz	w0, 162c <bigint_binary+0xd8>
/home/xiang/rockpi4-android/optee_os/lib/libutee/tee_api_arith_mpi.c:342 (discriminator 1)
    1620:	2a0003e2 	mov	w2, w0
    1624:	52802ac1 	mov	w1, #0x156                 	// #342
    1628:	17fffff0 	b	15e8 <bigint_binary+0x94>
/home/xiang/rockpi4-android/optee_os/lib/libutee/tee_api_arith_mpi.c:343
    162c:	aa1303e0 	mov	x0, x19
    1630:	94000cfc 	bl	4a20 <mbedtls_mpi_free>
/home/xiang/rockpi4-android/optee_os/lib/libutee/tee_api_arith_mpi.c:344
    1634:	eb1802bf 	cmp	x21, x24
    1638:	54000061 	b.ne	1644 <bigint_binary+0xf0>
/home/xiang/rockpi4-android/optee_os/lib/libutee/tee_api_arith_mpi.c:345
    163c:	aa1503e0 	mov	x0, x21
    1640:	94000cf8 	bl	4a20 <mbedtls_mpi_free>
/home/xiang/rockpi4-android/optee_os/lib/libutee/tee_api_arith_mpi.c:346
    1644:	eb17029f 	cmp	x20, x23
    1648:	54000061 	b.ne	1654 <bigint_binary+0x100>
/home/xiang/rockpi4-android/optee_os/lib/libutee/tee_api_arith_mpi.c:347
    164c:	aa1403e0 	mov	x0, x20
    1650:	94000cf4 	bl	4a20 <mbedtls_mpi_free>
/home/xiang/rockpi4-android/optee_os/lib/libutee/tee_api_arith_mpi.c:348
    1654:	a94153f3 	ldp	x19, x20, [sp,#16]
    1658:	a9425bf5 	ldp	x21, x22, [sp,#32]
    165c:	a94363f7 	ldp	x23, x24, [sp,#48]
    1660:	a9446bf9 	ldp	x25, x26, [sp,#64]
    1664:	a8ca7bfd 	ldp	x29, x30, [sp],#160
    1668:	d65f03c0 	ret

000000000000166c <mpi_is_odd>:
mpi_is_odd():
/home/xiang/rockpi4-android/optee_os/lib/libutee/tee_api_arith_mpi.c:591
    166c:	a9bf7bfd 	stp	x29, x30, [sp,#-16]!
/home/xiang/rockpi4-android/optee_os/lib/libutee/tee_api_arith_mpi.c:592
    1670:	d2800001 	mov	x1, #0x0                   	// #0
/home/xiang/rockpi4-android/optee_os/lib/libutee/tee_api_arith_mpi.c:591
    1674:	910003fd 	mov	x29, sp
/home/xiang/rockpi4-android/optee_os/lib/libutee/tee_api_arith_mpi.c:592
    1678:	94000e13 	bl	4ec4 <mbedtls_mpi_get_bit>
    167c:	7100001f 	cmp	w0, #0x0
/home/xiang/rockpi4-android/optee_os/lib/libutee/tee_api_arith_mpi.c:593
    1680:	1a9f07e0 	cset	w0, ne
    1684:	a8c17bfd 	ldp	x29, x30, [sp],#16
    1688:	d65f03c0 	ret

000000000000168c <rng_read>:
rng_read():
/home/xiang/rockpi4-android/optee_os/lib/libutee/tee_api_arith_mpi.c:756
    168c:	a9bf7bfd 	stp	x29, x30, [sp,#-16]!
    1690:	aa0103e0 	mov	x0, x1
/home/xiang/rockpi4-android/optee_os/lib/libutee/tee_api_arith_mpi.c:757
    1694:	aa0203e1 	mov	x1, x2
/home/xiang/rockpi4-android/optee_os/lib/libutee/tee_api_arith_mpi.c:756
    1698:	910003fd 	mov	x29, sp
/home/xiang/rockpi4-android/optee_os/lib/libutee/tee_api_arith_mpi.c:757
    169c:	97fffb1f 	bl	318 <_utee_cryp_random_number_generate>
/home/xiang/rockpi4-android/optee_os/lib/libutee/tee_api_arith_mpi.c:759
    16a0:	7100001f 	cmp	w0, #0x0
/home/xiang/rockpi4-android/optee_os/lib/libutee/tee_api_arith_mpi.c:760
    16a4:	a8c17bfd 	ldp	x29, x30, [sp],#16
    16a8:	12800020 	mov	w0, #0xfffffffe            	// #-2
    16ac:	1a9f1000 	csel	w0, w0, wzr, ne
    16b0:	d65f03c0 	ret

00000000000016b4 <mpi_egcd>:
mpi_egcd():
/home/xiang/rockpi4-android/optee_os/lib/libutee/tee_api_arith_mpi.c:606
    16b4:	a9ae7bfd 	stp	x29, x30, [sp,#-288]!
    16b8:	910003fd 	mov	x29, sp
    16bc:	a90363f7 	stp	x23, x24, [sp,#48]
get_mpi():
/home/xiang/rockpi4-android/optee_os/lib/libutee/tee_api_arith_mpi.c:101
    16c0:	9101e3b7 	add	x23, x29, #0x78
mpi_egcd():
/home/xiang/rockpi4-android/optee_os/lib/libutee/tee_api_arith_mpi.c:606
    16c4:	a90153f3 	stp	x19, x20, [sp,#16]
    16c8:	aa0003f8 	mov	x24, x0
    16cc:	a9060ba4 	stp	x4, x2, [x29,#96]
get_mpi():
/home/xiang/rockpi4-android/optee_os/lib/libutee/tee_api_arith_mpi.c:101
    16d0:	aa1703e0 	mov	x0, x23
mpi_egcd():
/home/xiang/rockpi4-android/optee_os/lib/libutee/tee_api_arith_mpi.c:606
    16d4:	a9025bf5 	stp	x21, x22, [sp,#32]
get_mpi():
/home/xiang/rockpi4-android/optee_os/lib/libutee/tee_api_arith_mpi.c:101
    16d8:	910243b6 	add	x22, x29, #0x90
mpi_egcd():
/home/xiang/rockpi4-android/optee_os/lib/libutee/tee_api_arith_mpi.c:606
    16dc:	a9046bf9 	stp	x25, x26, [sp,#64]
get_mpi():
/home/xiang/rockpi4-android/optee_os/lib/libutee/tee_api_arith_mpi.c:101
    16e0:	9102a3b4 	add	x20, x29, #0xa8
mpi_egcd():
/home/xiang/rockpi4-android/optee_os/lib/libutee/tee_api_arith_mpi.c:606
    16e4:	a90573fb 	stp	x27, x28, [sp,#80]
    16e8:	aa0103fc 	mov	x28, x1
    16ec:	aa0303fb 	mov	x27, x3
get_mpi():
/home/xiang/rockpi4-android/optee_os/lib/libutee/tee_api_arith_mpi.c:101
    16f0:	94000cc2 	bl	49f8 <mbedtls_mpi_init_mempool>
    16f4:	aa1603e0 	mov	x0, x22
    16f8:	94000cc0 	bl	49f8 <mbedtls_mpi_init_mempool>
    16fc:	aa1403e0 	mov	x0, x20
    1700:	910303b3 	add	x19, x29, #0xc0
    1704:	94000cbd 	bl	49f8 <mbedtls_mpi_init_mempool>
    1708:	910363ba 	add	x26, x29, #0xd8
    170c:	aa1303e0 	mov	x0, x19
    1710:	94000cba 	bl	49f8 <mbedtls_mpi_init_mempool>
    1714:	aa1a03e0 	mov	x0, x26
    1718:	9103c3b9 	add	x25, x29, #0xf0
    171c:	94000cb7 	bl	49f8 <mbedtls_mpi_init_mempool>
    1720:	910423b5 	add	x21, x29, #0x108
    1724:	aa1903e0 	mov	x0, x25
    1728:	94000cb4 	bl	49f8 <mbedtls_mpi_init_mempool>
    172c:	aa1503e0 	mov	x0, x21
    1730:	94000cb2 	bl	49f8 <mbedtls_mpi_init_mempool>
mpi_egcd():
/home/xiang/rockpi4-android/optee_os/lib/libutee/tee_api_arith_mpi.c:625
    1734:	f94033a0 	ldr	x0, [x29,#96]
    1738:	52800001 	mov	w1, #0x0                   	// #0
    173c:	94000fbb 	bl	5628 <mbedtls_mpi_cmp_int>
    1740:	35000320 	cbnz	w0, 17a4 <mpi_egcd+0xf0>
/home/xiang/rockpi4-android/optee_os/lib/libutee/tee_api_arith_mpi.c:626
    1744:	52800021 	mov	w1, #0x1                   	// #1
    1748:	aa1c03e0 	mov	x0, x28
    174c:	94000dc4 	bl	4e5c <mbedtls_mpi_lset>
    1750:	340000e0 	cbz	w0, 176c <mpi_egcd+0xb8>
/home/xiang/rockpi4-android/optee_os/lib/libutee/tee_api_arith_mpi.c:626 (discriminator 1)
    1754:	2a0003e2 	mov	w2, w0
    1758:	52804e41 	mov	w1, #0x272                 	// #626
/home/xiang/rockpi4-android/optee_os/lib/libutee/tee_api_arith_mpi.c:627 (discriminator 1)
    175c:	b0000040 	adrp	x0, a000 <kprintf.constprop.0+0x540>
    1760:	91328000 	add	x0, x0, #0xca0
    1764:	91006000 	add	x0, x0, #0x18
    1768:	97ffff2e 	bl	1420 <mpi_panic>
/home/xiang/rockpi4-android/optee_os/lib/libutee/tee_api_arith_mpi.c:627
    176c:	f94037a0 	ldr	x0, [x29,#104]
    1770:	52800001 	mov	w1, #0x0                   	// #0
    1774:	94000dba 	bl	4e5c <mbedtls_mpi_lset>
    1778:	34000080 	cbz	w0, 1788 <mpi_egcd+0xd4>
/home/xiang/rockpi4-android/optee_os/lib/libutee/tee_api_arith_mpi.c:627 (discriminator 1)
    177c:	2a0003e2 	mov	w2, w0
    1780:	52804e61 	mov	w1, #0x273                 	// #627
    1784:	17fffff6 	b	175c <mpi_egcd+0xa8>
/home/xiang/rockpi4-android/optee_os/lib/libutee/tee_api_arith_mpi.c:628
    1788:	aa1b03e1 	mov	x1, x27
    178c:	aa1803e0 	mov	x0, x24
    1790:	94000d62 	bl	4d18 <mbedtls_mpi_copy>
    1794:	34002060 	cbz	w0, 1ba0 <mpi_egcd+0x4ec>
/home/xiang/rockpi4-android/optee_os/lib/libutee/tee_api_arith_mpi.c:628 (discriminator 1)
    1798:	2a0003e2 	mov	w2, w0
    179c:	52804e81 	mov	w1, #0x274                 	// #628
    17a0:	17ffffef 	b	175c <mpi_egcd+0xa8>
/home/xiang/rockpi4-android/optee_os/lib/libutee/tee_api_arith_mpi.c:632
    17a4:	aa1b03e1 	mov	x1, x27
    17a8:	aa1a03e0 	mov	x0, x26
    17ac:	94000d5b 	bl	4d18 <mbedtls_mpi_copy>
    17b0:	34000080 	cbz	w0, 17c0 <mpi_egcd+0x10c>
/home/xiang/rockpi4-android/optee_os/lib/libutee/tee_api_arith_mpi.c:632 (discriminator 1)
    17b4:	2a0003e2 	mov	w2, w0
    17b8:	52804f01 	mov	w1, #0x278                 	// #632
    17bc:	17ffffe8 	b	175c <mpi_egcd+0xa8>
/home/xiang/rockpi4-android/optee_os/lib/libutee/tee_api_arith_mpi.c:633
    17c0:	f94033a1 	ldr	x1, [x29,#96]
    17c4:	aa1903e0 	mov	x0, x25
    17c8:	5280001b 	mov	w27, #0x0                   	// #0
    17cc:	94000d53 	bl	4d18 <mbedtls_mpi_copy>
    17d0:	34000160 	cbz	w0, 17fc <mpi_egcd+0x148>
/home/xiang/rockpi4-android/optee_os/lib/libutee/tee_api_arith_mpi.c:633 (discriminator 1)
    17d4:	2a0003e2 	mov	w2, w0
    17d8:	52804f21 	mov	w1, #0x279                 	// #633
    17dc:	17ffffe0 	b	175c <mpi_egcd+0xa8>
/home/xiang/rockpi4-android/optee_os/lib/libutee/tee_api_arith_mpi.c:639
    17e0:	d2800021 	mov	x1, #0x1                   	// #1
    17e4:	aa1903e0 	mov	x0, x25
    17e8:	94000ef9 	bl	53cc <mbedtls_mpi_shift_r>
    17ec:	34000080 	cbz	w0, 17fc <mpi_egcd+0x148>
/home/xiang/rockpi4-android/optee_os/lib/libutee/tee_api_arith_mpi.c:639 (discriminator 1)
    17f0:	2a0003e2 	mov	w2, w0
    17f4:	52804fe1 	mov	w1, #0x27f                 	// #639
    17f8:	17ffffd9 	b	175c <mpi_egcd+0xa8>
mpi_is_even():
/home/xiang/rockpi4-android/optee_os/lib/libutee/tee_api_arith_mpi.c:597
    17fc:	aa1a03e0 	mov	x0, x26
    1800:	97ffff9b 	bl	166c <mpi_is_odd>
mpi_egcd():
/home/xiang/rockpi4-android/optee_os/lib/libutee/tee_api_arith_mpi.c:636
    1804:	72001c1f 	tst	w0, #0xff
    1808:	54000100 	b.eq	1828 <mpi_egcd+0x174>
/home/xiang/rockpi4-android/optee_os/lib/libutee/tee_api_arith_mpi.c:642
    180c:	aa1a03e1 	mov	x1, x26
    1810:	aa1503e0 	mov	x0, x21
    1814:	94000d41 	bl	4d18 <mbedtls_mpi_copy>
    1818:	34000200 	cbz	w0, 1858 <mpi_egcd+0x1a4>
/home/xiang/rockpi4-android/optee_os/lib/libutee/tee_api_arith_mpi.c:642 (discriminator 1)
    181c:	2a0003e2 	mov	w2, w0
    1820:	52805041 	mov	w1, #0x282                 	// #642
    1824:	17ffffce 	b	175c <mpi_egcd+0xa8>
mpi_is_even():
/home/xiang/rockpi4-android/optee_os/lib/libutee/tee_api_arith_mpi.c:597
    1828:	aa1903e0 	mov	x0, x25
    182c:	97ffff90 	bl	166c <mpi_is_odd>
mpi_egcd():
/home/xiang/rockpi4-android/optee_os/lib/libutee/tee_api_arith_mpi.c:636
    1830:	72001c1f 	tst	w0, #0xff
    1834:	54fffec1 	b.ne	180c <mpi_egcd+0x158>
/home/xiang/rockpi4-android/optee_os/lib/libutee/tee_api_arith_mpi.c:637
    1838:	1100077b 	add	w27, w27, #0x1
/home/xiang/rockpi4-android/optee_os/lib/libutee/tee_api_arith_mpi.c:638
    183c:	d2800021 	mov	x1, #0x1                   	// #1
    1840:	aa1a03e0 	mov	x0, x26
    1844:	94000ee2 	bl	53cc <mbedtls_mpi_shift_r>
    1848:	34fffcc0 	cbz	w0, 17e0 <mpi_egcd+0x12c>
/home/xiang/rockpi4-android/optee_os/lib/libutee/tee_api_arith_mpi.c:638 (discriminator 1)
    184c:	2a0003e2 	mov	w2, w0
    1850:	52804fc1 	mov	w1, #0x27e                 	// #638
    1854:	17ffffc2 	b	175c <mpi_egcd+0xa8>
/home/xiang/rockpi4-android/optee_os/lib/libutee/tee_api_arith_mpi.c:643
    1858:	aa1903e1 	mov	x1, x25
    185c:	aa1803e0 	mov	x0, x24
    1860:	94000d2e 	bl	4d18 <mbedtls_mpi_copy>
    1864:	34000080 	cbz	w0, 1874 <mpi_egcd+0x1c0>
/home/xiang/rockpi4-android/optee_os/lib/libutee/tee_api_arith_mpi.c:643 (discriminator 1)
    1868:	2a0003e2 	mov	w2, w0
    186c:	52805061 	mov	w1, #0x283                 	// #643
    1870:	17ffffbb 	b	175c <mpi_egcd+0xa8>
/home/xiang/rockpi4-android/optee_os/lib/libutee/tee_api_arith_mpi.c:644
    1874:	52800021 	mov	w1, #0x1                   	// #1
    1878:	aa1703e0 	mov	x0, x23
    187c:	94000d78 	bl	4e5c <mbedtls_mpi_lset>
    1880:	34000080 	cbz	w0, 1890 <mpi_egcd+0x1dc>
/home/xiang/rockpi4-android/optee_os/lib/libutee/tee_api_arith_mpi.c:644 (discriminator 1)
    1884:	2a0003e2 	mov	w2, w0
    1888:	52805081 	mov	w1, #0x284                 	// #644
    188c:	17ffffb4 	b	175c <mpi_egcd+0xa8>
/home/xiang/rockpi4-android/optee_os/lib/libutee/tee_api_arith_mpi.c:645
    1890:	52800001 	mov	w1, #0x0                   	// #0
    1894:	aa1603e0 	mov	x0, x22
    1898:	94000d71 	bl	4e5c <mbedtls_mpi_lset>
    189c:	34000080 	cbz	w0, 18ac <mpi_egcd+0x1f8>
/home/xiang/rockpi4-android/optee_os/lib/libutee/tee_api_arith_mpi.c:645 (discriminator 1)
    18a0:	2a0003e2 	mov	w2, w0
    18a4:	528050a1 	mov	w1, #0x285                 	// #645
    18a8:	17ffffad 	b	175c <mpi_egcd+0xa8>
/home/xiang/rockpi4-android/optee_os/lib/libutee/tee_api_arith_mpi.c:646
    18ac:	52800001 	mov	w1, #0x0                   	// #0
    18b0:	aa1403e0 	mov	x0, x20
    18b4:	94000d6a 	bl	4e5c <mbedtls_mpi_lset>
    18b8:	34000080 	cbz	w0, 18c8 <mpi_egcd+0x214>
/home/xiang/rockpi4-android/optee_os/lib/libutee/tee_api_arith_mpi.c:646 (discriminator 1)
    18bc:	2a0003e2 	mov	w2, w0
    18c0:	528050c1 	mov	w1, #0x286                 	// #646
    18c4:	17ffffa6 	b	175c <mpi_egcd+0xa8>
/home/xiang/rockpi4-android/optee_os/lib/libutee/tee_api_arith_mpi.c:647
    18c8:	52800021 	mov	w1, #0x1                   	// #1
    18cc:	aa1303e0 	mov	x0, x19
    18d0:	94000d63 	bl	4e5c <mbedtls_mpi_lset>
    18d4:	34001340 	cbz	w0, 1b3c <mpi_egcd+0x488>
/home/xiang/rockpi4-android/optee_os/lib/libutee/tee_api_arith_mpi.c:647 (discriminator 1)
    18d8:	2a0003e2 	mov	w2, w0
    18dc:	528050e1 	mov	w1, #0x287                 	// #647
    18e0:	17ffff9f 	b	175c <mpi_egcd+0xa8>
/home/xiang/rockpi4-android/optee_os/lib/libutee/tee_api_arith_mpi.c:651
    18e4:	d2800021 	mov	x1, #0x1                   	// #1
    18e8:	aa1503e0 	mov	x0, x21
    18ec:	94000eb8 	bl	53cc <mbedtls_mpi_shift_r>
    18f0:	34000080 	cbz	w0, 1900 <mpi_egcd+0x24c>
/home/xiang/rockpi4-android/optee_os/lib/libutee/tee_api_arith_mpi.c:651 (discriminator 1)
    18f4:	2a0003e2 	mov	w2, w0
    18f8:	52805161 	mov	w1, #0x28b                 	// #651
    18fc:	17ffff98 	b	175c <mpi_egcd+0xa8>
/home/xiang/rockpi4-android/optee_os/lib/libutee/tee_api_arith_mpi.c:652
    1900:	aa1703e0 	mov	x0, x23
    1904:	97ffff5a 	bl	166c <mpi_is_odd>
    1908:	72001c1f 	tst	w0, #0xff
    190c:	54000120 	b.eq	1930 <mpi_egcd+0x27c>
/home/xiang/rockpi4-android/optee_os/lib/libutee/tee_api_arith_mpi.c:653
    1910:	aa1903e2 	mov	x2, x25
    1914:	aa1703e1 	mov	x1, x23
    1918:	aa1703e0 	mov	x0, x23
    191c:	94000ffb 	bl	5908 <mbedtls_mpi_add_mpi>
    1920:	340001e0 	cbz	w0, 195c <mpi_egcd+0x2a8>
/home/xiang/rockpi4-android/optee_os/lib/libutee/tee_api_arith_mpi.c:653 (discriminator 1)
    1924:	2a0003e2 	mov	w2, w0
    1928:	528051a1 	mov	w1, #0x28d                 	// #653
    192c:	17ffff8c 	b	175c <mpi_egcd+0xa8>
/home/xiang/rockpi4-android/optee_os/lib/libutee/tee_api_arith_mpi.c:652 (discriminator 1)
    1930:	aa1603e0 	mov	x0, x22
    1934:	97ffff4e 	bl	166c <mpi_is_odd>
    1938:	72001c1f 	tst	w0, #0xff
    193c:	54fffea1 	b.ne	1910 <mpi_egcd+0x25c>
/home/xiang/rockpi4-android/optee_os/lib/libutee/tee_api_arith_mpi.c:656
    1940:	d2800021 	mov	x1, #0x1                   	// #1
    1944:	aa1703e0 	mov	x0, x23
    1948:	94000ea1 	bl	53cc <mbedtls_mpi_shift_r>
    194c:	34000180 	cbz	w0, 197c <mpi_egcd+0x2c8>
/home/xiang/rockpi4-android/optee_os/lib/libutee/tee_api_arith_mpi.c:656 (discriminator 1)
    1950:	2a0003e2 	mov	w2, w0
    1954:	52805201 	mov	w1, #0x290                 	// #656
    1958:	17ffff81 	b	175c <mpi_egcd+0xa8>
/home/xiang/rockpi4-android/optee_os/lib/libutee/tee_api_arith_mpi.c:654
    195c:	aa1a03e2 	mov	x2, x26
    1960:	aa1603e1 	mov	x1, x22
    1964:	aa1603e0 	mov	x0, x22
    1968:	9400100a 	bl	5990 <mbedtls_mpi_sub_mpi>
    196c:	34fffea0 	cbz	w0, 1940 <mpi_egcd+0x28c>
/home/xiang/rockpi4-android/optee_os/lib/libutee/tee_api_arith_mpi.c:654 (discriminator 1)
    1970:	2a0003e2 	mov	w2, w0
    1974:	528051c1 	mov	w1, #0x28e                 	// #654
    1978:	17ffff79 	b	175c <mpi_egcd+0xa8>
/home/xiang/rockpi4-android/optee_os/lib/libutee/tee_api_arith_mpi.c:657
    197c:	d2800021 	mov	x1, #0x1                   	// #1
    1980:	aa1603e0 	mov	x0, x22
    1984:	94000e92 	bl	53cc <mbedtls_mpi_shift_r>
    1988:	34000080 	cbz	w0, 1998 <mpi_egcd+0x2e4>
/home/xiang/rockpi4-android/optee_os/lib/libutee/tee_api_arith_mpi.c:657 (discriminator 1)
    198c:	2a0003e2 	mov	w2, w0
    1990:	52805221 	mov	w1, #0x291                 	// #657
    1994:	17ffff72 	b	175c <mpi_egcd+0xa8>
mpi_is_even():
/home/xiang/rockpi4-android/optee_os/lib/libutee/tee_api_arith_mpi.c:597
    1998:	aa1503e0 	mov	x0, x21
    199c:	97ffff34 	bl	166c <mpi_is_odd>
mpi_egcd():
/home/xiang/rockpi4-android/optee_os/lib/libutee/tee_api_arith_mpi.c:650
    19a0:	72001c1f 	tst	w0, #0xff
    19a4:	54fffa00 	b.eq	18e4 <mpi_egcd+0x230>
mpi_is_even():
/home/xiang/rockpi4-android/optee_os/lib/libutee/tee_api_arith_mpi.c:597
    19a8:	aa1803e0 	mov	x0, x24
    19ac:	97ffff30 	bl	166c <mpi_is_odd>
mpi_egcd():
/home/xiang/rockpi4-android/optee_os/lib/libutee/tee_api_arith_mpi.c:660
    19b0:	72001c1f 	tst	w0, #0xff
    19b4:	540001a0 	b.eq	19e8 <mpi_egcd+0x334>
/home/xiang/rockpi4-android/optee_os/lib/libutee/tee_api_arith_mpi.c:671
    19b8:	aa1803e1 	mov	x1, x24
    19bc:	aa1503e0 	mov	x0, x21
    19c0:	94000ede 	bl	5538 <mbedtls_mpi_cmp_mpi>
    19c4:	37f808c0 	tbnz	w0, #31, 1adc <mpi_egcd+0x428>
/home/xiang/rockpi4-android/optee_os/lib/libutee/tee_api_arith_mpi.c:672
    19c8:	aa1803e2 	mov	x2, x24
    19cc:	aa1503e1 	mov	x1, x21
    19d0:	aa1503e0 	mov	x0, x21
    19d4:	94000fef 	bl	5990 <mbedtls_mpi_sub_mpi>
    19d8:	34000620 	cbz	w0, 1a9c <mpi_egcd+0x3e8>
/home/xiang/rockpi4-android/optee_os/lib/libutee/tee_api_arith_mpi.c:672 (discriminator 1)
    19dc:	2a0003e2 	mov	w2, w0
    19e0:	52805401 	mov	w1, #0x2a0                 	// #672
    19e4:	17ffff5e 	b	175c <mpi_egcd+0xa8>
/home/xiang/rockpi4-android/optee_os/lib/libutee/tee_api_arith_mpi.c:661
    19e8:	d2800021 	mov	x1, #0x1                   	// #1
    19ec:	aa1803e0 	mov	x0, x24
    19f0:	94000e77 	bl	53cc <mbedtls_mpi_shift_r>
    19f4:	34000080 	cbz	w0, 1a04 <mpi_egcd+0x350>
/home/xiang/rockpi4-android/optee_os/lib/libutee/tee_api_arith_mpi.c:661 (discriminator 1)
    19f8:	2a0003e2 	mov	w2, w0
    19fc:	528052a1 	mov	w1, #0x295                 	// #661
    1a00:	17ffff57 	b	175c <mpi_egcd+0xa8>
/home/xiang/rockpi4-android/optee_os/lib/libutee/tee_api_arith_mpi.c:662
    1a04:	aa1403e0 	mov	x0, x20
    1a08:	97ffff19 	bl	166c <mpi_is_odd>
    1a0c:	72001c1f 	tst	w0, #0xff
    1a10:	54000120 	b.eq	1a34 <mpi_egcd+0x380>
/home/xiang/rockpi4-android/optee_os/lib/libutee/tee_api_arith_mpi.c:663
    1a14:	aa1903e2 	mov	x2, x25
    1a18:	aa1403e1 	mov	x1, x20
    1a1c:	aa1403e0 	mov	x0, x20
    1a20:	94000fba 	bl	5908 <mbedtls_mpi_add_mpi>
    1a24:	340001e0 	cbz	w0, 1a60 <mpi_egcd+0x3ac>
/home/xiang/rockpi4-android/optee_os/lib/libutee/tee_api_arith_mpi.c:663 (discriminator 1)
    1a28:	2a0003e2 	mov	w2, w0
    1a2c:	528052e1 	mov	w1, #0x297                 	// #663
    1a30:	17ffff4b 	b	175c <mpi_egcd+0xa8>
/home/xiang/rockpi4-android/optee_os/lib/libutee/tee_api_arith_mpi.c:662 (discriminator 1)
    1a34:	aa1303e0 	mov	x0, x19
    1a38:	97ffff0d 	bl	166c <mpi_is_odd>
    1a3c:	72001c1f 	tst	w0, #0xff
    1a40:	54fffea1 	b.ne	1a14 <mpi_egcd+0x360>
/home/xiang/rockpi4-android/optee_os/lib/libutee/tee_api_arith_mpi.c:666
    1a44:	d2800021 	mov	x1, #0x1                   	// #1
    1a48:	aa1403e0 	mov	x0, x20
    1a4c:	94000e60 	bl	53cc <mbedtls_mpi_shift_r>
    1a50:	34000180 	cbz	w0, 1a80 <mpi_egcd+0x3cc>
/home/xiang/rockpi4-android/optee_os/lib/libutee/tee_api_arith_mpi.c:666 (discriminator 1)
    1a54:	2a0003e2 	mov	w2, w0
    1a58:	52805341 	mov	w1, #0x29a                 	// #666
    1a5c:	17ffff40 	b	175c <mpi_egcd+0xa8>
/home/xiang/rockpi4-android/optee_os/lib/libutee/tee_api_arith_mpi.c:664
    1a60:	aa1a03e2 	mov	x2, x26
    1a64:	aa1303e1 	mov	x1, x19
    1a68:	aa1303e0 	mov	x0, x19
    1a6c:	94000fc9 	bl	5990 <mbedtls_mpi_sub_mpi>
    1a70:	34fffea0 	cbz	w0, 1a44 <mpi_egcd+0x390>
/home/xiang/rockpi4-android/optee_os/lib/libutee/tee_api_arith_mpi.c:664 (discriminator 1)
    1a74:	2a0003e2 	mov	w2, w0
    1a78:	52805301 	mov	w1, #0x298                 	// #664
    1a7c:	17ffff38 	b	175c <mpi_egcd+0xa8>
/home/xiang/rockpi4-android/optee_os/lib/libutee/tee_api_arith_mpi.c:667
    1a80:	d2800021 	mov	x1, #0x1                   	// #1
    1a84:	aa1303e0 	mov	x0, x19
    1a88:	94000e51 	bl	53cc <mbedtls_mpi_shift_r>
    1a8c:	34fff8e0 	cbz	w0, 19a8 <mpi_egcd+0x2f4>
/home/xiang/rockpi4-android/optee_os/lib/libutee/tee_api_arith_mpi.c:667 (discriminator 1)
    1a90:	2a0003e2 	mov	w2, w0
    1a94:	52805361 	mov	w1, #0x29b                 	// #667
    1a98:	17ffff31 	b	175c <mpi_egcd+0xa8>
/home/xiang/rockpi4-android/optee_os/lib/libutee/tee_api_arith_mpi.c:673
    1a9c:	aa1403e2 	mov	x2, x20
    1aa0:	aa1703e1 	mov	x1, x23
    1aa4:	aa1703e0 	mov	x0, x23
    1aa8:	94000fba 	bl	5990 <mbedtls_mpi_sub_mpi>
    1aac:	34000080 	cbz	w0, 1abc <mpi_egcd+0x408>
/home/xiang/rockpi4-android/optee_os/lib/libutee/tee_api_arith_mpi.c:673 (discriminator 1)
    1ab0:	2a0003e2 	mov	w2, w0
    1ab4:	52805421 	mov	w1, #0x2a1                 	// #673
    1ab8:	17ffff29 	b	175c <mpi_egcd+0xa8>
/home/xiang/rockpi4-android/optee_os/lib/libutee/tee_api_arith_mpi.c:674
    1abc:	aa1303e2 	mov	x2, x19
    1ac0:	aa1603e1 	mov	x1, x22
    1ac4:	aa1603e0 	mov	x0, x22
    1ac8:	94000fb2 	bl	5990 <mbedtls_mpi_sub_mpi>
    1acc:	34000380 	cbz	w0, 1b3c <mpi_egcd+0x488>
/home/xiang/rockpi4-android/optee_os/lib/libutee/tee_api_arith_mpi.c:674 (discriminator 1)
    1ad0:	2a0003e2 	mov	w2, w0
    1ad4:	52805441 	mov	w1, #0x2a2                 	// #674
    1ad8:	17ffff21 	b	175c <mpi_egcd+0xa8>
/home/xiang/rockpi4-android/optee_os/lib/libutee/tee_api_arith_mpi.c:676
    1adc:	aa1503e2 	mov	x2, x21
    1ae0:	aa1803e1 	mov	x1, x24
    1ae4:	aa1803e0 	mov	x0, x24
    1ae8:	94000faa 	bl	5990 <mbedtls_mpi_sub_mpi>
    1aec:	34000080 	cbz	w0, 1afc <mpi_egcd+0x448>
/home/xiang/rockpi4-android/optee_os/lib/libutee/tee_api_arith_mpi.c:676 (discriminator 1)
    1af0:	2a0003e2 	mov	w2, w0
    1af4:	52805481 	mov	w1, #0x2a4                 	// #676
    1af8:	17ffff19 	b	175c <mpi_egcd+0xa8>
/home/xiang/rockpi4-android/optee_os/lib/libutee/tee_api_arith_mpi.c:677
    1afc:	aa1703e2 	mov	x2, x23
    1b00:	aa1403e1 	mov	x1, x20
    1b04:	aa1403e0 	mov	x0, x20
    1b08:	94000fa2 	bl	5990 <mbedtls_mpi_sub_mpi>
    1b0c:	34000080 	cbz	w0, 1b1c <mpi_egcd+0x468>
/home/xiang/rockpi4-android/optee_os/lib/libutee/tee_api_arith_mpi.c:677 (discriminator 1)
    1b10:	2a0003e2 	mov	w2, w0
    1b14:	528054a1 	mov	w1, #0x2a5                 	// #677
    1b18:	17ffff11 	b	175c <mpi_egcd+0xa8>
/home/xiang/rockpi4-android/optee_os/lib/libutee/tee_api_arith_mpi.c:678
    1b1c:	aa1603e2 	mov	x2, x22
    1b20:	aa1303e1 	mov	x1, x19
    1b24:	aa1303e0 	mov	x0, x19
    1b28:	94000f9a 	bl	5990 <mbedtls_mpi_sub_mpi>
    1b2c:	34000080 	cbz	w0, 1b3c <mpi_egcd+0x488>
/home/xiang/rockpi4-android/optee_os/lib/libutee/tee_api_arith_mpi.c:678 (discriminator 1)
    1b30:	2a0003e2 	mov	w2, w0
    1b34:	528054c1 	mov	w1, #0x2a6                 	// #678
    1b38:	17ffff09 	b	175c <mpi_egcd+0xa8>
/home/xiang/rockpi4-android/optee_os/lib/libutee/tee_api_arith_mpi.c:649
    1b3c:	52800001 	mov	w1, #0x0                   	// #0
    1b40:	aa1503e0 	mov	x0, x21
    1b44:	94000eb9 	bl	5628 <mbedtls_mpi_cmp_int>
    1b48:	35fff280 	cbnz	w0, 1998 <mpi_egcd+0x2e4>
/home/xiang/rockpi4-android/optee_os/lib/libutee/tee_api_arith_mpi.c:682
    1b4c:	aa1403e1 	mov	x1, x20
    1b50:	aa1c03e0 	mov	x0, x28
    1b54:	94000c71 	bl	4d18 <mbedtls_mpi_copy>
    1b58:	34000080 	cbz	w0, 1b68 <mpi_egcd+0x4b4>
/home/xiang/rockpi4-android/optee_os/lib/libutee/tee_api_arith_mpi.c:682 (discriminator 1)
    1b5c:	2a0003e2 	mov	w2, w0
    1b60:	52805541 	mov	w1, #0x2aa                 	// #682
    1b64:	17fffefe 	b	175c <mpi_egcd+0xa8>
/home/xiang/rockpi4-android/optee_os/lib/libutee/tee_api_arith_mpi.c:683
    1b68:	f94037a0 	ldr	x0, [x29,#104]
    1b6c:	aa1303e1 	mov	x1, x19
    1b70:	94000c6a 	bl	4d18 <mbedtls_mpi_copy>
    1b74:	34000080 	cbz	w0, 1b84 <mpi_egcd+0x4d0>
/home/xiang/rockpi4-android/optee_os/lib/libutee/tee_api_arith_mpi.c:683 (discriminator 1)
    1b78:	2a0003e2 	mov	w2, w0
    1b7c:	52805561 	mov	w1, #0x2ab                 	// #683
    1b80:	17fffef7 	b	175c <mpi_egcd+0xa8>
/home/xiang/rockpi4-android/optee_os/lib/libutee/tee_api_arith_mpi.c:684
    1b84:	2a1b03e1 	mov	w1, w27
    1b88:	aa1803e0 	mov	x0, x24
    1b8c:	94000dd0 	bl	52cc <mbedtls_mpi_shift_l>
    1b90:	34000080 	cbz	w0, 1ba0 <mpi_egcd+0x4ec>
/home/xiang/rockpi4-android/optee_os/lib/libutee/tee_api_arith_mpi.c:684 (discriminator 1)
    1b94:	2a0003e2 	mov	w2, w0
    1b98:	52805581 	mov	w1, #0x2ac                 	// #684
    1b9c:	17fffef0 	b	175c <mpi_egcd+0xa8>
/home/xiang/rockpi4-android/optee_os/lib/libutee/tee_api_arith_mpi.c:687
    1ba0:	aa1703e0 	mov	x0, x23
    1ba4:	94000b9f 	bl	4a20 <mbedtls_mpi_free>
/home/xiang/rockpi4-android/optee_os/lib/libutee/tee_api_arith_mpi.c:688
    1ba8:	aa1603e0 	mov	x0, x22
    1bac:	94000b9d 	bl	4a20 <mbedtls_mpi_free>
/home/xiang/rockpi4-android/optee_os/lib/libutee/tee_api_arith_mpi.c:689
    1bb0:	aa1403e0 	mov	x0, x20
    1bb4:	94000b9b 	bl	4a20 <mbedtls_mpi_free>
/home/xiang/rockpi4-android/optee_os/lib/libutee/tee_api_arith_mpi.c:690
    1bb8:	aa1303e0 	mov	x0, x19
    1bbc:	94000b99 	bl	4a20 <mbedtls_mpi_free>
/home/xiang/rockpi4-android/optee_os/lib/libutee/tee_api_arith_mpi.c:691
    1bc0:	aa1a03e0 	mov	x0, x26
    1bc4:	94000b97 	bl	4a20 <mbedtls_mpi_free>
/home/xiang/rockpi4-android/optee_os/lib/libutee/tee_api_arith_mpi.c:692
    1bc8:	aa1903e0 	mov	x0, x25
    1bcc:	94000b95 	bl	4a20 <mbedtls_mpi_free>
/home/xiang/rockpi4-android/optee_os/lib/libutee/tee_api_arith_mpi.c:693
    1bd0:	aa1503e0 	mov	x0, x21
    1bd4:	94000b93 	bl	4a20 <mbedtls_mpi_free>
/home/xiang/rockpi4-android/optee_os/lib/libutee/tee_api_arith_mpi.c:694
    1bd8:	a94153f3 	ldp	x19, x20, [sp,#16]
    1bdc:	a9425bf5 	ldp	x21, x22, [sp,#32]
    1be0:	a94363f7 	ldp	x23, x24, [sp,#48]
    1be4:	a9446bf9 	ldp	x25, x26, [sp,#64]
    1be8:	a94573fb 	ldp	x27, x28, [sp,#80]
    1bec:	a8d27bfd 	ldp	x29, x30, [sp],#288
    1bf0:	d65f03c0 	ret

0000000000001bf4 <_TEE_MathAPI_Init>:
_TEE_MathAPI_Init():
/home/xiang/rockpi4-android/optee_os/lib/libutee/tee_api_arith_mpi.c:44
    1bf4:	a9bf7bfd 	stp	x29, x30, [sp,#-16]!
/home/xiang/rockpi4-android/optee_os/lib/libutee/tee_api_arith_mpi.c:47
    1bf8:	d2860001 	mov	x1, #0x3000                	// #12288
    1bfc:	d2800002 	mov	x2, #0x0                   	// #0
    1c00:	900000a0 	adrp	x0, 15000 <ta_heap+0x7b10>
/home/xiang/rockpi4-android/optee_os/lib/libutee/tee_api_arith_mpi.c:44
    1c04:	910003fd 	mov	x29, sp
/home/xiang/rockpi4-android/optee_os/lib/libutee/tee_api_arith_mpi.c:47
    1c08:	91158000 	add	x0, x0, #0x560
    1c0c:	9400237d 	bl	aa00 <mempool_alloc_pool>
    1c10:	90000061 	adrp	x1, d000 <_DYNAMIC>
    1c14:	f940cc21 	ldr	x1, [x1,#408]
    1c18:	f9000020 	str	x0, [x1]
/home/xiang/rockpi4-android/optee_os/lib/libutee/tee_api_arith_mpi.c:48
    1c1c:	b5000100 	cbnz	x0, 1c3c <_TEE_MathAPI_Init+0x48>
/home/xiang/rockpi4-android/optee_os/lib/libutee/tee_api_arith_mpi.c:49
    1c20:	b0000040 	adrp	x0, a000 <kprintf.constprop.0+0x540>
    1c24:	91328000 	add	x0, x0, #0xca0
    1c28:	d0000042 	adrp	x2, b000 <small_prime+0x140>
    1c2c:	52800621 	mov	w1, #0x31                  	// #49
    1c30:	91103442 	add	x2, x2, #0x40d
    1c34:	9100a000 	add	x0, x0, #0x28
    1c38:	94000445 	bl	2d4c <api_panic>
/home/xiang/rockpi4-android/optee_os/lib/libutee/tee_api_arith_mpi.c:50
    1c3c:	a8c17bfd 	ldp	x29, x30, [sp],#16
    1c40:	d65f03c0 	ret

0000000000001c44 <TEE_BigIntInit>:
TEE_BigIntInit():
/home/xiang/rockpi4-android/optee_os/lib/libutee/tee_api_arith_mpi.c:119
    1c44:	a9be7bfd 	stp	x29, x30, [sp,#-32]!
    1c48:	910003fd 	mov	x29, sp
    1c4c:	a90153f3 	stp	x19, x20, [sp,#16]
    1c50:	aa0003f4 	mov	x20, x0
    1c54:	2a0103f3 	mov	w19, w1
/home/xiang/rockpi4-android/optee_os/lib/libutee/tee_api_arith_mpi.c:122
    1c58:	52800001 	mov	w1, #0x0                   	// #0
    1c5c:	d37e7e62 	ubfiz	x2, x19, #2, #32
    1c60:	94001f29 	bl	9904 <memset>
/home/xiang/rockpi4-android/optee_os/lib/libutee/tee_api_arith_mpi.c:123
    1c64:	52800020 	mov	w0, #0x1                   	// #1
    1c68:	b9000280 	str	w0, [x20]
/home/xiang/rockpi4-android/optee_os/lib/libutee/tee_api_arith_mpi.c:124
    1c6c:	51000a73 	sub	w19, w19, #0x2
    1c70:	5284e200 	mov	w0, #0x2710                	// #10000
    1c74:	6b00027f 	cmp	w19, w0
    1c78:	54000109 	b.ls	1c98 <TEE_BigIntInit+0x54>
/home/xiang/rockpi4-android/optee_os/lib/libutee/tee_api_arith_mpi.c:125
    1c7c:	b0000040 	adrp	x0, a000 <kprintf.constprop.0+0x540>
    1c80:	91328000 	add	x0, x0, #0xca0
    1c84:	d0000042 	adrp	x2, b000 <small_prime+0x140>
    1c88:	52800fa1 	mov	w1, #0x7d                  	// #125
    1c8c:	9110b842 	add	x2, x2, #0x42e
    1c90:	91010000 	add	x0, x0, #0x40
    1c94:	9400042e 	bl	2d4c <api_panic>
/home/xiang/rockpi4-android/optee_os/lib/libutee/tee_api_arith_mpi.c:126
    1c98:	79000a93 	strh	w19, [x20,#4]
/home/xiang/rockpi4-android/optee_os/lib/libutee/tee_api_arith_mpi.c:127
    1c9c:	a94153f3 	ldp	x19, x20, [sp,#16]
    1ca0:	a8c27bfd 	ldp	x29, x30, [sp],#32
    1ca4:	d65f03c0 	ret

0000000000001ca8 <TEE_BigIntConvertFromOctetString>:
TEE_BigIntConvertFromOctetString():
/home/xiang/rockpi4-android/optee_os/lib/libutee/tee_api_arith_mpi.c:132
    1ca8:	a9ba7bfd 	stp	x29, x30, [sp,#-96]!
    1cac:	910003fd 	mov	x29, sp
    1cb0:	a90153f3 	stp	x19, x20, [sp,#16]
get_mpi():
/home/xiang/rockpi4-android/optee_os/lib/libutee/tee_api_arith_mpi.c:101
    1cb4:	910123b4 	add	x20, x29, #0x48
TEE_BigIntConvertFromOctetString():
/home/xiang/rockpi4-android/optee_os/lib/libutee/tee_api_arith_mpi.c:132
    1cb8:	a9025bf5 	stp	x21, x22, [sp,#32]
    1cbc:	2a0303f3 	mov	w19, w3
    1cc0:	f9001bf7 	str	x23, [sp,#48]
    1cc4:	aa0103f6 	mov	x22, x1
    1cc8:	2a0203f7 	mov	w23, w2
    1ccc:	aa0003f5 	mov	x21, x0
get_mpi():
/home/xiang/rockpi4-android/optee_os/lib/libutee/tee_api_arith_mpi.c:101
    1cd0:	aa1403e0 	mov	x0, x20
    1cd4:	94000b49 	bl	49f8 <mbedtls_mpi_init_mempool>
TEE_BigIntConvertFromOctetString():
/home/xiang/rockpi4-android/optee_os/lib/libutee/tee_api_arith_mpi.c:138
    1cd8:	2a1703e2 	mov	w2, w23
    1cdc:	aa1603e1 	mov	x1, x22
    1ce0:	aa1403e0 	mov	x0, x20
    1ce4:	94000cfb 	bl	50d0 <mbedtls_mpi_read_binary>
    1ce8:	35000280 	cbnz	w0, 1d38 <TEE_BigIntConvertFromOctetString+0x90>
/home/xiang/rockpi4-android/optee_os/lib/libutee/tee_api_arith_mpi.c:143
    1cec:	36f800b3 	tbz	w19, #31, 1d00 <TEE_BigIntConvertFromOctetString+0x58>
/home/xiang/rockpi4-android/optee_os/lib/libutee/tee_api_arith_mpi.c:141
    1cf0:	52800013 	mov	w19, #0x0                   	// #0
/home/xiang/rockpi4-android/optee_os/lib/libutee/tee_api_arith_mpi.c:144
    1cf4:	12800000 	mov	w0, #0xffffffff            	// #-1
    1cf8:	790093a0 	strh	w0, [x29,#72]
/home/xiang/rockpi4-android/optee_os/lib/libutee/tee_api_arith_mpi.c:146
    1cfc:	350000b3 	cbnz	w19, 1d10 <TEE_BigIntConvertFromOctetString+0x68>
/home/xiang/rockpi4-android/optee_os/lib/libutee/tee_api_arith_mpi.c:147
    1d00:	aa1503e1 	mov	x1, x21
    1d04:	aa1403e0 	mov	x0, x20
    1d08:	97fffdf8 	bl	14e8 <copy_mpi_to_bigint>
    1d0c:	2a0003f3 	mov	w19, w0
/home/xiang/rockpi4-android/optee_os/lib/libutee/tee_api_arith_mpi.c:149
    1d10:	aa1403e0 	mov	x0, x20
    1d14:	94000b43 	bl	4a20 <mbedtls_mpi_free>
/home/xiang/rockpi4-android/optee_os/lib/libutee/tee_api_arith_mpi.c:152
    1d18:	2a1303e0 	mov	w0, w19
    1d1c:	f9401bf7 	ldr	x23, [sp,#48]
    1d20:	a94153f3 	ldp	x19, x20, [sp,#16]
    1d24:	a9425bf5 	ldp	x21, x22, [sp,#32]
    1d28:	a8c67bfd 	ldp	x29, x30, [sp],#96
    1d2c:	d65f03c0 	ret
/home/xiang/rockpi4-android/optee_os/lib/libutee/tee_api_arith_mpi.c:139
    1d30:	1299fe13 	mov	w19, #0xffff300f            	// #-53233
    1d34:	17fffff0 	b	1cf4 <TEE_BigIntConvertFromOctetString+0x4c>
/home/xiang/rockpi4-android/optee_os/lib/libutee/tee_api_arith_mpi.c:143
    1d38:	37ffffd3 	tbnz	w19, #31, 1d30 <TEE_BigIntConvertFromOctetString+0x88>
/home/xiang/rockpi4-android/optee_os/lib/libutee/tee_api_arith_mpi.c:139
    1d3c:	1299fe13 	mov	w19, #0xffff300f            	// #-53233
    1d40:	17fffff4 	b	1d10 <TEE_BigIntConvertFromOctetString+0x68>

0000000000001d44 <TEE_BigIntConvertToOctetString>:
TEE_BigIntConvertToOctetString():
/home/xiang/rockpi4-android/optee_os/lib/libutee/tee_api_arith_mpi.c:156
    1d44:	a9bb7bfd 	stp	x29, x30, [sp,#-80]!
    1d48:	910003fd 	mov	x29, sp
    1d4c:	a9025bf5 	stp	x21, x22, [sp,#32]
    1d50:	aa0103f6 	mov	x22, x1
/home/xiang/rockpi4-android/optee_os/lib/libutee/tee_api_arith_mpi.c:161
    1d54:	aa0203e1 	mov	x1, x2
/home/xiang/rockpi4-android/optee_os/lib/libutee/tee_api_arith_mpi.c:156
    1d58:	a90153f3 	stp	x19, x20, [sp,#16]
/home/xiang/rockpi4-android/optee_os/lib/libutee/tee_api_arith_mpi.c:161
    1d5c:	9100e3b3 	add	x19, x29, #0x38
/home/xiang/rockpi4-android/optee_os/lib/libutee/tee_api_arith_mpi.c:156
    1d60:	aa0003f5 	mov	x21, x0
/home/xiang/rockpi4-android/optee_os/lib/libutee/tee_api_arith_mpi.c:161
    1d64:	aa1303e0 	mov	x0, x19
    1d68:	97fffdba 	bl	1450 <get_mpi>
/home/xiang/rockpi4-android/optee_os/lib/libutee/tee_api_arith_mpi.c:163
    1d6c:	aa1303e0 	mov	x0, x19
    1d70:	94000cb4 	bl	5040 <mbedtls_mpi_size>
    1d74:	aa0003f4 	mov	x20, x0
/home/xiang/rockpi4-android/optee_os/lib/libutee/tee_api_arith_mpi.c:164
    1d78:	b94002c0 	ldr	w0, [x22]
    1d7c:	eb00029f 	cmp	x20, x0
    1d80:	540001a8 	b.hi	1db4 <TEE_BigIntConvertToOctetString+0x70>
/home/xiang/rockpi4-android/optee_os/lib/libutee/tee_api_arith_mpi.c:165
    1d84:	aa1503e1 	mov	x1, x21
    1d88:	aa1403e2 	mov	x2, x20
    1d8c:	aa1303e0 	mov	x0, x19
/home/xiang/rockpi4-android/optee_os/lib/libutee/tee_api_arith_mpi.c:157
    1d90:	52800015 	mov	w21, #0x0                   	// #0
/home/xiang/rockpi4-android/optee_os/lib/libutee/tee_api_arith_mpi.c:165
    1d94:	94000d1e 	bl	520c <mbedtls_mpi_write_binary>
    1d98:	34000100 	cbz	w0, 1db8 <TEE_BigIntConvertToOctetString+0x74>
/home/xiang/rockpi4-android/optee_os/lib/libutee/tee_api_arith_mpi.c:165 (discriminator 1)
    1d9c:	2a0003e2 	mov	w2, w0
    1da0:	b0000040 	adrp	x0, a000 <kprintf.constprop.0+0x540>
    1da4:	91328000 	add	x0, x0, #0xca0
    1da8:	528014a1 	mov	w1, #0xa5                  	// #165
    1dac:	91014000 	add	x0, x0, #0x50
    1db0:	97fffd9c 	bl	1420 <mpi_panic>
/home/xiang/rockpi4-android/optee_os/lib/libutee/tee_api_arith_mpi.c:167
    1db4:	129ffdf5 	mov	w21, #0xffff0010            	// #-65520
/home/xiang/rockpi4-android/optee_os/lib/libutee/tee_api_arith_mpi.c:169
    1db8:	b90002d4 	str	w20, [x22]
/home/xiang/rockpi4-android/optee_os/lib/libutee/tee_api_arith_mpi.c:171
    1dbc:	aa1303e0 	mov	x0, x19
    1dc0:	94000b18 	bl	4a20 <mbedtls_mpi_free>
/home/xiang/rockpi4-android/optee_os/lib/libutee/tee_api_arith_mpi.c:174
    1dc4:	2a1503e0 	mov	w0, w21
    1dc8:	a94153f3 	ldp	x19, x20, [sp,#16]
    1dcc:	a9425bf5 	ldp	x21, x22, [sp,#32]
    1dd0:	a8c57bfd 	ldp	x29, x30, [sp],#80
    1dd4:	d65f03c0 	ret

0000000000001dd8 <TEE_BigIntConvertFromS32>:
TEE_BigIntConvertFromS32():
/home/xiang/rockpi4-android/optee_os/lib/libutee/tee_api_arith_mpi.c:177
    1dd8:	a9bb7bfd 	stp	x29, x30, [sp,#-80]!
    1ddc:	910003fd 	mov	x29, sp
    1de0:	a90153f3 	stp	x19, x20, [sp,#16]
/home/xiang/rockpi4-android/optee_os/lib/libutee/tee_api_arith_mpi.c:180
    1de4:	9100e3b3 	add	x19, x29, #0x38
/home/xiang/rockpi4-android/optee_os/lib/libutee/tee_api_arith_mpi.c:177
    1de8:	f90013f5 	str	x21, [sp,#32]
    1dec:	aa0003f4 	mov	x20, x0
    1df0:	2a0103f5 	mov	w21, w1
/home/xiang/rockpi4-android/optee_os/lib/libutee/tee_api_arith_mpi.c:180
    1df4:	aa0003e1 	mov	x1, x0
    1df8:	aa1303e0 	mov	x0, x19
    1dfc:	97fffd95 	bl	1450 <get_mpi>
/home/xiang/rockpi4-android/optee_os/lib/libutee/tee_api_arith_mpi.c:182
    1e00:	2a1503e1 	mov	w1, w21
    1e04:	aa1303e0 	mov	x0, x19
    1e08:	94000c15 	bl	4e5c <mbedtls_mpi_lset>
    1e0c:	340000e0 	cbz	w0, 1e28 <TEE_BigIntConvertFromS32+0x50>
/home/xiang/rockpi4-android/optee_os/lib/libutee/tee_api_arith_mpi.c:182 (discriminator 1)
    1e10:	2a0003e2 	mov	w2, w0
    1e14:	528016c1 	mov	w1, #0xb6                  	// #182
/home/xiang/rockpi4-android/optee_os/lib/libutee/tee_api_arith_mpi.c:184 (discriminator 1)
    1e18:	b0000040 	adrp	x0, a000 <kprintf.constprop.0+0x540>
    1e1c:	91328000 	add	x0, x0, #0xca0
    1e20:	9101c000 	add	x0, x0, #0x70
    1e24:	97fffd7f 	bl	1420 <mpi_panic>
/home/xiang/rockpi4-android/optee_os/lib/libutee/tee_api_arith_mpi.c:184
    1e28:	aa1403e1 	mov	x1, x20
    1e2c:	aa1303e0 	mov	x0, x19
    1e30:	97fffdae 	bl	14e8 <copy_mpi_to_bigint>
    1e34:	34000080 	cbz	w0, 1e44 <TEE_BigIntConvertFromS32+0x6c>
/home/xiang/rockpi4-android/optee_os/lib/libutee/tee_api_arith_mpi.c:184 (discriminator 1)
    1e38:	2a0003e2 	mov	w2, w0
    1e3c:	52801701 	mov	w1, #0xb8                  	// #184
    1e40:	17fffff6 	b	1e18 <TEE_BigIntConvertFromS32+0x40>
/home/xiang/rockpi4-android/optee_os/lib/libutee/tee_api_arith_mpi.c:185
    1e44:	aa1303e0 	mov	x0, x19
    1e48:	94000af6 	bl	4a20 <mbedtls_mpi_free>
/home/xiang/rockpi4-android/optee_os/lib/libutee/tee_api_arith_mpi.c:186
    1e4c:	a94153f3 	ldp	x19, x20, [sp,#16]
    1e50:	f94013f5 	ldr	x21, [sp,#32]
    1e54:	a8c57bfd 	ldp	x29, x30, [sp],#80
    1e58:	d65f03c0 	ret

0000000000001e5c <TEE_BigIntConvertToS32>:
TEE_BigIntConvertToS32():
/home/xiang/rockpi4-android/optee_os/lib/libutee/tee_api_arith_mpi.c:189
    1e5c:	a9bc7bfd 	stp	x29, x30, [sp,#-64]!
    1e60:	910003fd 	mov	x29, sp
    1e64:	a90153f3 	stp	x19, x20, [sp,#16]
/home/xiang/rockpi4-android/optee_os/lib/libutee/tee_api_arith_mpi.c:194
    1e68:	9100a3b3 	add	x19, x29, #0x28
/home/xiang/rockpi4-android/optee_os/lib/libutee/tee_api_arith_mpi.c:189
    1e6c:	aa0003f4 	mov	x20, x0
/home/xiang/rockpi4-android/optee_os/lib/libutee/tee_api_arith_mpi.c:194
    1e70:	aa1303e0 	mov	x0, x19
    1e74:	97fffd77 	bl	1450 <get_mpi>
/home/xiang/rockpi4-android/optee_os/lib/libutee/tee_api_arith_mpi.c:196
    1e78:	d2800082 	mov	x2, #0x4                   	// #4
    1e7c:	910093a1 	add	x1, x29, #0x24
    1e80:	aa1303e0 	mov	x0, x19
    1e84:	94000ce2 	bl	520c <mbedtls_mpi_write_binary>
    1e88:	35000220 	cbnz	w0, 1ecc <TEE_BigIntConvertToS32+0x70>
/home/xiang/rockpi4-android/optee_os/lib/libutee/tee_api_arith_mpi.c:201
    1e8c:	79c053a0 	ldrsh	w0, [x29,#40]
    1e90:	7100001f 	cmp	w0, #0x0
    1e94:	b94027a0 	ldr	w0, [x29,#36]
    1e98:	540001ed 	b.le	1ed4 <TEE_BigIntConvertToS32+0x78>
/home/xiang/rockpi4-android/optee_os/lib/libutee/tee_api_arith_mpi.c:202
    1e9c:	5ac00800 	rev	w0, w0
    1ea0:	b9000280 	str	w0, [x20]
    1ea4:	93407c01 	sxtw	x1, w0
    1ea8:	eb20403f 	cmp	x1, w0, uxtw
    1eac:	54000101 	b.ne	1ecc <TEE_BigIntConvertToS32+0x70>
/home/xiang/rockpi4-android/optee_os/lib/libutee/tee_api_arith_mpi.c:190
    1eb0:	52800014 	mov	w20, #0x0                   	// #0
/home/xiang/rockpi4-android/optee_os/lib/libutee/tee_api_arith_mpi.c:210
    1eb4:	aa1303e0 	mov	x0, x19
    1eb8:	94000ada 	bl	4a20 <mbedtls_mpi_free>
/home/xiang/rockpi4-android/optee_os/lib/libutee/tee_api_arith_mpi.c:213
    1ebc:	2a1403e0 	mov	w0, w20
    1ec0:	a94153f3 	ldp	x19, x20, [sp,#16]
    1ec4:	a8c47bfd 	ldp	x29, x30, [sp],#64
    1ec8:	d65f03c0 	ret
/home/xiang/rockpi4-android/optee_os/lib/libutee/tee_api_arith_mpi.c:203
    1ecc:	1299fe14 	mov	w20, #0xffff300f            	// #-53233
    1ed0:	17fffff9 	b	1eb4 <TEE_BigIntConvertToS32+0x58>
/home/xiang/rockpi4-android/optee_os/lib/libutee/tee_api_arith_mpi.c:205
    1ed4:	5ac00800 	rev	w0, w0
    1ed8:	cb0003e0 	neg	x0, x0
    1edc:	b9000280 	str	w0, [x20]
    1ee0:	eb20c01f 	cmp	x0, w0, sxtw
    1ee4:	17fffff2 	b	1eac <TEE_BigIntConvertToS32+0x50>

0000000000001ee8 <TEE_BigIntCmp>:
TEE_BigIntCmp():
/home/xiang/rockpi4-android/optee_os/lib/libutee/tee_api_arith_mpi.c:216
    1ee8:	a9ba7bfd 	stp	x29, x30, [sp,#-96]!
    1eec:	910003fd 	mov	x29, sp
    1ef0:	a90153f3 	stp	x19, x20, [sp,#16]
/home/xiang/rockpi4-android/optee_os/lib/libutee/tee_api_arith_mpi.c:221
    1ef4:	9100c3b4 	add	x20, x29, #0x30
/home/xiang/rockpi4-android/optee_os/lib/libutee/tee_api_arith_mpi.c:222
    1ef8:	910123b3 	add	x19, x29, #0x48
/home/xiang/rockpi4-android/optee_os/lib/libutee/tee_api_arith_mpi.c:216
    1efc:	f90013f5 	str	x21, [sp,#32]
    1f00:	aa0103f5 	mov	x21, x1
/home/xiang/rockpi4-android/optee_os/lib/libutee/tee_api_arith_mpi.c:221
    1f04:	aa0003e1 	mov	x1, x0
    1f08:	aa1403e0 	mov	x0, x20
    1f0c:	97fffd51 	bl	1450 <get_mpi>
/home/xiang/rockpi4-android/optee_os/lib/libutee/tee_api_arith_mpi.c:222
    1f10:	aa1503e1 	mov	x1, x21
    1f14:	aa1303e0 	mov	x0, x19
    1f18:	97fffd4e 	bl	1450 <get_mpi>
/home/xiang/rockpi4-android/optee_os/lib/libutee/tee_api_arith_mpi.c:224
    1f1c:	aa1303e1 	mov	x1, x19
    1f20:	aa1403e0 	mov	x0, x20
    1f24:	94000d85 	bl	5538 <mbedtls_mpi_cmp_mpi>
    1f28:	2a0003f5 	mov	w21, w0
/home/xiang/rockpi4-android/optee_os/lib/libutee/tee_api_arith_mpi.c:226
    1f2c:	aa1403e0 	mov	x0, x20
    1f30:	94000abc 	bl	4a20 <mbedtls_mpi_free>
/home/xiang/rockpi4-android/optee_os/lib/libutee/tee_api_arith_mpi.c:227
    1f34:	aa1303e0 	mov	x0, x19
    1f38:	94000aba 	bl	4a20 <mbedtls_mpi_free>
/home/xiang/rockpi4-android/optee_os/lib/libutee/tee_api_arith_mpi.c:230
    1f3c:	2a1503e0 	mov	w0, w21
    1f40:	f94013f5 	ldr	x21, [sp,#32]
    1f44:	a94153f3 	ldp	x19, x20, [sp,#16]
    1f48:	a8c67bfd 	ldp	x29, x30, [sp],#96
    1f4c:	d65f03c0 	ret

0000000000001f50 <TEE_BigIntCmpS32>:
TEE_BigIntCmpS32():
/home/xiang/rockpi4-android/optee_os/lib/libutee/tee_api_arith_mpi.c:233
    1f50:	a9bc7bfd 	stp	x29, x30, [sp,#-64]!
    1f54:	910003fd 	mov	x29, sp
    1f58:	a90153f3 	stp	x19, x20, [sp,#16]
/home/xiang/rockpi4-android/optee_os/lib/libutee/tee_api_arith_mpi.c:237
    1f5c:	9100a3b3 	add	x19, x29, #0x28
/home/xiang/rockpi4-android/optee_os/lib/libutee/tee_api_arith_mpi.c:233
    1f60:	2a0103f4 	mov	w20, w1
/home/xiang/rockpi4-android/optee_os/lib/libutee/tee_api_arith_mpi.c:237
    1f64:	aa0003e1 	mov	x1, x0
    1f68:	aa1303e0 	mov	x0, x19
    1f6c:	97fffd39 	bl	1450 <get_mpi>
/home/xiang/rockpi4-android/optee_os/lib/libutee/tee_api_arith_mpi.c:239
    1f70:	2a1403e1 	mov	w1, w20
    1f74:	aa1303e0 	mov	x0, x19
    1f78:	94000dac 	bl	5628 <mbedtls_mpi_cmp_int>
    1f7c:	2a0003f4 	mov	w20, w0
/home/xiang/rockpi4-android/optee_os/lib/libutee/tee_api_arith_mpi.c:241
    1f80:	aa1303e0 	mov	x0, x19
    1f84:	94000aa7 	bl	4a20 <mbedtls_mpi_free>
/home/xiang/rockpi4-android/optee_os/lib/libutee/tee_api_arith_mpi.c:244
    1f88:	2a1403e0 	mov	w0, w20
    1f8c:	a94153f3 	ldp	x19, x20, [sp,#16]
    1f90:	a8c47bfd 	ldp	x29, x30, [sp],#64
    1f94:	d65f03c0 	ret

0000000000001f98 <bigint_binary_mod>:
bigint_binary_mod():
/home/xiang/rockpi4-android/optee_os/lib/libutee/tee_api_arith_mpi.c:354
    1f98:	a9b27bfd 	stp	x29, x30, [sp,#-224]!
    1f9c:	910003fd 	mov	x29, sp
    1fa0:	a9025bf5 	stp	x21, x22, [sp,#32]
    1fa4:	aa0103f6 	mov	x22, x1
    1fa8:	a90153f3 	stp	x19, x20, [sp,#16]
    1fac:	aa0303f5 	mov	x21, x3
    1fb0:	a90363f7 	stp	x23, x24, [sp,#48]
    1fb4:	aa0203f4 	mov	x20, x2
    1fb8:	f9002bfb 	str	x27, [sp,#80]
    1fbc:	aa0003f7 	mov	x23, x0
    1fc0:	a9046bf9 	stp	x25, x26, [sp,#64]
/home/xiang/rockpi4-android/optee_os/lib/libutee/tee_api_arith_mpi.c:363
    1fc4:	52800041 	mov	w1, #0x2                   	// #2
    1fc8:	aa0303e0 	mov	x0, x3
/home/xiang/rockpi4-android/optee_os/lib/libutee/tee_api_arith_mpi.c:354
    1fcc:	aa0403fb 	mov	x27, x4
/home/xiang/rockpi4-android/optee_os/lib/libutee/tee_api_arith_mpi.c:363
    1fd0:	97ffffe0 	bl	1f50 <TEE_BigIntCmpS32>
    1fd4:	36f80100 	tbz	w0, #31, 1ff4 <bigint_binary_mod+0x5c>
/home/xiang/rockpi4-android/optee_os/lib/libutee/tee_api_arith_mpi.c:364
    1fd8:	b0000040 	adrp	x0, a000 <kprintf.constprop.0+0x540>
    1fdc:	91328000 	add	x0, x0, #0xca0
    1fe0:	d0000042 	adrp	x2, b000 <small_prime+0x140>
    1fe4:	52802d81 	mov	w1, #0x16c                 	// #364
    1fe8:	9110fc42 	add	x2, x2, #0x43f
    1fec:	91024000 	add	x0, x0, #0x90
    1ff0:	94000357 	bl	2d4c <api_panic>
/home/xiang/rockpi4-android/optee_os/lib/libutee/tee_api_arith_mpi.c:366
    1ff4:	9101a3b3 	add	x19, x29, #0x68
    1ff8:	aa1703e1 	mov	x1, x23
    1ffc:	aa1303e0 	mov	x0, x19
/home/xiang/rockpi4-android/optee_os/lib/libutee/tee_api_arith_mpi.c:367
    2000:	9102c3b8 	add	x24, x29, #0xb0
/home/xiang/rockpi4-android/optee_os/lib/libutee/tee_api_arith_mpi.c:366
    2004:	97fffd13 	bl	1450 <get_mpi>
    2008:	910203ba 	add	x26, x29, #0x80
/home/xiang/rockpi4-android/optee_os/lib/libutee/tee_api_arith_mpi.c:367
    200c:	aa1503e1 	mov	x1, x21
    2010:	aa1803e0 	mov	x0, x24
    2014:	97fffd0f 	bl	1450 <get_mpi>
/home/xiang/rockpi4-android/optee_os/lib/libutee/tee_api_arith_mpi.c:369
    2018:	eb1602ff 	cmp	x23, x22
    201c:	54000380 	b.eq	208c <bigint_binary_mod+0xf4>
/home/xiang/rockpi4-android/optee_os/lib/libutee/tee_api_arith_mpi.c:359
    2020:	aa1a03f5 	mov	x21, x26
/home/xiang/rockpi4-android/optee_os/lib/libutee/tee_api_arith_mpi.c:372
    2024:	aa1603e1 	mov	x1, x22
    2028:	aa1a03e0 	mov	x0, x26
    202c:	97fffd09 	bl	1450 <get_mpi>
/home/xiang/rockpi4-android/optee_os/lib/libutee/tee_api_arith_mpi.c:374
    2030:	eb1402ff 	cmp	x23, x20
    2034:	910263b9 	add	x25, x29, #0x98
    2038:	540002e0 	b.eq	2094 <bigint_binary_mod+0xfc>
/home/xiang/rockpi4-android/optee_os/lib/libutee/tee_api_arith_mpi.c:376
    203c:	eb1402df 	cmp	x22, x20
    2040:	540002e0 	b.eq	209c <bigint_binary_mod+0x104>
/home/xiang/rockpi4-android/optee_os/lib/libutee/tee_api_arith_mpi.c:379
    2044:	aa1403e1 	mov	x1, x20
/home/xiang/rockpi4-android/optee_os/lib/libutee/tee_api_arith_mpi.c:360
    2048:	aa1903f4 	mov	x20, x25
/home/xiang/rockpi4-android/optee_os/lib/libutee/tee_api_arith_mpi.c:379
    204c:	aa1903e0 	mov	x0, x25
    2050:	97fffd00 	bl	1450 <get_mpi>
get_mpi():
/home/xiang/rockpi4-android/optee_os/lib/libutee/tee_api_arith_mpi.c:101
    2054:	910323b6 	add	x22, x29, #0xc8
    2058:	aa1603e0 	mov	x0, x22
    205c:	94000a67 	bl	49f8 <mbedtls_mpi_init_mempool>
bigint_binary_mod():
/home/xiang/rockpi4-android/optee_os/lib/libutee/tee_api_arith_mpi.c:383
    2060:	aa1403e2 	mov	x2, x20
    2064:	aa1503e1 	mov	x1, x21
    2068:	aa1603e0 	mov	x0, x22
    206c:	d63f0360 	blr	x27
    2070:	340001a0 	cbz	w0, 20a4 <bigint_binary_mod+0x10c>
/home/xiang/rockpi4-android/optee_os/lib/libutee/tee_api_arith_mpi.c:383 (discriminator 1)
    2074:	2a0003e2 	mov	w2, w0
    2078:	52802fe1 	mov	w1, #0x17f                 	// #383
/home/xiang/rockpi4-android/optee_os/lib/libutee/tee_api_arith_mpi.c:384 (discriminator 1)
    207c:	90000040 	adrp	x0, a000 <kprintf.constprop.0+0x540>
    2080:	91328000 	add	x0, x0, #0xca0
    2084:	91024000 	add	x0, x0, #0x90
    2088:	97fffce6 	bl	1420 <mpi_panic>
/home/xiang/rockpi4-android/optee_os/lib/libutee/tee_api_arith_mpi.c:370
    208c:	aa1303f5 	mov	x21, x19
    2090:	17ffffe8 	b	2030 <bigint_binary_mod+0x98>
/home/xiang/rockpi4-android/optee_os/lib/libutee/tee_api_arith_mpi.c:375
    2094:	aa1303f4 	mov	x20, x19
    2098:	17ffffef 	b	2054 <bigint_binary_mod+0xbc>
/home/xiang/rockpi4-android/optee_os/lib/libutee/tee_api_arith_mpi.c:377
    209c:	aa1503f4 	mov	x20, x21
    20a0:	17ffffed 	b	2054 <bigint_binary_mod+0xbc>
/home/xiang/rockpi4-android/optee_os/lib/libutee/tee_api_arith_mpi.c:384
    20a4:	aa1803e2 	mov	x2, x24
    20a8:	aa1603e1 	mov	x1, x22
    20ac:	aa1303e0 	mov	x0, x19
    20b0:	940010d5 	bl	6404 <mbedtls_mpi_mod_mpi>
    20b4:	34000080 	cbz	w0, 20c4 <bigint_binary_mod+0x12c>
/home/xiang/rockpi4-android/optee_os/lib/libutee/tee_api_arith_mpi.c:384 (discriminator 1)
    20b8:	2a0003e2 	mov	w2, w0
    20bc:	52803001 	mov	w1, #0x180                 	// #384
    20c0:	17ffffef 	b	207c <bigint_binary_mod+0xe4>
/home/xiang/rockpi4-android/optee_os/lib/libutee/tee_api_arith_mpi.c:386
    20c4:	aa1703e1 	mov	x1, x23
    20c8:	aa1303e0 	mov	x0, x19
    20cc:	97fffd07 	bl	14e8 <copy_mpi_to_bigint>
    20d0:	34000080 	cbz	w0, 20e0 <bigint_binary_mod+0x148>
/home/xiang/rockpi4-android/optee_os/lib/libutee/tee_api_arith_mpi.c:386 (discriminator 1)
    20d4:	2a0003e2 	mov	w2, w0
    20d8:	52803041 	mov	w1, #0x182                 	// #386
    20dc:	17ffffe8 	b	207c <bigint_binary_mod+0xe4>
/home/xiang/rockpi4-android/optee_os/lib/libutee/tee_api_arith_mpi.c:387
    20e0:	aa1303e0 	mov	x0, x19
    20e4:	94000a4f 	bl	4a20 <mbedtls_mpi_free>
/home/xiang/rockpi4-android/optee_os/lib/libutee/tee_api_arith_mpi.c:388
    20e8:	eb1a02bf 	cmp	x21, x26
    20ec:	54000061 	b.ne	20f8 <bigint_binary_mod+0x160>
/home/xiang/rockpi4-android/optee_os/lib/libutee/tee_api_arith_mpi.c:389
    20f0:	aa1503e0 	mov	x0, x21
    20f4:	94000a4b 	bl	4a20 <mbedtls_mpi_free>
/home/xiang/rockpi4-android/optee_os/lib/libutee/tee_api_arith_mpi.c:390
    20f8:	eb19029f 	cmp	x20, x25
    20fc:	54000061 	b.ne	2108 <bigint_binary_mod+0x170>
/home/xiang/rockpi4-android/optee_os/lib/libutee/tee_api_arith_mpi.c:391
    2100:	aa1403e0 	mov	x0, x20
    2104:	94000a47 	bl	4a20 <mbedtls_mpi_free>
/home/xiang/rockpi4-android/optee_os/lib/libutee/tee_api_arith_mpi.c:392
    2108:	aa1603e0 	mov	x0, x22
    210c:	94000a45 	bl	4a20 <mbedtls_mpi_free>
/home/xiang/rockpi4-android/optee_os/lib/libutee/tee_api_arith_mpi.c:393
    2110:	aa1803e0 	mov	x0, x24
    2114:	94000a43 	bl	4a20 <mbedtls_mpi_free>
/home/xiang/rockpi4-android/optee_os/lib/libutee/tee_api_arith_mpi.c:394
    2118:	a94153f3 	ldp	x19, x20, [sp,#16]
    211c:	a9425bf5 	ldp	x21, x22, [sp,#32]
    2120:	a94363f7 	ldp	x23, x24, [sp,#48]
    2124:	a9446bf9 	ldp	x25, x26, [sp,#64]
    2128:	f9402bfb 	ldr	x27, [sp,#80]
    212c:	a8ce7bfd 	ldp	x29, x30, [sp],#224
    2130:	d65f03c0 	ret

0000000000002134 <TEE_BigIntShiftRight>:
TEE_BigIntShiftRight():
/home/xiang/rockpi4-android/optee_os/lib/libutee/tee_api_arith_mpi.c:247
    2134:	a9b77bfd 	stp	x29, x30, [sp,#-144]!
    2138:	910003fd 	mov	x29, sp
    213c:	a90153f3 	stp	x19, x20, [sp,#16]
/home/xiang/rockpi4-android/optee_os/lib/libutee/tee_api_arith_mpi.c:251
    2140:	910123b3 	add	x19, x29, #0x48
/home/xiang/rockpi4-android/optee_os/lib/libutee/tee_api_arith_mpi.c:247
    2144:	a9025bf5 	stp	x21, x22, [sp,#32]
    2148:	aa0003f6 	mov	x22, x0
    214c:	aa0103f5 	mov	x21, x1
    2150:	f9001bf7 	str	x23, [sp,#48]
/home/xiang/rockpi4-android/optee_os/lib/libutee/tee_api_arith_mpi.c:251
    2154:	aa0003e1 	mov	x1, x0
/home/xiang/rockpi4-android/optee_os/lib/libutee/tee_api_arith_mpi.c:247
    2158:	aa0203f7 	mov	x23, x2
/home/xiang/rockpi4-android/optee_os/lib/libutee/tee_api_arith_mpi.c:251
    215c:	aa1303e0 	mov	x0, x19
    2160:	97fffcbc 	bl	1450 <get_mpi>
/home/xiang/rockpi4-android/optee_os/lib/libutee/tee_api_arith_mpi.c:253
    2164:	eb1502df 	cmp	x22, x21
    2168:	54000161 	b.ne	2194 <TEE_BigIntShiftRight+0x60>
/home/xiang/rockpi4-android/optee_os/lib/libutee/tee_api_arith_mpi.c:254
    216c:	aa1703e1 	mov	x1, x23
    2170:	aa1303e0 	mov	x0, x19
    2174:	94000c96 	bl	53cc <mbedtls_mpi_shift_r>
    2178:	34000780 	cbz	w0, 2268 <TEE_BigIntShiftRight+0x134>
/home/xiang/rockpi4-android/optee_os/lib/libutee/tee_api_arith_mpi.c:254 (discriminator 1)
    217c:	2a0003e2 	mov	w2, w0
    2180:	52801fc1 	mov	w1, #0xfe                  	// #254
/home/xiang/rockpi4-android/optee_os/lib/libutee/tee_api_arith_mpi.c:261 (discriminator 1)
    2184:	90000040 	adrp	x0, a000 <kprintf.constprop.0+0x540>
    2188:	91328000 	add	x0, x0, #0xca0
    218c:	9102a000 	add	x0, x0, #0xa8
    2190:	97fffca4 	bl	1420 <mpi_panic>
/home/xiang/rockpi4-android/optee_os/lib/libutee/tee_api_arith_mpi.c:258
    2194:	aa1503e1 	mov	x1, x21
    2198:	910183b4 	add	x20, x29, #0x60
    219c:	aa1403e0 	mov	x0, x20
    21a0:	97fffcac 	bl	1450 <get_mpi>
/home/xiang/rockpi4-android/optee_os/lib/libutee/tee_api_arith_mpi.c:260
    21a4:	aa1303e0 	mov	x0, x19
    21a8:	94000ba6 	bl	5040 <mbedtls_mpi_size>
    21ac:	aa0003f5 	mov	x21, x0
    21b0:	aa1403e0 	mov	x0, x20
    21b4:	94000ba3 	bl	5040 <mbedtls_mpi_size>
    21b8:	eb0002bf 	cmp	x21, x0
    21bc:	540001e3 	b.cc	21f8 <TEE_BigIntShiftRight+0xc4>
/home/xiang/rockpi4-android/optee_os/lib/libutee/tee_api_arith_mpi.c:261
    21c0:	aa1403e1 	mov	x1, x20
    21c4:	aa1303e0 	mov	x0, x19
    21c8:	94000ad4 	bl	4d18 <mbedtls_mpi_copy>
    21cc:	34000080 	cbz	w0, 21dc <TEE_BigIntShiftRight+0xa8>
/home/xiang/rockpi4-android/optee_os/lib/libutee/tee_api_arith_mpi.c:261 (discriminator 1)
    21d0:	2a0003e2 	mov	w2, w0
    21d4:	528020a1 	mov	w1, #0x105                 	// #261
    21d8:	17ffffeb 	b	2184 <TEE_BigIntShiftRight+0x50>
/home/xiang/rockpi4-android/optee_os/lib/libutee/tee_api_arith_mpi.c:262
    21dc:	aa1703e1 	mov	x1, x23
    21e0:	aa1303e0 	mov	x0, x19
    21e4:	94000c7a 	bl	53cc <mbedtls_mpi_shift_r>
    21e8:	340003c0 	cbz	w0, 2260 <TEE_BigIntShiftRight+0x12c>
/home/xiang/rockpi4-android/optee_os/lib/libutee/tee_api_arith_mpi.c:262 (discriminator 1)
    21ec:	2a0003e2 	mov	w2, w0
    21f0:	528020c1 	mov	w1, #0x106                 	// #262
    21f4:	17ffffe4 	b	2184 <TEE_BigIntShiftRight+0x50>
get_mpi():
/home/xiang/rockpi4-android/optee_os/lib/libutee/tee_api_arith_mpi.c:101
    21f8:	9101e3b5 	add	x21, x29, #0x78
    21fc:	aa1503e0 	mov	x0, x21
    2200:	940009fe 	bl	49f8 <mbedtls_mpi_init_mempool>
TEE_BigIntShiftRight():
/home/xiang/rockpi4-android/optee_os/lib/libutee/tee_api_arith_mpi.c:273
    2204:	aa1403e1 	mov	x1, x20
    2208:	aa1503e0 	mov	x0, x21
    220c:	94000ac3 	bl	4d18 <mbedtls_mpi_copy>
    2210:	34000080 	cbz	w0, 2220 <TEE_BigIntShiftRight+0xec>
/home/xiang/rockpi4-android/optee_os/lib/libutee/tee_api_arith_mpi.c:273 (discriminator 1)
    2214:	2a0003e2 	mov	w2, w0
    2218:	52802221 	mov	w1, #0x111                 	// #273
    221c:	17ffffda 	b	2184 <TEE_BigIntShiftRight+0x50>
/home/xiang/rockpi4-android/optee_os/lib/libutee/tee_api_arith_mpi.c:274
    2220:	aa1703e1 	mov	x1, x23
    2224:	aa1503e0 	mov	x0, x21
    2228:	94000c69 	bl	53cc <mbedtls_mpi_shift_r>
    222c:	34000080 	cbz	w0, 223c <TEE_BigIntShiftRight+0x108>
/home/xiang/rockpi4-android/optee_os/lib/libutee/tee_api_arith_mpi.c:274 (discriminator 1)
    2230:	2a0003e2 	mov	w2, w0
    2234:	52802241 	mov	w1, #0x112                 	// #274
    2238:	17ffffd3 	b	2184 <TEE_BigIntShiftRight+0x50>
/home/xiang/rockpi4-android/optee_os/lib/libutee/tee_api_arith_mpi.c:275
    223c:	aa1503e1 	mov	x1, x21
    2240:	aa1303e0 	mov	x0, x19
    2244:	94000ab5 	bl	4d18 <mbedtls_mpi_copy>
    2248:	34000080 	cbz	w0, 2258 <TEE_BigIntShiftRight+0x124>
/home/xiang/rockpi4-android/optee_os/lib/libutee/tee_api_arith_mpi.c:275 (discriminator 1)
    224c:	2a0003e2 	mov	w2, w0
    2250:	52802261 	mov	w1, #0x113                 	// #275
    2254:	17ffffcc 	b	2184 <TEE_BigIntShiftRight+0x50>
/home/xiang/rockpi4-android/optee_os/lib/libutee/tee_api_arith_mpi.c:277
    2258:	aa1503e0 	mov	x0, x21
    225c:	940009f1 	bl	4a20 <mbedtls_mpi_free>
/home/xiang/rockpi4-android/optee_os/lib/libutee/tee_api_arith_mpi.c:280
    2260:	aa1403e0 	mov	x0, x20
    2264:	940009ef 	bl	4a20 <mbedtls_mpi_free>
/home/xiang/rockpi4-android/optee_os/lib/libutee/tee_api_arith_mpi.c:283
    2268:	aa1603e1 	mov	x1, x22
    226c:	aa1303e0 	mov	x0, x19
    2270:	97fffc9e 	bl	14e8 <copy_mpi_to_bigint>
    2274:	34000080 	cbz	w0, 2284 <TEE_BigIntShiftRight+0x150>
/home/xiang/rockpi4-android/optee_os/lib/libutee/tee_api_arith_mpi.c:283 (discriminator 1)
    2278:	2a0003e2 	mov	w2, w0
    227c:	52802361 	mov	w1, #0x11b                 	// #283
    2280:	17ffffc1 	b	2184 <TEE_BigIntShiftRight+0x50>
/home/xiang/rockpi4-android/optee_os/lib/libutee/tee_api_arith_mpi.c:284
    2284:	aa1303e0 	mov	x0, x19
    2288:	940009e6 	bl	4a20 <mbedtls_mpi_free>
/home/xiang/rockpi4-android/optee_os/lib/libutee/tee_api_arith_mpi.c:285
    228c:	a94153f3 	ldp	x19, x20, [sp,#16]
    2290:	a9425bf5 	ldp	x21, x22, [sp,#32]
    2294:	f9401bf7 	ldr	x23, [sp,#48]
    2298:	a8c97bfd 	ldp	x29, x30, [sp],#144
    229c:	d65f03c0 	ret

00000000000022a0 <TEE_BigIntGetBit>:
TEE_BigIntGetBit():
/home/xiang/rockpi4-android/optee_os/lib/libutee/tee_api_arith_mpi.c:288
    22a0:	a9bc7bfd 	stp	x29, x30, [sp,#-64]!
    22a4:	910003fd 	mov	x29, sp
    22a8:	a90153f3 	stp	x19, x20, [sp,#16]
/home/xiang/rockpi4-android/optee_os/lib/libutee/tee_api_arith_mpi.c:292
    22ac:	9100a3b3 	add	x19, x29, #0x28
/home/xiang/rockpi4-android/optee_os/lib/libutee/tee_api_arith_mpi.c:288
    22b0:	2a0103f4 	mov	w20, w1
/home/xiang/rockpi4-android/optee_os/lib/libutee/tee_api_arith_mpi.c:292
    22b4:	aa0003e1 	mov	x1, x0
    22b8:	aa1303e0 	mov	x0, x19
    22bc:	97fffc65 	bl	1450 <get_mpi>
/home/xiang/rockpi4-android/optee_os/lib/libutee/tee_api_arith_mpi.c:294
    22c0:	2a1403e1 	mov	w1, w20
    22c4:	aa1303e0 	mov	x0, x19
    22c8:	94000aff 	bl	4ec4 <mbedtls_mpi_get_bit>
    22cc:	2a0003f4 	mov	w20, w0
/home/xiang/rockpi4-android/optee_os/lib/libutee/tee_api_arith_mpi.c:296
    22d0:	aa1303e0 	mov	x0, x19
    22d4:	940009d3 	bl	4a20 <mbedtls_mpi_free>
/home/xiang/rockpi4-android/optee_os/lib/libutee/tee_api_arith_mpi.c:294
    22d8:	7100029f 	cmp	w20, #0x0
/home/xiang/rockpi4-android/optee_os/lib/libutee/tee_api_arith_mpi.c:299
    22dc:	1a9f07e0 	cset	w0, ne
    22e0:	a94153f3 	ldp	x19, x20, [sp,#16]
    22e4:	a8c47bfd 	ldp	x29, x30, [sp],#64
    22e8:	d65f03c0 	ret

00000000000022ec <TEE_BigIntGetBitCount>:
TEE_BigIntGetBitCount():
/home/xiang/rockpi4-android/optee_os/lib/libutee/tee_api_arith_mpi.c:302
    22ec:	a9bc7bfd 	stp	x29, x30, [sp,#-64]!
/home/xiang/rockpi4-android/optee_os/lib/libutee/tee_api_arith_mpi.c:306
    22f0:	aa0003e1 	mov	x1, x0
/home/xiang/rockpi4-android/optee_os/lib/libutee/tee_api_arith_mpi.c:302
    22f4:	910003fd 	mov	x29, sp
    22f8:	a90153f3 	stp	x19, x20, [sp,#16]
/home/xiang/rockpi4-android/optee_os/lib/libutee/tee_api_arith_mpi.c:306
    22fc:	9100a3b3 	add	x19, x29, #0x28
    2300:	aa1303e0 	mov	x0, x19
    2304:	97fffc53 	bl	1450 <get_mpi>
/home/xiang/rockpi4-android/optee_os/lib/libutee/tee_api_arith_mpi.c:308
    2308:	aa1303e0 	mov	x0, x19
    230c:	94000b32 	bl	4fd4 <mbedtls_mpi_bitlen>
    2310:	aa0003f4 	mov	x20, x0
/home/xiang/rockpi4-android/optee_os/lib/libutee/tee_api_arith_mpi.c:310
    2314:	aa1303e0 	mov	x0, x19
    2318:	940009c2 	bl	4a20 <mbedtls_mpi_free>
/home/xiang/rockpi4-android/optee_os/lib/libutee/tee_api_arith_mpi.c:313
    231c:	2a1403e0 	mov	w0, w20
    2320:	a94153f3 	ldp	x19, x20, [sp,#16]
    2324:	a8c47bfd 	ldp	x29, x30, [sp],#64
    2328:	d65f03c0 	ret

000000000000232c <TEE_BigIntAdd>:
TEE_BigIntAdd():
/home/xiang/rockpi4-android/optee_os/lib/libutee/tee_api_arith_mpi.c:399
    232c:	f0000043 	adrp	x3, d000 <_DYNAMIC>
    2330:	f940a863 	ldr	x3, [x3,#336]
    2334:	17fffc88 	b	1554 <bigint_binary>

0000000000002338 <TEE_BigIntSub>:
TEE_BigIntSub():
/home/xiang/rockpi4-android/optee_os/lib/libutee/tee_api_arith_mpi.c:405
    2338:	f0000043 	adrp	x3, d000 <_DYNAMIC>
    233c:	f940b063 	ldr	x3, [x3,#352]
    2340:	17fffc85 	b	1554 <bigint_binary>

0000000000002344 <TEE_BigIntNeg>:
TEE_BigIntNeg():
/home/xiang/rockpi4-android/optee_os/lib/libutee/tee_api_arith_mpi.c:409
    2344:	a9ba7bfd 	stp	x29, x30, [sp,#-96]!
    2348:	910003fd 	mov	x29, sp
    234c:	a90153f3 	stp	x19, x20, [sp,#16]
/home/xiang/rockpi4-android/optee_os/lib/libutee/tee_api_arith_mpi.c:412
    2350:	9100c3b3 	add	x19, x29, #0x30
/home/xiang/rockpi4-android/optee_os/lib/libutee/tee_api_arith_mpi.c:409
    2354:	a9025bf5 	stp	x21, x22, [sp,#32]
    2358:	aa0003f4 	mov	x20, x0
    235c:	aa0103f6 	mov	x22, x1
/home/xiang/rockpi4-android/optee_os/lib/libutee/tee_api_arith_mpi.c:412
    2360:	aa0003e1 	mov	x1, x0
    2364:	aa1303e0 	mov	x0, x19
    2368:	97fffc3a 	bl	1450 <get_mpi>
/home/xiang/rockpi4-android/optee_os/lib/libutee/tee_api_arith_mpi.c:414
    236c:	eb16029f 	cmp	x20, x22
    2370:	54000220 	b.eq	23b4 <TEE_BigIntNeg+0x70>
/home/xiang/rockpi4-android/optee_os/lib/libutee/tee_api_arith_mpi.c:417
    2374:	910123b5 	add	x21, x29, #0x48
    2378:	aa1603e1 	mov	x1, x22
    237c:	aa1503e0 	mov	x0, x21
    2380:	97fffc34 	bl	1450 <get_mpi>
/home/xiang/rockpi4-android/optee_os/lib/libutee/tee_api_arith_mpi.c:419
    2384:	aa1503e1 	mov	x1, x21
    2388:	aa1303e0 	mov	x0, x19
    238c:	94000a63 	bl	4d18 <mbedtls_mpi_copy>
    2390:	340000e0 	cbz	w0, 23ac <TEE_BigIntNeg+0x68>
/home/xiang/rockpi4-android/optee_os/lib/libutee/tee_api_arith_mpi.c:419 (discriminator 1)
    2394:	2a0003e2 	mov	w2, w0
    2398:	52803461 	mov	w1, #0x1a3                 	// #419
/home/xiang/rockpi4-android/optee_os/lib/libutee/tee_api_arith_mpi.c:426 (discriminator 1)
    239c:	90000040 	adrp	x0, a000 <kprintf.constprop.0+0x540>
    23a0:	91328000 	add	x0, x0, #0xca0
    23a4:	91030000 	add	x0, x0, #0xc0
    23a8:	97fffc1e 	bl	1420 <mpi_panic>
/home/xiang/rockpi4-android/optee_os/lib/libutee/tee_api_arith_mpi.c:421
    23ac:	aa1503e0 	mov	x0, x21
    23b0:	9400099c 	bl	4a20 <mbedtls_mpi_free>
/home/xiang/rockpi4-android/optee_os/lib/libutee/tee_api_arith_mpi.c:424
    23b4:	794063a0 	ldrh	w0, [x29,#48]
/home/xiang/rockpi4-android/optee_os/lib/libutee/tee_api_arith_mpi.c:426
    23b8:	aa1403e1 	mov	x1, x20
/home/xiang/rockpi4-android/optee_os/lib/libutee/tee_api_arith_mpi.c:424
    23bc:	4b0003e0 	neg	w0, w0
    23c0:	790063a0 	strh	w0, [x29,#48]
/home/xiang/rockpi4-android/optee_os/lib/libutee/tee_api_arith_mpi.c:426
    23c4:	aa1303e0 	mov	x0, x19
    23c8:	97fffc48 	bl	14e8 <copy_mpi_to_bigint>
    23cc:	34000080 	cbz	w0, 23dc <TEE_BigIntNeg+0x98>
/home/xiang/rockpi4-android/optee_os/lib/libutee/tee_api_arith_mpi.c:426 (discriminator 1)
    23d0:	2a0003e2 	mov	w2, w0
    23d4:	52803541 	mov	w1, #0x1aa                 	// #426
    23d8:	17fffff1 	b	239c <TEE_BigIntNeg+0x58>
/home/xiang/rockpi4-android/optee_os/lib/libutee/tee_api_arith_mpi.c:427
    23dc:	aa1303e0 	mov	x0, x19
    23e0:	94000990 	bl	4a20 <mbedtls_mpi_free>
/home/xiang/rockpi4-android/optee_os/lib/libutee/tee_api_arith_mpi.c:428
    23e4:	a94153f3 	ldp	x19, x20, [sp,#16]
    23e8:	a9425bf5 	ldp	x21, x22, [sp,#32]
    23ec:	a8c67bfd 	ldp	x29, x30, [sp],#96
    23f0:	d65f03c0 	ret

00000000000023f4 <TEE_BigIntMul>:
TEE_BigIntMul():
/home/xiang/rockpi4-android/optee_os/lib/libutee/tee_api_arith_mpi.c:432
    23f4:	a9ba7bfd 	stp	x29, x30, [sp,#-96]!
    23f8:	910003fd 	mov	x29, sp
    23fc:	a90153f3 	stp	x19, x20, [sp,#16]
    2400:	a9025bf5 	stp	x21, x22, [sp,#32]
    2404:	aa0203f6 	mov	x22, x2
    2408:	a90363f7 	stp	x23, x24, [sp,#48]
    240c:	aa0103f5 	mov	x21, x1
    2410:	f90023f9 	str	x25, [sp,#64]
    2414:	aa0003f7 	mov	x23, x0
/home/xiang/rockpi4-android/optee_os/lib/libutee/tee_api_arith_mpi.c:433
    2418:	aa0103e0 	mov	x0, x1
    241c:	97ffffb4 	bl	22ec <TEE_BigIntGetBitCount>
    2420:	2a0003f3 	mov	w19, w0
/home/xiang/rockpi4-android/optee_os/lib/libutee/tee_api_arith_mpi.c:434
    2424:	aa1603e0 	mov	x0, x22
    2428:	97ffffb1 	bl	22ec <TEE_BigIntGetBitCount>
    242c:	2a0003e0 	mov	w0, w0
/home/xiang/rockpi4-android/optee_os/lib/libutee/tee_api_arith_mpi.c:439
    2430:	f0000059 	adrp	x25, d000 <_DYNAMIC>
/home/xiang/rockpi4-android/optee_os/lib/libutee/tee_api_arith_mpi.c:435
    2434:	91007c00 	add	x0, x0, #0x1f
    2438:	d345fc00 	lsr	x0, x0, #5
    243c:	91007e73 	add	x19, x19, #0x1f
    2440:	8b531413 	add	x19, x0, x19, lsr #5
/home/xiang/rockpi4-android/optee_os/lib/libutee/tee_api_arith_mpi.c:439
    2444:	f940cf20 	ldr	x0, [x25,#408]
/home/xiang/rockpi4-android/optee_os/lib/libutee/tee_api_arith_mpi.c:435
    2448:	91001273 	add	x19, x19, #0x4
/home/xiang/rockpi4-android/optee_os/lib/libutee/tee_api_arith_mpi.c:436
    244c:	f9002bbf 	str	xzr, [x29,#80]
/home/xiang/rockpi4-android/optee_os/lib/libutee/tee_api_arith_mpi.c:439
    2450:	d37ef661 	lsl	x1, x19, #2
/home/xiang/rockpi4-android/optee_os/lib/libutee/tee_api_arith_mpi.c:436
    2454:	b9005bbf 	str	wzr, [x29,#88]
    2458:	aa1903f8 	mov	x24, x25
/home/xiang/rockpi4-android/optee_os/lib/libutee/tee_api_arith_mpi.c:439
    245c:	f9400000 	ldr	x0, [x0]
    2460:	9400219a 	bl	aac8 <mempool_alloc>
    2464:	aa0003f4 	mov	x20, x0
/home/xiang/rockpi4-android/optee_os/lib/libutee/tee_api_arith_mpi.c:440
    2468:	b5000060 	cbnz	x0, 2474 <TEE_BigIntMul+0x80>
/home/xiang/rockpi4-android/optee_os/lib/libutee/tee_api_arith_mpi.c:441
    246c:	129ffe60 	mov	w0, #0xffff000c            	// #-65524
    2470:	9400024a 	bl	2d98 <TEE_Panic>
/home/xiang/rockpi4-android/optee_os/lib/libutee/tee_api_arith_mpi.c:443
    2474:	2a1303e1 	mov	w1, w19
    2478:	aa1403e0 	mov	x0, x20
/home/xiang/rockpi4-android/optee_os/lib/libutee/tee_api_arith_mpi.c:444
    247c:	910143b3 	add	x19, x29, #0x50
/home/xiang/rockpi4-android/optee_os/lib/libutee/tee_api_arith_mpi.c:443
    2480:	97fffdf1 	bl	1c44 <TEE_BigIntInit>
/home/xiang/rockpi4-android/optee_os/lib/libutee/tee_api_arith_mpi.c:444
    2484:	aa1303e0 	mov	x0, x19
    2488:	52800061 	mov	w1, #0x3                   	// #3
    248c:	97fffdee 	bl	1c44 <TEE_BigIntInit>
/home/xiang/rockpi4-android/optee_os/lib/libutee/tee_api_arith_mpi.c:446
    2490:	f940a703 	ldr	x3, [x24,#328]
    2494:	aa1603e2 	mov	x2, x22
    2498:	aa1503e1 	mov	x1, x21
    249c:	aa1403e0 	mov	x0, x20
    24a0:	97fffc2d 	bl	1554 <bigint_binary>
/home/xiang/rockpi4-android/optee_os/lib/libutee/tee_api_arith_mpi.c:448
    24a4:	aa1303e2 	mov	x2, x19
    24a8:	aa1403e1 	mov	x1, x20
    24ac:	aa1703e0 	mov	x0, x23
    24b0:	97ffff9f 	bl	232c <TEE_BigIntAdd>
/home/xiang/rockpi4-android/optee_os/lib/libutee/tee_api_arith_mpi.c:450
    24b4:	f940cf18 	ldr	x24, [x24,#408]
    24b8:	aa1403e1 	mov	x1, x20
    24bc:	f9400300 	ldr	x0, [x24]
    24c0:	940021af 	bl	ab7c <mempool_free>
/home/xiang/rockpi4-android/optee_os/lib/libutee/tee_api_arith_mpi.c:451
    24c4:	f94023f9 	ldr	x25, [sp,#64]
    24c8:	a94153f3 	ldp	x19, x20, [sp,#16]
    24cc:	a9425bf5 	ldp	x21, x22, [sp,#32]
    24d0:	a94363f7 	ldp	x23, x24, [sp,#48]
    24d4:	a8c67bfd 	ldp	x29, x30, [sp],#96
    24d8:	d65f03c0 	ret

00000000000024dc <TEE_BigIntSquare>:
TEE_BigIntSquare():
/home/xiang/rockpi4-android/optee_os/lib/libutee/tee_api_arith_mpi.c:455
    24dc:	aa0103e2 	mov	x2, x1
    24e0:	17ffffc5 	b	23f4 <TEE_BigIntMul>

00000000000024e4 <TEE_BigIntDiv>:
TEE_BigIntDiv():
/home/xiang/rockpi4-android/optee_os/lib/libutee/tee_api_arith_mpi.c:460
    24e4:	a9b47bfd 	stp	x29, x30, [sp,#-192]!
    24e8:	910003fd 	mov	x29, sp
    24ec:	a9025bf5 	stp	x21, x22, [sp,#32]
/home/xiang/rockpi4-android/optee_os/lib/libutee/tee_api_arith_mpi.c:468
    24f0:	910183b6 	add	x22, x29, #0x60
/home/xiang/rockpi4-android/optee_os/lib/libutee/tee_api_arith_mpi.c:460
    24f4:	a90363f7 	stp	x23, x24, [sp,#48]
/home/xiang/rockpi4-android/optee_os/lib/libutee/tee_api_arith_mpi.c:469
    24f8:	9101e3b5 	add	x21, x29, #0x78
/home/xiang/rockpi4-android/optee_os/lib/libutee/tee_api_arith_mpi.c:460
    24fc:	a90153f3 	stp	x19, x20, [sp,#16]
    2500:	aa0003f8 	mov	x24, x0
    2504:	a9046bf9 	stp	x25, x26, [sp,#64]
    2508:	aa0103f7 	mov	x23, x1
    250c:	aa0203f9 	mov	x25, x2
/home/xiang/rockpi4-android/optee_os/lib/libutee/tee_api_arith_mpi.c:468
    2510:	aa0003e1 	mov	x1, x0
/home/xiang/rockpi4-android/optee_os/lib/libutee/tee_api_arith_mpi.c:460
    2514:	aa0303f3 	mov	x19, x3
/home/xiang/rockpi4-android/optee_os/lib/libutee/tee_api_arith_mpi.c:468
    2518:	aa1603e0 	mov	x0, x22
/home/xiang/rockpi4-android/optee_os/lib/libutee/tee_api_arith_mpi.c:460
    251c:	f9002bfb 	str	x27, [sp,#80]
/home/xiang/rockpi4-android/optee_os/lib/libutee/tee_api_arith_mpi.c:468
    2520:	97fffbcc 	bl	1450 <get_mpi>
/home/xiang/rockpi4-android/optee_os/lib/libutee/tee_api_arith_mpi.c:469
    2524:	aa1703e1 	mov	x1, x23
    2528:	aa1503e0 	mov	x0, x21
    252c:	97fffbc9 	bl	1450 <get_mpi>
    2530:	910243bb 	add	x27, x29, #0x90
/home/xiang/rockpi4-android/optee_os/lib/libutee/tee_api_arith_mpi.c:471
    2534:	eb19031f 	cmp	x24, x25
    2538:	540003c0 	b.eq	25b0 <TEE_BigIntDiv+0xcc>
/home/xiang/rockpi4-android/optee_os/lib/libutee/tee_api_arith_mpi.c:473
    253c:	eb1902ff 	cmp	x23, x25
    2540:	540003c0 	b.eq	25b8 <TEE_BigIntDiv+0xd4>
/home/xiang/rockpi4-android/optee_os/lib/libutee/tee_api_arith_mpi.c:465
    2544:	aa1b03f4 	mov	x20, x27
/home/xiang/rockpi4-android/optee_os/lib/libutee/tee_api_arith_mpi.c:476
    2548:	aa1903e1 	mov	x1, x25
    254c:	aa1b03e0 	mov	x0, x27
    2550:	97fffbc0 	bl	1450 <get_mpi>
/home/xiang/rockpi4-android/optee_os/lib/libutee/tee_api_arith_mpi.c:478
    2554:	eb13031f 	cmp	x24, x19
    2558:	9102a3ba 	add	x26, x29, #0xa8
    255c:	54000320 	b.eq	25c0 <TEE_BigIntDiv+0xdc>
/home/xiang/rockpi4-android/optee_os/lib/libutee/tee_api_arith_mpi.c:480
    2560:	eb1302ff 	cmp	x23, x19
    2564:	54000320 	b.eq	25c8 <TEE_BigIntDiv+0xe4>
/home/xiang/rockpi4-android/optee_os/lib/libutee/tee_api_arith_mpi.c:482
    2568:	eb13033f 	cmp	x25, x19
    256c:	54000320 	b.eq	25d0 <TEE_BigIntDiv+0xec>
/home/xiang/rockpi4-android/optee_os/lib/libutee/tee_api_arith_mpi.c:485
    2570:	aa1303e1 	mov	x1, x19
/home/xiang/rockpi4-android/optee_os/lib/libutee/tee_api_arith_mpi.c:466
    2574:	aa1a03f3 	mov	x19, x26
/home/xiang/rockpi4-android/optee_os/lib/libutee/tee_api_arith_mpi.c:485
    2578:	aa1a03e0 	mov	x0, x26
    257c:	97fffbb5 	bl	1450 <get_mpi>
/home/xiang/rockpi4-android/optee_os/lib/libutee/tee_api_arith_mpi.c:487
    2580:	aa1303e3 	mov	x3, x19
    2584:	aa1403e2 	mov	x2, x20
    2588:	aa1503e1 	mov	x1, x21
    258c:	aa1603e0 	mov	x0, x22
    2590:	94000e4c 	bl	5ec0 <mbedtls_mpi_div_mpi>
    2594:	34000220 	cbz	w0, 25d8 <TEE_BigIntDiv+0xf4>
/home/xiang/rockpi4-android/optee_os/lib/libutee/tee_api_arith_mpi.c:487 (discriminator 1)
    2598:	2a0003e2 	mov	w2, w0
    259c:	52803ce1 	mov	w1, #0x1e7                 	// #487
/home/xiang/rockpi4-android/optee_os/lib/libutee/tee_api_arith_mpi.c:490 (discriminator 1)
    25a0:	90000040 	adrp	x0, a000 <kprintf.constprop.0+0x540>
    25a4:	91328000 	add	x0, x0, #0xca0
    25a8:	91034000 	add	x0, x0, #0xd0
    25ac:	97fffb9d 	bl	1420 <mpi_panic>
/home/xiang/rockpi4-android/optee_os/lib/libutee/tee_api_arith_mpi.c:472
    25b0:	aa1603f4 	mov	x20, x22
    25b4:	17ffffe8 	b	2554 <TEE_BigIntDiv+0x70>
/home/xiang/rockpi4-android/optee_os/lib/libutee/tee_api_arith_mpi.c:474
    25b8:	aa1503f4 	mov	x20, x21
    25bc:	17ffffe6 	b	2554 <TEE_BigIntDiv+0x70>
/home/xiang/rockpi4-android/optee_os/lib/libutee/tee_api_arith_mpi.c:479
    25c0:	aa1603f3 	mov	x19, x22
    25c4:	17ffffef 	b	2580 <TEE_BigIntDiv+0x9c>
/home/xiang/rockpi4-android/optee_os/lib/libutee/tee_api_arith_mpi.c:481
    25c8:	aa1503f3 	mov	x19, x21
    25cc:	17ffffed 	b	2580 <TEE_BigIntDiv+0x9c>
/home/xiang/rockpi4-android/optee_os/lib/libutee/tee_api_arith_mpi.c:483
    25d0:	aa1403f3 	mov	x19, x20
    25d4:	17ffffeb 	b	2580 <TEE_BigIntDiv+0x9c>
/home/xiang/rockpi4-android/optee_os/lib/libutee/tee_api_arith_mpi.c:489
    25d8:	b4000118 	cbz	x24, 25f8 <TEE_BigIntDiv+0x114>
/home/xiang/rockpi4-android/optee_os/lib/libutee/tee_api_arith_mpi.c:490
    25dc:	aa1803e1 	mov	x1, x24
    25e0:	aa1603e0 	mov	x0, x22
    25e4:	97fffbc1 	bl	14e8 <copy_mpi_to_bigint>
    25e8:	34000080 	cbz	w0, 25f8 <TEE_BigIntDiv+0x114>
/home/xiang/rockpi4-android/optee_os/lib/libutee/tee_api_arith_mpi.c:490 (discriminator 1)
    25ec:	2a0003e2 	mov	w2, w0
    25f0:	52803d41 	mov	w1, #0x1ea                 	// #490
    25f4:	17ffffeb 	b	25a0 <TEE_BigIntDiv+0xbc>
/home/xiang/rockpi4-android/optee_os/lib/libutee/tee_api_arith_mpi.c:491
    25f8:	b4000117 	cbz	x23, 2618 <TEE_BigIntDiv+0x134>
/home/xiang/rockpi4-android/optee_os/lib/libutee/tee_api_arith_mpi.c:492
    25fc:	aa1703e1 	mov	x1, x23
    2600:	aa1503e0 	mov	x0, x21
    2604:	97fffbb9 	bl	14e8 <copy_mpi_to_bigint>
    2608:	34000080 	cbz	w0, 2618 <TEE_BigIntDiv+0x134>
/home/xiang/rockpi4-android/optee_os/lib/libutee/tee_api_arith_mpi.c:492 (discriminator 1)
    260c:	2a0003e2 	mov	w2, w0
    2610:	52803d81 	mov	w1, #0x1ec                 	// #492
    2614:	17ffffe3 	b	25a0 <TEE_BigIntDiv+0xbc>
/home/xiang/rockpi4-android/optee_os/lib/libutee/tee_api_arith_mpi.c:493
    2618:	aa1603e0 	mov	x0, x22
    261c:	94000901 	bl	4a20 <mbedtls_mpi_free>
/home/xiang/rockpi4-android/optee_os/lib/libutee/tee_api_arith_mpi.c:494
    2620:	aa1503e0 	mov	x0, x21
    2624:	940008ff 	bl	4a20 <mbedtls_mpi_free>
/home/xiang/rockpi4-android/optee_os/lib/libutee/tee_api_arith_mpi.c:495
    2628:	eb1b029f 	cmp	x20, x27
    262c:	54000061 	b.ne	2638 <TEE_BigIntDiv+0x154>
/home/xiang/rockpi4-android/optee_os/lib/libutee/tee_api_arith_mpi.c:496
    2630:	aa1403e0 	mov	x0, x20
    2634:	940008fb 	bl	4a20 <mbedtls_mpi_free>
/home/xiang/rockpi4-android/optee_os/lib/libutee/tee_api_arith_mpi.c:497
    2638:	eb1a027f 	cmp	x19, x26
    263c:	54000061 	b.ne	2648 <TEE_BigIntDiv+0x164>
/home/xiang/rockpi4-android/optee_os/lib/libutee/tee_api_arith_mpi.c:498
    2640:	aa1303e0 	mov	x0, x19
    2644:	940008f7 	bl	4a20 <mbedtls_mpi_free>
/home/xiang/rockpi4-android/optee_os/lib/libutee/tee_api_arith_mpi.c:499
    2648:	a94153f3 	ldp	x19, x20, [sp,#16]
    264c:	a9425bf5 	ldp	x21, x22, [sp,#32]
    2650:	a94363f7 	ldp	x23, x24, [sp,#48]
    2654:	a9446bf9 	ldp	x25, x26, [sp,#64]
    2658:	f9402bfb 	ldr	x27, [sp,#80]
    265c:	a8cc7bfd 	ldp	x29, x30, [sp],#192
    2660:	d65f03c0 	ret

0000000000002664 <TEE_BigIntMod>:
TEE_BigIntMod():
/home/xiang/rockpi4-android/optee_os/lib/libutee/tee_api_arith_mpi.c:502
    2664:	a9bd7bfd 	stp	x29, x30, [sp,#-48]!
    2668:	910003fd 	mov	x29, sp
    266c:	a90153f3 	stp	x19, x20, [sp,#16]
    2670:	aa0003f4 	mov	x20, x0
    2674:	f90013f5 	str	x21, [sp,#32]
    2678:	aa0203f3 	mov	x19, x2
    267c:	aa0103f5 	mov	x21, x1
/home/xiang/rockpi4-android/optee_os/lib/libutee/tee_api_arith_mpi.c:503
    2680:	aa0203e0 	mov	x0, x2
    2684:	52800041 	mov	w1, #0x2                   	// #2
    2688:	97fffe32 	bl	1f50 <TEE_BigIntCmpS32>
    268c:	36f80100 	tbz	w0, #31, 26ac <TEE_BigIntMod+0x48>
/home/xiang/rockpi4-android/optee_os/lib/libutee/tee_api_arith_mpi.c:504
    2690:	90000040 	adrp	x0, a000 <kprintf.constprop.0+0x540>
    2694:	91328000 	add	x0, x0, #0xca0
    2698:	b0000042 	adrp	x2, b000 <small_prime+0x140>
    269c:	52803f01 	mov	w1, #0x1f8                 	// #504
    26a0:	9110fc42 	add	x2, x2, #0x43f
    26a4:	91038000 	add	x0, x0, #0xe0
    26a8:	940001a9 	bl	2d4c <api_panic>
/home/xiang/rockpi4-android/optee_os/lib/libutee/tee_api_arith_mpi.c:506
    26ac:	f0000043 	adrp	x3, d000 <_DYNAMIC>
    26b0:	aa1303e2 	mov	x2, x19
    26b4:	aa1503e1 	mov	x1, x21
    26b8:	aa1403e0 	mov	x0, x20
/home/xiang/rockpi4-android/optee_os/lib/libutee/tee_api_arith_mpi.c:507
    26bc:	f94013f5 	ldr	x21, [sp,#32]
    26c0:	a94153f3 	ldp	x19, x20, [sp,#16]
/home/xiang/rockpi4-android/optee_os/lib/libutee/tee_api_arith_mpi.c:506
    26c4:	f940bc63 	ldr	x3, [x3,#376]
/home/xiang/rockpi4-android/optee_os/lib/libutee/tee_api_arith_mpi.c:507
    26c8:	a8c37bfd 	ldp	x29, x30, [sp],#48
/home/xiang/rockpi4-android/optee_os/lib/libutee/tee_api_arith_mpi.c:506
    26cc:	17fffba2 	b	1554 <bigint_binary>

00000000000026d0 <TEE_BigIntAddMod>:
TEE_BigIntAddMod():
/home/xiang/rockpi4-android/optee_os/lib/libutee/tee_api_arith_mpi.c:512
    26d0:	f0000044 	adrp	x4, d000 <_DYNAMIC>
    26d4:	f940a884 	ldr	x4, [x4,#336]
    26d8:	17fffe30 	b	1f98 <bigint_binary_mod>

00000000000026dc <TEE_BigIntSubMod>:
TEE_BigIntSubMod():
/home/xiang/rockpi4-android/optee_os/lib/libutee/tee_api_arith_mpi.c:518
    26dc:	f0000044 	adrp	x4, d000 <_DYNAMIC>
    26e0:	f940b084 	ldr	x4, [x4,#352]
    26e4:	17fffe2d 	b	1f98 <bigint_binary_mod>

00000000000026e8 <TEE_BigIntMulMod>:
TEE_BigIntMulMod():
/home/xiang/rockpi4-android/optee_os/lib/libutee/tee_api_arith_mpi.c:524
    26e8:	f0000044 	adrp	x4, d000 <_DYNAMIC>
    26ec:	f940a484 	ldr	x4, [x4,#328]
    26f0:	17fffe2a 	b	1f98 <bigint_binary_mod>

00000000000026f4 <TEE_BigIntSquareMod>:
TEE_BigIntSquareMod():
/home/xiang/rockpi4-android/optee_os/lib/libutee/tee_api_arith_mpi.c:530
    26f4:	aa0203e3 	mov	x3, x2
    26f8:	aa0103e2 	mov	x2, x1
    26fc:	17fffffb 	b	26e8 <TEE_BigIntMulMod>

0000000000002700 <TEE_BigIntInvMod>:
TEE_BigIntInvMod():
/home/xiang/rockpi4-android/optee_os/lib/libutee/tee_api_arith_mpi.c:535
    2700:	a9b77bfd 	stp	x29, x30, [sp,#-144]!
    2704:	910003fd 	mov	x29, sp
    2708:	a90153f3 	stp	x19, x20, [sp,#16]
    270c:	aa0103f4 	mov	x20, x1
    2710:	a9025bf5 	stp	x21, x22, [sp,#32]
/home/xiang/rockpi4-android/optee_os/lib/libutee/tee_api_arith_mpi.c:541
    2714:	52800041 	mov	w1, #0x2                   	// #2
/home/xiang/rockpi4-android/optee_os/lib/libutee/tee_api_arith_mpi.c:535
    2718:	f9001bf7 	str	x23, [sp,#48]
    271c:	aa0203f5 	mov	x21, x2
    2720:	aa0003f7 	mov	x23, x0
/home/xiang/rockpi4-android/optee_os/lib/libutee/tee_api_arith_mpi.c:541
    2724:	aa0203e0 	mov	x0, x2
    2728:	97fffe0a 	bl	1f50 <TEE_BigIntCmpS32>
    272c:	36f80100 	tbz	w0, #31, 274c <TEE_BigIntInvMod+0x4c>
/home/xiang/rockpi4-android/optee_os/lib/libutee/tee_api_arith_mpi.c:542
    2730:	90000040 	adrp	x0, a000 <kprintf.constprop.0+0x540>
    2734:	91328000 	add	x0, x0, #0xca0
    2738:	b0000042 	adrp	x2, b000 <small_prime+0x140>
    273c:	528043c1 	mov	w1, #0x21e                 	// #542
    2740:	91115042 	add	x2, x2, #0x454
    2744:	9103c000 	add	x0, x0, #0xf0
    2748:	94000181 	bl	2d4c <api_panic>
/home/xiang/rockpi4-android/optee_os/lib/libutee/tee_api_arith_mpi.c:541 (discriminator 1)
    274c:	52800001 	mov	w1, #0x0                   	// #0
    2750:	aa1403e0 	mov	x0, x20
    2754:	97fffdff 	bl	1f50 <TEE_BigIntCmpS32>
    2758:	34fffec0 	cbz	w0, 2730 <TEE_BigIntInvMod+0x30>
/home/xiang/rockpi4-android/optee_os/lib/libutee/tee_api_arith_mpi.c:544
    275c:	910123b3 	add	x19, x29, #0x48
    2760:	aa1703e1 	mov	x1, x23
    2764:	aa1303e0 	mov	x0, x19
/home/xiang/rockpi4-android/optee_os/lib/libutee/tee_api_arith_mpi.c:545
    2768:	9101e3b6 	add	x22, x29, #0x78
/home/xiang/rockpi4-android/optee_os/lib/libutee/tee_api_arith_mpi.c:544
    276c:	97fffb39 	bl	1450 <get_mpi>
/home/xiang/rockpi4-android/optee_os/lib/libutee/tee_api_arith_mpi.c:545
    2770:	aa1503e1 	mov	x1, x21
    2774:	aa1603e0 	mov	x0, x22
    2778:	97fffb36 	bl	1450 <get_mpi>
    277c:	910183b5 	add	x21, x29, #0x60
/home/xiang/rockpi4-android/optee_os/lib/libutee/tee_api_arith_mpi.c:547
    2780:	eb17029f 	cmp	x20, x23
    2784:	54000200 	b.eq	27c4 <TEE_BigIntInvMod+0xc4>
/home/xiang/rockpi4-android/optee_os/lib/libutee/tee_api_arith_mpi.c:550
    2788:	aa1403e1 	mov	x1, x20
/home/xiang/rockpi4-android/optee_os/lib/libutee/tee_api_arith_mpi.c:539
    278c:	aa1503f4 	mov	x20, x21
/home/xiang/rockpi4-android/optee_os/lib/libutee/tee_api_arith_mpi.c:550
    2790:	aa1503e0 	mov	x0, x21
    2794:	97fffb2f 	bl	1450 <get_mpi>
/home/xiang/rockpi4-android/optee_os/lib/libutee/tee_api_arith_mpi.c:552
    2798:	aa1603e2 	mov	x2, x22
    279c:	aa1403e1 	mov	x1, x20
    27a0:	aa1303e0 	mov	x0, x19
    27a4:	94001354 	bl	74f4 <mbedtls_mpi_inv_mod>
    27a8:	34000120 	cbz	w0, 27cc <TEE_BigIntInvMod+0xcc>
/home/xiang/rockpi4-android/optee_os/lib/libutee/tee_api_arith_mpi.c:552 (discriminator 1)
    27ac:	2a0003e2 	mov	w2, w0
    27b0:	52804501 	mov	w1, #0x228                 	// #552
/home/xiang/rockpi4-android/optee_os/lib/libutee/tee_api_arith_mpi.c:554 (discriminator 1)
    27b4:	90000040 	adrp	x0, a000 <kprintf.constprop.0+0x540>
    27b8:	91328000 	add	x0, x0, #0xca0
    27bc:	9103c000 	add	x0, x0, #0xf0
    27c0:	97fffb18 	bl	1420 <mpi_panic>
/home/xiang/rockpi4-android/optee_os/lib/libutee/tee_api_arith_mpi.c:548
    27c4:	aa1303f4 	mov	x20, x19
    27c8:	17fffff4 	b	2798 <TEE_BigIntInvMod+0x98>
/home/xiang/rockpi4-android/optee_os/lib/libutee/tee_api_arith_mpi.c:554
    27cc:	aa1703e1 	mov	x1, x23
    27d0:	aa1303e0 	mov	x0, x19
    27d4:	97fffb45 	bl	14e8 <copy_mpi_to_bigint>
    27d8:	34000080 	cbz	w0, 27e8 <TEE_BigIntInvMod+0xe8>
/home/xiang/rockpi4-android/optee_os/lib/libutee/tee_api_arith_mpi.c:554 (discriminator 1)
    27dc:	2a0003e2 	mov	w2, w0
    27e0:	52804541 	mov	w1, #0x22a                 	// #554
    27e4:	17fffff4 	b	27b4 <TEE_BigIntInvMod+0xb4>
/home/xiang/rockpi4-android/optee_os/lib/libutee/tee_api_arith_mpi.c:555
    27e8:	aa1303e0 	mov	x0, x19
    27ec:	9400088d 	bl	4a20 <mbedtls_mpi_free>
/home/xiang/rockpi4-android/optee_os/lib/libutee/tee_api_arith_mpi.c:556
    27f0:	aa1603e0 	mov	x0, x22
    27f4:	9400088b 	bl	4a20 <mbedtls_mpi_free>
/home/xiang/rockpi4-android/optee_os/lib/libutee/tee_api_arith_mpi.c:557
    27f8:	eb15029f 	cmp	x20, x21
    27fc:	54000061 	b.ne	2808 <TEE_BigIntInvMod+0x108>
/home/xiang/rockpi4-android/optee_os/lib/libutee/tee_api_arith_mpi.c:558
    2800:	aa1403e0 	mov	x0, x20
    2804:	94000887 	bl	4a20 <mbedtls_mpi_free>
/home/xiang/rockpi4-android/optee_os/lib/libutee/tee_api_arith_mpi.c:559
    2808:	a94153f3 	ldp	x19, x20, [sp,#16]
    280c:	a9425bf5 	ldp	x21, x22, [sp,#32]
    2810:	f9401bf7 	ldr	x23, [sp,#48]
    2814:	a8c97bfd 	ldp	x29, x30, [sp],#144
    2818:	d65f03c0 	ret

000000000000281c <TEE_BigIntRelativePrime>:
TEE_BigIntRelativePrime():
/home/xiang/rockpi4-android/optee_os/lib/libutee/tee_api_arith_mpi.c:562
    281c:	a9b77bfd 	stp	x29, x30, [sp,#-144]!
    2820:	910003fd 	mov	x29, sp
    2824:	a90153f3 	stp	x19, x20, [sp,#16]
/home/xiang/rockpi4-android/optee_os/lib/libutee/tee_api_arith_mpi.c:569
    2828:	910123b4 	add	x20, x29, #0x48
/home/xiang/rockpi4-android/optee_os/lib/libutee/tee_api_arith_mpi.c:562
    282c:	aa0003f3 	mov	x19, x0
    2830:	a9025bf5 	stp	x21, x22, [sp,#32]
    2834:	f9001bf7 	str	x23, [sp,#48]
    2838:	aa0103f5 	mov	x21, x1
/home/xiang/rockpi4-android/optee_os/lib/libutee/tee_api_arith_mpi.c:569
    283c:	aa0003e1 	mov	x1, x0
    2840:	aa1403e0 	mov	x0, x20
    2844:	97fffb03 	bl	1450 <get_mpi>
/home/xiang/rockpi4-android/optee_os/lib/libutee/tee_api_arith_mpi.c:571
    2848:	eb15027f 	cmp	x19, x21
    284c:	910183b3 	add	x19, x29, #0x60
    2850:	54000260 	b.eq	289c <TEE_BigIntRelativePrime+0x80>
/home/xiang/rockpi4-android/optee_os/lib/libutee/tee_api_arith_mpi.c:566
    2854:	aa1303f6 	mov	x22, x19
/home/xiang/rockpi4-android/optee_os/lib/libutee/tee_api_arith_mpi.c:574
    2858:	aa1503e1 	mov	x1, x21
    285c:	aa1303e0 	mov	x0, x19
    2860:	97fffafc 	bl	1450 <get_mpi>
get_mpi():
/home/xiang/rockpi4-android/optee_os/lib/libutee/tee_api_arith_mpi.c:101
    2864:	9101e3b5 	add	x21, x29, #0x78
    2868:	aa1503e0 	mov	x0, x21
    286c:	94000863 	bl	49f8 <mbedtls_mpi_init_mempool>
TEE_BigIntRelativePrime():
/home/xiang/rockpi4-android/optee_os/lib/libutee/tee_api_arith_mpi.c:578
    2870:	aa1303e2 	mov	x2, x19
    2874:	aa1403e1 	mov	x1, x20
    2878:	aa1503e0 	mov	x0, x21
    287c:	9400119e 	bl	6ef4 <mbedtls_mpi_gcd>
    2880:	34000120 	cbz	w0, 28a4 <TEE_BigIntRelativePrime+0x88>
/home/xiang/rockpi4-android/optee_os/lib/libutee/tee_api_arith_mpi.c:578 (discriminator 1)
    2884:	2a0003e2 	mov	w2, w0
    2888:	90000040 	adrp	x0, a000 <kprintf.constprop.0+0x540>
    288c:	91328000 	add	x0, x0, #0xca0
    2890:	52804841 	mov	w1, #0x242                 	// #578
    2894:	91042000 	add	x0, x0, #0x108
    2898:	97fffae2 	bl	1420 <mpi_panic>
/home/xiang/rockpi4-android/optee_os/lib/libutee/tee_api_arith_mpi.c:572
    289c:	aa1403f6 	mov	x22, x20
    28a0:	17fffff1 	b	2864 <TEE_BigIntRelativePrime+0x48>
/home/xiang/rockpi4-android/optee_os/lib/libutee/tee_api_arith_mpi.c:580
    28a4:	52800021 	mov	w1, #0x1                   	// #1
    28a8:	aa1503e0 	mov	x0, x21
    28ac:	94000b5f 	bl	5628 <mbedtls_mpi_cmp_int>
    28b0:	7100001f 	cmp	w0, #0x0
    28b4:	1a9f17f7 	cset	w23, eq
/home/xiang/rockpi4-android/optee_os/lib/libutee/tee_api_arith_mpi.c:582
    28b8:	aa1503e0 	mov	x0, x21
    28bc:	94000859 	bl	4a20 <mbedtls_mpi_free>
/home/xiang/rockpi4-android/optee_os/lib/libutee/tee_api_arith_mpi.c:583
    28c0:	aa1403e0 	mov	x0, x20
    28c4:	94000857 	bl	4a20 <mbedtls_mpi_free>
/home/xiang/rockpi4-android/optee_os/lib/libutee/tee_api_arith_mpi.c:584
    28c8:	eb1302df 	cmp	x22, x19
    28cc:	54000061 	b.ne	28d8 <TEE_BigIntRelativePrime+0xbc>
/home/xiang/rockpi4-android/optee_os/lib/libutee/tee_api_arith_mpi.c:585
    28d0:	aa1603e0 	mov	x0, x22
    28d4:	94000853 	bl	4a20 <mbedtls_mpi_free>
/home/xiang/rockpi4-android/optee_os/lib/libutee/tee_api_arith_mpi.c:588
    28d8:	2a1703e0 	mov	w0, w23
    28dc:	f9401bf7 	ldr	x23, [sp,#48]
    28e0:	a94153f3 	ldp	x19, x20, [sp,#16]
    28e4:	a9425bf5 	ldp	x21, x22, [sp,#32]
    28e8:	a8c97bfd 	ldp	x29, x30, [sp],#144
    28ec:	d65f03c0 	ret

00000000000028f0 <TEE_BigIntComputeExtendedGcd>:
TEE_BigIntComputeExtendedGcd():
/home/xiang/rockpi4-android/optee_os/lib/libutee/tee_api_arith_mpi.c:699
    28f0:	a9b17bfd 	stp	x29, x30, [sp,#-240]!
    28f4:	910003fd 	mov	x29, sp
    28f8:	a9025bf5 	stp	x21, x22, [sp,#32]
/home/xiang/rockpi4-android/optee_os/lib/libutee/tee_api_arith_mpi.c:705
    28fc:	9101e3b5 	add	x21, x29, #0x78
/home/xiang/rockpi4-android/optee_os/lib/libutee/tee_api_arith_mpi.c:699
    2900:	aa0303f6 	mov	x22, x3
    2904:	a90153f3 	stp	x19, x20, [sp,#16]
    2908:	a9046bf9 	stp	x25, x26, [sp,#64]
    290c:	aa0403f3 	mov	x19, x4
    2910:	a90363f7 	stp	x23, x24, [sp,#48]
    2914:	aa0203f9 	mov	x25, x2
    2918:	a90573fb 	stp	x27, x28, [sp,#80]
    291c:	aa0103fa 	mov	x26, x1
    2920:	aa0003fc 	mov	x28, x0
/home/xiang/rockpi4-android/optee_os/lib/libutee/tee_api_arith_mpi.c:705
    2924:	aa0003e1 	mov	x1, x0
/home/xiang/rockpi4-android/optee_os/lib/libutee/tee_api_arith_mpi.c:706
    2928:	910243b4 	add	x20, x29, #0x90
/home/xiang/rockpi4-android/optee_os/lib/libutee/tee_api_arith_mpi.c:705
    292c:	aa1503e0 	mov	x0, x21
    2930:	97fffac8 	bl	1450 <get_mpi>
    2934:	9102a3b8 	add	x24, x29, #0xa8
/home/xiang/rockpi4-android/optee_os/lib/libutee/tee_api_arith_mpi.c:706
    2938:	aa1603e1 	mov	x1, x22
    293c:	aa1403e0 	mov	x0, x20
    2940:	97fffac4 	bl	1450 <get_mpi>
/home/xiang/rockpi4-android/optee_os/lib/libutee/tee_api_arith_mpi.c:708
    2944:	eb1302df 	cmp	x22, x19
    2948:	54000260 	b.eq	2994 <TEE_BigIntComputeExtendedGcd+0xa4>
/home/xiang/rockpi4-android/optee_os/lib/libutee/tee_api_arith_mpi.c:711
    294c:	aa1303e1 	mov	x1, x19
/home/xiang/rockpi4-android/optee_os/lib/libutee/tee_api_arith_mpi.c:703
    2950:	aa1803f3 	mov	x19, x24
/home/xiang/rockpi4-android/optee_os/lib/libutee/tee_api_arith_mpi.c:711
    2954:	aa1803e0 	mov	x0, x24
    2958:	97fffabe 	bl	1450 <get_mpi>
/home/xiang/rockpi4-android/optee_os/lib/libutee/tee_api_arith_mpi.c:713
    295c:	f100035f 	cmp	x26, #0x0
    2960:	fa400b20 	ccmp	x25, #0x0, #0x0, eq
    2964:	540001c1 	b.ne	299c <TEE_BigIntComputeExtendedGcd+0xac>
/home/xiang/rockpi4-android/optee_os/lib/libutee/tee_api_arith_mpi.c:714
    2968:	aa1303e2 	mov	x2, x19
    296c:	aa1403e1 	mov	x1, x20
    2970:	aa1503e0 	mov	x0, x21
    2974:	94001160 	bl	6ef4 <mbedtls_mpi_gcd>
    2978:	34000ac0 	cbz	w0, 2ad0 <TEE_BigIntComputeExtendedGcd+0x1e0>
/home/xiang/rockpi4-android/optee_os/lib/libutee/tee_api_arith_mpi.c:714 (discriminator 1)
    297c:	2a0003e2 	mov	w2, w0
    2980:	52805941 	mov	w1, #0x2ca                 	// #714
/home/xiang/rockpi4-android/optee_os/lib/libutee/tee_api_arith_mpi.c:730 (discriminator 1)
    2984:	90000040 	adrp	x0, a000 <kprintf.constprop.0+0x540>
    2988:	91328000 	add	x0, x0, #0xca0
    298c:	91048000 	add	x0, x0, #0x120
    2990:	97fffaa4 	bl	1420 <mpi_panic>
/home/xiang/rockpi4-android/optee_os/lib/libutee/tee_api_arith_mpi.c:709
    2994:	aa1403f3 	mov	x19, x20
    2998:	17fffff1 	b	295c <TEE_BigIntComputeExtendedGcd+0x6c>
/home/xiang/rockpi4-android/optee_os/lib/libutee/tee_api_arith_mpi.c:719
    299c:	39c00260 	ldrsb	w0, [x19]
/home/xiang/rockpi4-android/optee_os/lib/libutee/tee_api_arith_mpi.c:725
    29a0:	910303b7 	add	x23, x29, #0xc0
/home/xiang/rockpi4-android/optee_os/lib/libutee/tee_api_arith_mpi.c:718
    29a4:	39c243bb 	ldrsb	w27, [x29,#144]
/home/xiang/rockpi4-android/optee_os/lib/libutee/tee_api_arith_mpi.c:725
    29a8:	aa1a03e1 	mov	x1, x26
/home/xiang/rockpi4-android/optee_os/lib/libutee/tee_api_arith_mpi.c:719
    29ac:	b9006fa0 	str	w0, [x29,#108]
/home/xiang/rockpi4-android/optee_os/lib/libutee/tee_api_arith_mpi.c:722
    29b0:	52800020 	mov	w0, #0x1                   	// #1
    29b4:	790123a0 	strh	w0, [x29,#144]
/home/xiang/rockpi4-android/optee_os/lib/libutee/tee_api_arith_mpi.c:726
    29b8:	910363b6 	add	x22, x29, #0xd8
/home/xiang/rockpi4-android/optee_os/lib/libutee/tee_api_arith_mpi.c:723
    29bc:	79000260 	strh	w0, [x19]
/home/xiang/rockpi4-android/optee_os/lib/libutee/tee_api_arith_mpi.c:725
    29c0:	aa1703e0 	mov	x0, x23
    29c4:	97fffaa3 	bl	1450 <get_mpi>
/home/xiang/rockpi4-android/optee_os/lib/libutee/tee_api_arith_mpi.c:726
    29c8:	aa1903e1 	mov	x1, x25
    29cc:	aa1603e0 	mov	x0, x22
    29d0:	97fffaa0 	bl	1450 <get_mpi>
/home/xiang/rockpi4-android/optee_os/lib/libutee/tee_api_arith_mpi.c:728
    29d4:	aa1303e1 	mov	x1, x19
    29d8:	aa1403e0 	mov	x0, x20
    29dc:	94000aab 	bl	5488 <mbedtls_mpi_cmp_abs>
/home/xiang/rockpi4-android/optee_os/lib/libutee/tee_api_arith_mpi.c:729
    29e0:	7100001f 	cmp	w0, #0x0
    29e4:	540002c1 	b.ne	2a3c <TEE_BigIntComputeExtendedGcd+0x14c>
/home/xiang/rockpi4-android/optee_os/lib/libutee/tee_api_arith_mpi.c:730
    29e8:	aa1403e1 	mov	x1, x20
    29ec:	aa1503e0 	mov	x0, x21
    29f0:	940008ca 	bl	4d18 <mbedtls_mpi_copy>
    29f4:	34000080 	cbz	w0, 2a04 <TEE_BigIntComputeExtendedGcd+0x114>
/home/xiang/rockpi4-android/optee_os/lib/libutee/tee_api_arith_mpi.c:730 (discriminator 1)
    29f8:	2a0003e2 	mov	w2, w0
    29fc:	52805b41 	mov	w1, #0x2da                 	// #730
    2a00:	17ffffe1 	b	2984 <TEE_BigIntComputeExtendedGcd+0x94>
/home/xiang/rockpi4-android/optee_os/lib/libutee/tee_api_arith_mpi.c:731
    2a04:	52800021 	mov	w1, #0x1                   	// #1
    2a08:	aa1703e0 	mov	x0, x23
    2a0c:	94000914 	bl	4e5c <mbedtls_mpi_lset>
    2a10:	34000080 	cbz	w0, 2a20 <TEE_BigIntComputeExtendedGcd+0x130>
/home/xiang/rockpi4-android/optee_os/lib/libutee/tee_api_arith_mpi.c:731 (discriminator 1)
    2a14:	2a0003e2 	mov	w2, w0
    2a18:	52805b61 	mov	w1, #0x2db                 	// #731
    2a1c:	17ffffda 	b	2984 <TEE_BigIntComputeExtendedGcd+0x94>
/home/xiang/rockpi4-android/optee_os/lib/libutee/tee_api_arith_mpi.c:732
    2a20:	52800001 	mov	w1, #0x0                   	// #0
    2a24:	aa1603e0 	mov	x0, x22
    2a28:	9400090d 	bl	4e5c <mbedtls_mpi_lset>
    2a2c:	34000160 	cbz	w0, 2a58 <TEE_BigIntComputeExtendedGcd+0x168>
/home/xiang/rockpi4-android/optee_os/lib/libutee/tee_api_arith_mpi.c:732 (discriminator 1)
    2a30:	2a0003e2 	mov	w2, w0
    2a34:	52805b81 	mov	w1, #0x2dc                 	// #732
    2a38:	17ffffd3 	b	2984 <TEE_BigIntComputeExtendedGcd+0x94>
/home/xiang/rockpi4-android/optee_os/lib/libutee/tee_api_arith_mpi.c:733
    2a3c:	540002ad 	b.le	2a90 <TEE_BigIntComputeExtendedGcd+0x1a0>
/home/xiang/rockpi4-android/optee_os/lib/libutee/tee_api_arith_mpi.c:734
    2a40:	aa1303e4 	mov	x4, x19
    2a44:	aa1403e3 	mov	x3, x20
    2a48:	aa1603e2 	mov	x2, x22
    2a4c:	aa1703e1 	mov	x1, x23
/home/xiang/rockpi4-android/optee_os/lib/libutee/tee_api_arith_mpi.c:736
    2a50:	aa1503e0 	mov	x0, x21
    2a54:	97fffb18 	bl	16b4 <mpi_egcd>
/home/xiang/rockpi4-android/optee_os/lib/libutee/tee_api_arith_mpi.c:739
    2a58:	794183a0 	ldrh	w0, [x29,#192]
/home/xiang/rockpi4-android/optee_os/lib/libutee/tee_api_arith_mpi.c:740
    2a5c:	b9406fa1 	ldr	w1, [x29,#108]
/home/xiang/rockpi4-android/optee_os/lib/libutee/tee_api_arith_mpi.c:739
    2a60:	1b007f7b 	mul	w27, w27, w0
/home/xiang/rockpi4-android/optee_os/lib/libutee/tee_api_arith_mpi.c:740
    2a64:	7941b3a0 	ldrh	w0, [x29,#216]
/home/xiang/rockpi4-android/optee_os/lib/libutee/tee_api_arith_mpi.c:739
    2a68:	790183bb 	strh	w27, [x29,#192]
/home/xiang/rockpi4-android/optee_os/lib/libutee/tee_api_arith_mpi.c:740
    2a6c:	1b007c20 	mul	w0, w1, w0
/home/xiang/rockpi4-android/optee_os/lib/libutee/tee_api_arith_mpi.c:742
    2a70:	aa1a03e1 	mov	x1, x26
/home/xiang/rockpi4-android/optee_os/lib/libutee/tee_api_arith_mpi.c:740
    2a74:	7901b3a0 	strh	w0, [x29,#216]
/home/xiang/rockpi4-android/optee_os/lib/libutee/tee_api_arith_mpi.c:742
    2a78:	aa1703e0 	mov	x0, x23
    2a7c:	97fffa9b 	bl	14e8 <copy_mpi_to_bigint>
    2a80:	34000120 	cbz	w0, 2aa4 <TEE_BigIntComputeExtendedGcd+0x1b4>
/home/xiang/rockpi4-android/optee_os/lib/libutee/tee_api_arith_mpi.c:742 (discriminator 1)
    2a84:	2a0003e2 	mov	w2, w0
    2a88:	52805cc1 	mov	w1, #0x2e6                 	// #742
    2a8c:	17ffffbe 	b	2984 <TEE_BigIntComputeExtendedGcd+0x94>
/home/xiang/rockpi4-android/optee_os/lib/libutee/tee_api_arith_mpi.c:736
    2a90:	aa1403e4 	mov	x4, x20
    2a94:	aa1303e3 	mov	x3, x19
    2a98:	aa1703e2 	mov	x2, x23
    2a9c:	aa1603e1 	mov	x1, x22
    2aa0:	17ffffec 	b	2a50 <TEE_BigIntComputeExtendedGcd+0x160>
/home/xiang/rockpi4-android/optee_os/lib/libutee/tee_api_arith_mpi.c:743
    2aa4:	aa1903e1 	mov	x1, x25
    2aa8:	aa1603e0 	mov	x0, x22
    2aac:	97fffa8f 	bl	14e8 <copy_mpi_to_bigint>
    2ab0:	34000080 	cbz	w0, 2ac0 <TEE_BigIntComputeExtendedGcd+0x1d0>
/home/xiang/rockpi4-android/optee_os/lib/libutee/tee_api_arith_mpi.c:743 (discriminator 1)
    2ab4:	2a0003e2 	mov	w2, w0
    2ab8:	52805ce1 	mov	w1, #0x2e7                 	// #743
    2abc:	17ffffb2 	b	2984 <TEE_BigIntComputeExtendedGcd+0x94>
/home/xiang/rockpi4-android/optee_os/lib/libutee/tee_api_arith_mpi.c:744
    2ac0:	aa1703e0 	mov	x0, x23
    2ac4:	940007d7 	bl	4a20 <mbedtls_mpi_free>
/home/xiang/rockpi4-android/optee_os/lib/libutee/tee_api_arith_mpi.c:745
    2ac8:	aa1603e0 	mov	x0, x22
    2acc:	940007d5 	bl	4a20 <mbedtls_mpi_free>
/home/xiang/rockpi4-android/optee_os/lib/libutee/tee_api_arith_mpi.c:748
    2ad0:	aa1c03e1 	mov	x1, x28
    2ad4:	aa1503e0 	mov	x0, x21
    2ad8:	97fffa84 	bl	14e8 <copy_mpi_to_bigint>
    2adc:	34000080 	cbz	w0, 2aec <TEE_BigIntComputeExtendedGcd+0x1fc>
/home/xiang/rockpi4-android/optee_os/lib/libutee/tee_api_arith_mpi.c:748 (discriminator 1)
    2ae0:	2a0003e2 	mov	w2, w0
    2ae4:	52805d81 	mov	w1, #0x2ec                 	// #748
    2ae8:	17ffffa7 	b	2984 <TEE_BigIntComputeExtendedGcd+0x94>
/home/xiang/rockpi4-android/optee_os/lib/libutee/tee_api_arith_mpi.c:749
    2aec:	aa1503e0 	mov	x0, x21
    2af0:	940007cc 	bl	4a20 <mbedtls_mpi_free>
/home/xiang/rockpi4-android/optee_os/lib/libutee/tee_api_arith_mpi.c:750
    2af4:	aa1403e0 	mov	x0, x20
    2af8:	940007ca 	bl	4a20 <mbedtls_mpi_free>
/home/xiang/rockpi4-android/optee_os/lib/libutee/tee_api_arith_mpi.c:751
    2afc:	eb18027f 	cmp	x19, x24
    2b00:	54000061 	b.ne	2b0c <TEE_BigIntComputeExtendedGcd+0x21c>
/home/xiang/rockpi4-android/optee_os/lib/libutee/tee_api_arith_mpi.c:752
    2b04:	aa1303e0 	mov	x0, x19
    2b08:	940007c6 	bl	4a20 <mbedtls_mpi_free>
/home/xiang/rockpi4-android/optee_os/lib/libutee/tee_api_arith_mpi.c:753
    2b0c:	a94153f3 	ldp	x19, x20, [sp,#16]
    2b10:	a9425bf5 	ldp	x21, x22, [sp,#32]
    2b14:	a94363f7 	ldp	x23, x24, [sp,#48]
    2b18:	a9446bf9 	ldp	x25, x26, [sp,#64]
    2b1c:	a94573fb 	ldp	x27, x28, [sp,#80]
    2b20:	a8cf7bfd 	ldp	x29, x30, [sp],#240
    2b24:	d65f03c0 	ret

0000000000002b28 <TEE_BigIntIsProbablePrime>:
TEE_BigIntIsProbablePrime():
/home/xiang/rockpi4-android/optee_os/lib/libutee/tee_api_arith_mpi.c:764
    2b28:	a9bc7bfd 	stp	x29, x30, [sp,#-64]!
/home/xiang/rockpi4-android/optee_os/lib/libutee/tee_api_arith_mpi.c:768
    2b2c:	aa0003e1 	mov	x1, x0
/home/xiang/rockpi4-android/optee_os/lib/libutee/tee_api_arith_mpi.c:764
    2b30:	910003fd 	mov	x29, sp
    2b34:	a90153f3 	stp	x19, x20, [sp,#16]
/home/xiang/rockpi4-android/optee_os/lib/libutee/tee_api_arith_mpi.c:768
    2b38:	9100a3b3 	add	x19, x29, #0x28
    2b3c:	aa1303e0 	mov	x0, x19
    2b40:	97fffa44 	bl	1450 <get_mpi>
/home/xiang/rockpi4-android/optee_os/lib/libutee/tee_api_arith_mpi.c:770
    2b44:	f0ffffe1 	adrp	x1, 1000 <TEE_OpenTASession+0x44>
    2b48:	911a3021 	add	x1, x1, #0x68c
    2b4c:	d2800002 	mov	x2, #0x0                   	// #0
    2b50:	aa1303e0 	mov	x0, x19
    2b54:	9400139a 	bl	79bc <mbedtls_mpi_is_prime>
    2b58:	2a0003f4 	mov	w20, w0
/home/xiang/rockpi4-android/optee_os/lib/libutee/tee_api_arith_mpi.c:772
    2b5c:	aa1303e0 	mov	x0, x19
    2b60:	940007b0 	bl	4a20 <mbedtls_mpi_free>
/home/xiang/rockpi4-android/optee_os/lib/libutee/tee_api_arith_mpi.c:774
    2b64:	7100029f 	cmp	w20, #0x0
/home/xiang/rockpi4-android/optee_os/lib/libutee/tee_api_arith_mpi.c:778
    2b68:	1a9f17e0 	cset	w0, eq
    2b6c:	a94153f3 	ldp	x19, x20, [sp,#16]
    2b70:	a8c47bfd 	ldp	x29, x30, [sp],#64
    2b74:	d65f03c0 	ret

0000000000002b78 <TEE_BigIntInitFMM>:
TEE_BigIntInitFMM():
/home/xiang/rockpi4-android/optee_os/lib/libutee/tee_api_arith_mpi.c:790
    2b78:	17fffc33 	b	1c44 <TEE_BigIntInit>

0000000000002b7c <TEE_BigIntInitFMMContext>:
TEE_BigIntInitFMMContext():
/home/xiang/rockpi4-android/optee_os/lib/libutee/tee_api_arith_mpi.c:796
    2b7c:	d65f03c0 	ret

0000000000002b80 <TEE_BigIntFMMSizeInU32>:
TEE_BigIntFMMSizeInU32():
/home/xiang/rockpi4-android/optee_os/lib/libutee/tee_api_arith_mpi.c:801
    2b80:	11007c00 	add	w0, w0, #0x1f
    2b84:	53057c00 	lsr	w0, w0, #5
/home/xiang/rockpi4-android/optee_os/lib/libutee/tee_api_arith_mpi.c:802
    2b88:	11000800 	add	w0, w0, #0x2
    2b8c:	d65f03c0 	ret

0000000000002b90 <TEE_BigIntFMMContextSizeInU32>:
TEE_BigIntFMMContextSizeInU32():
/home/xiang/rockpi4-android/optee_os/lib/libutee/tee_api_arith_mpi.c:808
    2b90:	52800020 	mov	w0, #0x1                   	// #1
    2b94:	d65f03c0 	ret

0000000000002b98 <TEE_BigIntConvertToFMM>:
TEE_BigIntConvertToFMM():
/home/xiang/rockpi4-android/optee_os/lib/libutee/tee_api_arith_mpi.c:814
    2b98:	17fffeb3 	b	2664 <TEE_BigIntMod>

0000000000002b9c <TEE_BigIntConvertFromFMM>:
TEE_BigIntConvertFromFMM():
/home/xiang/rockpi4-android/optee_os/lib/libutee/tee_api_arith_mpi.c:820
    2b9c:	a9ba7bfd 	stp	x29, x30, [sp,#-96]!
    2ba0:	910003fd 	mov	x29, sp
    2ba4:	a90153f3 	stp	x19, x20, [sp,#16]
/home/xiang/rockpi4-android/optee_os/lib/libutee/tee_api_arith_mpi.c:824
    2ba8:	9100c3b3 	add	x19, x29, #0x30
/home/xiang/rockpi4-android/optee_os/lib/libutee/tee_api_arith_mpi.c:820
    2bac:	a9025bf5 	stp	x21, x22, [sp,#32]
/home/xiang/rockpi4-android/optee_os/lib/libutee/tee_api_arith_mpi.c:825
    2bb0:	910123b4 	add	x20, x29, #0x48
/home/xiang/rockpi4-android/optee_os/lib/libutee/tee_api_arith_mpi.c:820
    2bb4:	aa0103f6 	mov	x22, x1
    2bb8:	aa0003f5 	mov	x21, x0
/home/xiang/rockpi4-android/optee_os/lib/libutee/tee_api_arith_mpi.c:824
    2bbc:	aa0003e1 	mov	x1, x0
    2bc0:	aa1303e0 	mov	x0, x19
    2bc4:	97fffa23 	bl	1450 <get_mpi>
/home/xiang/rockpi4-android/optee_os/lib/libutee/tee_api_arith_mpi.c:825
    2bc8:	aa1603e1 	mov	x1, x22
    2bcc:	aa1403e0 	mov	x0, x20
    2bd0:	97fffa20 	bl	1450 <get_mpi>
/home/xiang/rockpi4-android/optee_os/lib/libutee/tee_api_arith_mpi.c:827
    2bd4:	aa1403e1 	mov	x1, x20
    2bd8:	aa1303e0 	mov	x0, x19
    2bdc:	9400084f 	bl	4d18 <mbedtls_mpi_copy>
    2be0:	340000e0 	cbz	w0, 2bfc <TEE_BigIntConvertFromFMM+0x60>
/home/xiang/rockpi4-android/optee_os/lib/libutee/tee_api_arith_mpi.c:827 (discriminator 1)
    2be4:	2a0003e2 	mov	w2, w0
    2be8:	52806761 	mov	w1, #0x33b                 	// #827
/home/xiang/rockpi4-android/optee_os/lib/libutee/tee_api_arith_mpi.c:829 (discriminator 1)
    2bec:	90000040 	adrp	x0, a000 <kprintf.constprop.0+0x540>
    2bf0:	91328000 	add	x0, x0, #0xca0
    2bf4:	91050000 	add	x0, x0, #0x140
    2bf8:	97fffa0a 	bl	1420 <mpi_panic>
/home/xiang/rockpi4-android/optee_os/lib/libutee/tee_api_arith_mpi.c:829
    2bfc:	aa1503e1 	mov	x1, x21
    2c00:	aa1303e0 	mov	x0, x19
    2c04:	97fffa39 	bl	14e8 <copy_mpi_to_bigint>
    2c08:	34000080 	cbz	w0, 2c18 <TEE_BigIntConvertFromFMM+0x7c>
/home/xiang/rockpi4-android/optee_os/lib/libutee/tee_api_arith_mpi.c:829 (discriminator 1)
    2c0c:	2a0003e2 	mov	w2, w0
    2c10:	528067a1 	mov	w1, #0x33d                 	// #829
    2c14:	17fffff6 	b	2bec <TEE_BigIntConvertFromFMM+0x50>
/home/xiang/rockpi4-android/optee_os/lib/libutee/tee_api_arith_mpi.c:830
    2c18:	aa1303e0 	mov	x0, x19
    2c1c:	94000781 	bl	4a20 <mbedtls_mpi_free>
/home/xiang/rockpi4-android/optee_os/lib/libutee/tee_api_arith_mpi.c:831
    2c20:	aa1403e0 	mov	x0, x20
    2c24:	9400077f 	bl	4a20 <mbedtls_mpi_free>
/home/xiang/rockpi4-android/optee_os/lib/libutee/tee_api_arith_mpi.c:832
    2c28:	a94153f3 	ldp	x19, x20, [sp,#16]
    2c2c:	a9425bf5 	ldp	x21, x22, [sp,#32]
    2c30:	a8c67bfd 	ldp	x29, x30, [sp],#96
    2c34:	d65f03c0 	ret

0000000000002c38 <TEE_BigIntComputeFMM>:
TEE_BigIntComputeFMM():
/home/xiang/rockpi4-android/optee_os/lib/libutee/tee_api_arith_mpi.c:837
    2c38:	a9b47bfd 	stp	x29, x30, [sp,#-192]!
    2c3c:	910003fd 	mov	x29, sp
    2c40:	a90153f3 	stp	x19, x20, [sp,#16]
/home/xiang/rockpi4-android/optee_os/lib/libutee/tee_api_arith_mpi.c:844
    2c44:	910123b3 	add	x19, x29, #0x48
/home/xiang/rockpi4-android/optee_os/lib/libutee/tee_api_arith_mpi.c:837
    2c48:	aa0303f4 	mov	x20, x3
    2c4c:	a9025bf5 	stp	x21, x22, [sp,#32]
    2c50:	a90363f7 	stp	x23, x24, [sp,#48]
    2c54:	aa0103f6 	mov	x22, x1
    2c58:	aa0203f7 	mov	x23, x2
/home/xiang/rockpi4-android/optee_os/lib/libutee/tee_api_arith_mpi.c:844
    2c5c:	aa0003e1 	mov	x1, x0
/home/xiang/rockpi4-android/optee_os/lib/libutee/tee_api_arith_mpi.c:845
    2c60:	910183b5 	add	x21, x29, #0x60
/home/xiang/rockpi4-android/optee_os/lib/libutee/tee_api_arith_mpi.c:837
    2c64:	aa0003f8 	mov	x24, x0
/home/xiang/rockpi4-android/optee_os/lib/libutee/tee_api_arith_mpi.c:844
    2c68:	aa1303e0 	mov	x0, x19
    2c6c:	97fff9f9 	bl	1450 <get_mpi>
/home/xiang/rockpi4-android/optee_os/lib/libutee/tee_api_arith_mpi.c:845
    2c70:	aa1603e1 	mov	x1, x22
    2c74:	aa1503e0 	mov	x0, x21
/home/xiang/rockpi4-android/optee_os/lib/libutee/tee_api_arith_mpi.c:846
    2c78:	9101e3b6 	add	x22, x29, #0x78
/home/xiang/rockpi4-android/optee_os/lib/libutee/tee_api_arith_mpi.c:845
    2c7c:	97fff9f5 	bl	1450 <get_mpi>
/home/xiang/rockpi4-android/optee_os/lib/libutee/tee_api_arith_mpi.c:846
    2c80:	aa1703e1 	mov	x1, x23
    2c84:	aa1603e0 	mov	x0, x22
    2c88:	97fff9f2 	bl	1450 <get_mpi>
/home/xiang/rockpi4-android/optee_os/lib/libutee/tee_api_arith_mpi.c:847
    2c8c:	910243b7 	add	x23, x29, #0x90
    2c90:	aa1403e1 	mov	x1, x20
    2c94:	aa1703e0 	mov	x0, x23
get_mpi():
/home/xiang/rockpi4-android/optee_os/lib/libutee/tee_api_arith_mpi.c:101
    2c98:	9102a3b4 	add	x20, x29, #0xa8
TEE_BigIntComputeFMM():
/home/xiang/rockpi4-android/optee_os/lib/libutee/tee_api_arith_mpi.c:847
    2c9c:	97fff9ed 	bl	1450 <get_mpi>
get_mpi():
/home/xiang/rockpi4-android/optee_os/lib/libutee/tee_api_arith_mpi.c:101
    2ca0:	aa1403e0 	mov	x0, x20
    2ca4:	94000755 	bl	49f8 <mbedtls_mpi_init_mempool>
TEE_BigIntComputeFMM():
/home/xiang/rockpi4-android/optee_os/lib/libutee/tee_api_arith_mpi.c:850
    2ca8:	aa1603e2 	mov	x2, x22
    2cac:	aa1503e1 	mov	x1, x21
    2cb0:	aa1403e0 	mov	x0, x20
    2cb4:	94000b7a 	bl	5a9c <mbedtls_mpi_mul_mpi>
    2cb8:	340000e0 	cbz	w0, 2cd4 <TEE_BigIntComputeFMM+0x9c>
/home/xiang/rockpi4-android/optee_os/lib/libutee/tee_api_arith_mpi.c:850 (discriminator 1)
    2cbc:	2a0003e2 	mov	w2, w0
    2cc0:	52806a41 	mov	w1, #0x352                 	// #850
/home/xiang/rockpi4-android/optee_os/lib/libutee/tee_api_arith_mpi.c:851 (discriminator 1)
    2cc4:	90000040 	adrp	x0, a000 <kprintf.constprop.0+0x540>
    2cc8:	91328000 	add	x0, x0, #0xca0
    2ccc:	91058000 	add	x0, x0, #0x160
    2cd0:	97fff9d4 	bl	1420 <mpi_panic>
/home/xiang/rockpi4-android/optee_os/lib/libutee/tee_api_arith_mpi.c:851
    2cd4:	aa1703e2 	mov	x2, x23
    2cd8:	aa1403e1 	mov	x1, x20
    2cdc:	aa1303e0 	mov	x0, x19
    2ce0:	94000dc9 	bl	6404 <mbedtls_mpi_mod_mpi>
    2ce4:	34000080 	cbz	w0, 2cf4 <TEE_BigIntComputeFMM+0xbc>
/home/xiang/rockpi4-android/optee_os/lib/libutee/tee_api_arith_mpi.c:851 (discriminator 1)
    2ce8:	2a0003e2 	mov	w2, w0
    2cec:	52806a61 	mov	w1, #0x353                 	// #851
    2cf0:	17fffff5 	b	2cc4 <TEE_BigIntComputeFMM+0x8c>
/home/xiang/rockpi4-android/optee_os/lib/libutee/tee_api_arith_mpi.c:853
    2cf4:	aa1403e0 	mov	x0, x20
    2cf8:	9400074a 	bl	4a20 <mbedtls_mpi_free>
/home/xiang/rockpi4-android/optee_os/lib/libutee/tee_api_arith_mpi.c:854
    2cfc:	aa1703e0 	mov	x0, x23
    2d00:	94000748 	bl	4a20 <mbedtls_mpi_free>
/home/xiang/rockpi4-android/optee_os/lib/libutee/tee_api_arith_mpi.c:855
    2d04:	aa1603e0 	mov	x0, x22
    2d08:	94000746 	bl	4a20 <mbedtls_mpi_free>
/home/xiang/rockpi4-android/optee_os/lib/libutee/tee_api_arith_mpi.c:856
    2d0c:	aa1503e0 	mov	x0, x21
    2d10:	94000744 	bl	4a20 <mbedtls_mpi_free>
/home/xiang/rockpi4-android/optee_os/lib/libutee/tee_api_arith_mpi.c:857
    2d14:	aa1803e1 	mov	x1, x24
    2d18:	aa1303e0 	mov	x0, x19
    2d1c:	97fff9f3 	bl	14e8 <copy_mpi_to_bigint>
    2d20:	34000080 	cbz	w0, 2d30 <TEE_BigIntComputeFMM+0xf8>
/home/xiang/rockpi4-android/optee_os/lib/libutee/tee_api_arith_mpi.c:857 (discriminator 1)
    2d24:	2a0003e2 	mov	w2, w0
    2d28:	52806b21 	mov	w1, #0x359                 	// #857
    2d2c:	17ffffe6 	b	2cc4 <TEE_BigIntComputeFMM+0x8c>
/home/xiang/rockpi4-android/optee_os/lib/libutee/tee_api_arith_mpi.c:858
    2d30:	aa1303e0 	mov	x0, x19
    2d34:	9400073b 	bl	4a20 <mbedtls_mpi_free>
/home/xiang/rockpi4-android/optee_os/lib/libutee/tee_api_arith_mpi.c:859
    2d38:	a94153f3 	ldp	x19, x20, [sp,#16]
    2d3c:	a9425bf5 	ldp	x21, x22, [sp,#32]
    2d40:	a94363f7 	ldp	x23, x24, [sp,#48]
    2d44:	a8cc7bfd 	ldp	x29, x30, [sp],#192
    2d48:	d65f03c0 	ret

0000000000002d4c <api_panic>:
api_panic():
/home/xiang/rockpi4-android/optee_os/lib/libutee/tee_api_arith_mpi.c:19
    2d4c:	a9bf7bfd 	stp	x29, x30, [sp,#-16]!
/home/xiang/rockpi4-android/optee_os/lib/libutee/tee_api_arith_mpi.c:20
    2d50:	aa0203e3 	mov	x3, x2
    2d54:	2a0103e2 	mov	w2, w1
    2d58:	aa0003e1 	mov	x1, x0
/home/xiang/rockpi4-android/optee_os/lib/libutee/tee_api_arith_mpi.c:19
    2d5c:	910003fd 	mov	x29, sp
/home/xiang/rockpi4-android/optee_os/lib/libutee/tee_api_arith_mpi.c:20
    2d60:	b0000040 	adrp	x0, b000 <small_prime+0x140>
    2d64:	910f2000 	add	x0, x0, #0x3c8
    2d68:	97fff770 	bl	b28 <printf>
/home/xiang/rockpi4-android/optee_os/lib/libutee/tee_api_arith_mpi.c:21
    2d6c:	528c24e0 	mov	w0, #0x6127                	// #24871
    2d70:	72a01620 	movk	w0, #0xb1, lsl #16
    2d74:	94000009 	bl	2d98 <TEE_Panic>
    2d78:	14000000 	b	2d78 <api_panic+0x2c>

0000000000002d7c <check_access>:
check_access():
/home/xiang/rockpi4-android/optee_os/lib/libutee/tee_api_panic.c:40
    2d7c:	b4000062 	cbz	x2, 2d88 <check_access+0xc>
/home/xiang/rockpi4-android/optee_os/lib/libutee/tee_api_panic.c:43
    2d80:	b4000081 	cbz	x1, 2d90 <check_access+0x14>
/home/xiang/rockpi4-android/optee_os/lib/libutee/tee_api_panic.c:47
    2d84:	17fff814 	b	dd4 <TEE_CheckMemoryAccessRights>
/home/xiang/rockpi4-android/optee_os/lib/libutee/tee_api_panic.c:41
    2d88:	52800000 	mov	w0, #0x0                   	// #0
    2d8c:	d65f03c0 	ret
/home/xiang/rockpi4-android/optee_os/lib/libutee/tee_api_panic.c:44
    2d90:	129ffe00 	mov	w0, #0xffff000f            	// #-65521
/home/xiang/rockpi4-android/optee_os/lib/libutee/tee_api_panic.c:50
    2d94:	d65f03c0 	ret

0000000000002d98 <TEE_Panic>:
TEE_Panic():
/home/xiang/rockpi4-android/optee_os/lib/libutee/tee_api_panic.c:24
    2d98:	2a0003e0 	mov	w0, w0
    2d9c:	17fff4f9 	b	180 <_utee_panic>

0000000000002da0 <check_res.isra.1>:
check_res():
/home/xiang/rockpi4-android/optee_os/lib/libutee/tee_api_panic.c:32
    2da0:	34000060 	cbz	w0, 2dac <check_res.isra.1+0xc>
/home/xiang/rockpi4-android/optee_os/lib/libutee/tee_api_panic.c:34
    2da4:	52800000 	mov	w0, #0x0                   	// #0
    2da8:	17fffffc 	b	2d98 <TEE_Panic>
    2dac:	d65f03c0 	ret

0000000000002db0 <__utee_check_outbuf_annotation>:
__utee_check_outbuf_annotation():
/home/xiang/rockpi4-android/optee_os/lib/libutee/tee_api_panic.c:53
    2db0:	a9be7bfd 	stp	x29, x30, [sp,#-32]!
    2db4:	910003fd 	mov	x29, sp
    2db8:	a90153f3 	stp	x19, x20, [sp,#16]
    2dbc:	aa0003f4 	mov	x20, x0
    2dc0:	aa0103f3 	mov	x19, x1
check_access():
/home/xiang/rockpi4-android/optee_os/lib/libutee/tee_api_panic.c:43
    2dc4:	b4000181 	cbz	x1, 2df4 <__utee_check_outbuf_annotation+0x44>
/home/xiang/rockpi4-android/optee_os/lib/libutee/tee_api_panic.c:47
    2dc8:	52800082 	mov	w2, #0x4                   	// #4
    2dcc:	52800060 	mov	w0, #0x3                   	// #3
    2dd0:	97fff801 	bl	dd4 <TEE_CheckMemoryAccessRights>
__utee_check_outbuf_annotation():
/home/xiang/rockpi4-android/optee_os/lib/libutee/tee_api_panic.c:54
    2dd4:	97fffff3 	bl	2da0 <check_res.isra.1>
/home/xiang/rockpi4-android/optee_os/lib/libutee/tee_api_panic.c:56
    2dd8:	b9400262 	ldr	w2, [x19]
    2ddc:	aa1403e1 	mov	x1, x20
    2de0:	528000c0 	mov	w0, #0x6                   	// #6
    2de4:	97ffffe6 	bl	2d7c <check_access>
/home/xiang/rockpi4-android/optee_os/lib/libutee/tee_api_panic.c:58
    2de8:	a94153f3 	ldp	x19, x20, [sp,#16]
    2dec:	a8c27bfd 	ldp	x29, x30, [sp],#32
/home/xiang/rockpi4-android/optee_os/lib/libutee/tee_api_panic.c:56
    2df0:	17ffffec 	b	2da0 <check_res.isra.1>
check_access():
/home/xiang/rockpi4-android/optee_os/lib/libutee/tee_api_panic.c:44
    2df4:	129ffe00 	mov	w0, #0xffff000f            	// #-65521
    2df8:	17fffff7 	b	2dd4 <__utee_check_outbuf_annotation+0x24>

0000000000002dfc <__utee_check_instring_annotation>:
__utee_check_instring_annotation():
/home/xiang/rockpi4-android/optee_os/lib/libutee/tee_api_panic.c:61
    2dfc:	a9be7bfd 	stp	x29, x30, [sp,#-32]!
    2e00:	910003fd 	mov	x29, sp
    2e04:	f9000bf3 	str	x19, [sp,#16]
    2e08:	aa0003f3 	mov	x19, x0
/home/xiang/rockpi4-android/optee_os/lib/libutee/tee_api_panic.c:63
    2e0c:	94001ad1 	bl	9950 <strlen>
/home/xiang/rockpi4-android/optee_os/lib/libutee/tee_api_panic.c:62
    2e10:	91000402 	add	x2, x0, #0x1
    2e14:	aa1303e1 	mov	x1, x19
    2e18:	52800020 	mov	w0, #0x1                   	// #1
    2e1c:	97ffffd8 	bl	2d7c <check_access>
/home/xiang/rockpi4-android/optee_os/lib/libutee/tee_api_panic.c:64
    2e20:	f9400bf3 	ldr	x19, [sp,#16]
    2e24:	a8c27bfd 	ldp	x29, x30, [sp],#32
/home/xiang/rockpi4-android/optee_os/lib/libutee/tee_api_panic.c:62
    2e28:	17ffffde 	b	2da0 <check_res.isra.1>

0000000000002e2c <__utee_check_outstring_annotation>:
__utee_check_outstring_annotation():
/home/xiang/rockpi4-android/optee_os/lib/libutee/tee_api_panic.c:67
    2e2c:	a9be7bfd 	stp	x29, x30, [sp,#-32]!
    2e30:	910003fd 	mov	x29, sp
    2e34:	a90153f3 	stp	x19, x20, [sp,#16]
    2e38:	aa0003f4 	mov	x20, x0
    2e3c:	aa0103f3 	mov	x19, x1
check_access():
/home/xiang/rockpi4-android/optee_os/lib/libutee/tee_api_panic.c:43
    2e40:	b4000181 	cbz	x1, 2e70 <__utee_check_outstring_annotation+0x44>
/home/xiang/rockpi4-android/optee_os/lib/libutee/tee_api_panic.c:47
    2e44:	52800082 	mov	w2, #0x4                   	// #4
    2e48:	52800060 	mov	w0, #0x3                   	// #3
    2e4c:	97fff7e2 	bl	dd4 <TEE_CheckMemoryAccessRights>
__utee_check_outstring_annotation():
/home/xiang/rockpi4-android/optee_os/lib/libutee/tee_api_panic.c:68
    2e50:	97ffffd4 	bl	2da0 <check_res.isra.1>
/home/xiang/rockpi4-android/optee_os/lib/libutee/tee_api_panic.c:70
    2e54:	b9400262 	ldr	w2, [x19]
    2e58:	aa1403e1 	mov	x1, x20
    2e5c:	528000c0 	mov	w0, #0x6                   	// #6
    2e60:	97ffffc7 	bl	2d7c <check_access>
/home/xiang/rockpi4-android/optee_os/lib/libutee/tee_api_panic.c:72
    2e64:	a94153f3 	ldp	x19, x20, [sp,#16]
    2e68:	a8c27bfd 	ldp	x29, x30, [sp],#32
/home/xiang/rockpi4-android/optee_os/lib/libutee/tee_api_panic.c:70
    2e6c:	17ffffcd 	b	2da0 <check_res.isra.1>
check_access():
/home/xiang/rockpi4-android/optee_os/lib/libutee/tee_api_panic.c:44
    2e70:	129ffe00 	mov	w0, #0xffff000f            	// #-65521
    2e74:	17fffff7 	b	2e50 <__utee_check_outstring_annotation+0x24>

0000000000002e78 <__utee_check_out_annotation>:
__utee_check_out_annotation():
/home/xiang/rockpi4-android/optee_os/lib/libutee/tee_api_panic.c:75
    2e78:	a9bf7bfd 	stp	x29, x30, [sp,#-16]!
/home/xiang/rockpi4-android/optee_os/lib/libutee/tee_api_panic.c:76
    2e7c:	aa0103e2 	mov	x2, x1
    2e80:	aa0003e1 	mov	x1, x0
    2e84:	52800040 	mov	w0, #0x2                   	// #2
/home/xiang/rockpi4-android/optee_os/lib/libutee/tee_api_panic.c:75
    2e88:	910003fd 	mov	x29, sp
/home/xiang/rockpi4-android/optee_os/lib/libutee/tee_api_panic.c:76
    2e8c:	97ffffbc 	bl	2d7c <check_access>
/home/xiang/rockpi4-android/optee_os/lib/libutee/tee_api_panic.c:78
    2e90:	a8c17bfd 	ldp	x29, x30, [sp],#16
/home/xiang/rockpi4-android/optee_os/lib/libutee/tee_api_panic.c:76
    2e94:	17ffffc3 	b	2da0 <check_res.isra.1>

0000000000002e98 <__utee_check_attr_in_annotation>:
__utee_check_attr_in_annotation():
/home/xiang/rockpi4-android/optee_os/lib/libutee/tee_api_panic.c:82
    2e98:	d2800302 	mov	x2, #0x18                  	// #24
/home/xiang/rockpi4-android/optee_os/lib/libutee/tee_api_panic.c:81
    2e9c:	a9bf7bfd 	stp	x29, x30, [sp,#-16]!
/home/xiang/rockpi4-android/optee_os/lib/libutee/tee_api_panic.c:82
    2ea0:	9b027c22 	mul	x2, x1, x2
/home/xiang/rockpi4-android/optee_os/lib/libutee/tee_api_panic.c:81
    2ea4:	910003fd 	mov	x29, sp
/home/xiang/rockpi4-android/optee_os/lib/libutee/tee_api_panic.c:82
    2ea8:	aa0003e1 	mov	x1, x0
    2eac:	52800020 	mov	w0, #0x1                   	// #1
    2eb0:	97ffffb3 	bl	2d7c <check_access>
/home/xiang/rockpi4-android/optee_os/lib/libutee/tee_api_panic.c:84
    2eb4:	a8c17bfd 	ldp	x29, x30, [sp],#16
/home/xiang/rockpi4-android/optee_os/lib/libutee/tee_api_panic.c:82
    2eb8:	17ffffba 	b	2da0 <check_res.isra.1>

0000000000002ebc <__utee_check_inout_annotation>:
__utee_check_inout_annotation():
/home/xiang/rockpi4-android/optee_os/lib/libutee/tee_api_panic.c:87
    2ebc:	a9bf7bfd 	stp	x29, x30, [sp,#-16]!
/home/xiang/rockpi4-android/optee_os/lib/libutee/tee_api_panic.c:88
    2ec0:	aa0103e2 	mov	x2, x1
    2ec4:	aa0003e1 	mov	x1, x0
    2ec8:	52800060 	mov	w0, #0x3                   	// #3
/home/xiang/rockpi4-android/optee_os/lib/libutee/tee_api_panic.c:87
    2ecc:	910003fd 	mov	x29, sp
/home/xiang/rockpi4-android/optee_os/lib/libutee/tee_api_panic.c:88
    2ed0:	97ffffab 	bl	2d7c <check_access>
/home/xiang/rockpi4-android/optee_os/lib/libutee/tee_api_panic.c:90
    2ed4:	a8c17bfd 	ldp	x29, x30, [sp],#16
/home/xiang/rockpi4-android/optee_os/lib/libutee/tee_api_panic.c:88
    2ed8:	17ffffb2 	b	2da0 <check_res.isra.1>

0000000000002edc <propset_get>:
propset_get():
/home/xiang/rockpi4-android/optee_os/lib/libutee/tee_api_property.c:54
    2edc:	aa0003e3 	mov	x3, x0
/home/xiang/rockpi4-android/optee_os/lib/libutee/tee_api_property.c:55
    2ee0:	b2407fe0 	mov	x0, #0xffffffff            	// #4294967295
    2ee4:	eb00007f 	cmp	x3, x0
    2ee8:	54000101 	b.ne	2f08 <propset_get+0x2c>
/home/xiang/rockpi4-android/optee_os/lib/libutee/tee_api_property.c:56
    2eec:	f0000040 	adrp	x0, d000 <_DYNAMIC>
    2ef0:	f9409403 	ldr	x3, [x0,#296]
/home/xiang/rockpi4-android/optee_os/lib/libutee/tee_api_property.c:57
    2ef4:	f9409c00 	ldr	x0, [x0,#312]
/home/xiang/rockpi4-android/optee_os/lib/libutee/tee_api_property.c:56
    2ef8:	f9000023 	str	x3, [x1]
/home/xiang/rockpi4-android/optee_os/lib/libutee/tee_api_property.c:57
    2efc:	f9400000 	ldr	x0, [x0]
/home/xiang/rockpi4-android/optee_os/lib/libutee/tee_api_property.c:63
    2f00:	f9000040 	str	x0, [x2]
    2f04:	14000006 	b	2f1c <propset_get+0x40>
/home/xiang/rockpi4-android/optee_os/lib/libutee/tee_api_property.c:58
    2f08:	b27f7be0 	mov	x0, #0xfffffffe            	// #4294967294
    2f0c:	eb00007f 	cmp	x3, x0
    2f10:	540000a1 	b.ne	2f24 <propset_get+0x48>
/home/xiang/rockpi4-android/optee_os/lib/libutee/tee_api_property.c:59
    2f14:	f900003f 	str	xzr, [x1]
/home/xiang/rockpi4-android/optee_os/lib/libutee/tee_api_property.c:60
    2f18:	f900005f 	str	xzr, [x2]
/home/xiang/rockpi4-android/optee_os/lib/libutee/tee_api_property.c:68
    2f1c:	52800000 	mov	w0, #0x0                   	// #0
/home/xiang/rockpi4-android/optee_os/lib/libutee/tee_api_property.c:69
    2f20:	d65f03c0 	ret
/home/xiang/rockpi4-android/optee_os/lib/libutee/tee_api_property.c:61
    2f24:	d29fffa4 	mov	x4, #0xfffd                	// #65533
/home/xiang/rockpi4-android/optee_os/lib/libutee/tee_api_property.c:65
    2f28:	129ffee0 	mov	w0, #0xffff0008            	// #-65528
/home/xiang/rockpi4-android/optee_os/lib/libutee/tee_api_property.c:61
    2f2c:	f2bfffe4 	movk	x4, #0xffff, lsl #16
    2f30:	eb04007f 	cmp	x3, x4
    2f34:	54ffff61 	b.ne	2f20 <propset_get+0x44>
/home/xiang/rockpi4-android/optee_os/lib/libutee/tee_api_property.c:62
    2f38:	f0000040 	adrp	x0, d000 <_DYNAMIC>
    2f3c:	f940b400 	ldr	x0, [x0,#360]
    2f40:	f9000020 	str	x0, [x1]
/home/xiang/rockpi4-android/optee_os/lib/libutee/tee_api_property.c:63
    2f44:	d2800060 	mov	x0, #0x3                   	// #3
    2f48:	17ffffee 	b	2f00 <propset_get+0x24>

0000000000002f4c <is_propset_pseudo_handle>:
is_propset_pseudo_handle():
/home/xiang/rockpi4-android/optee_os/lib/libutee/tee_api_property.c:129
    2f4c:	929fffa1 	mov	x1, #0xffffffffffff0002    	// #-65534
    2f50:	f2a00001 	movk	x1, #0x0, lsl #16
    2f54:	8b010001 	add	x1, x0, x1
/home/xiang/rockpi4-android/optee_os/lib/libutee/tee_api_property.c:130
    2f58:	f100043f 	cmp	x1, #0x1
    2f5c:	540000c9 	b.ls	2f74 <is_propset_pseudo_handle+0x28>
/home/xiang/rockpi4-android/optee_os/lib/libutee/tee_api_property.c:130 (discriminator 2)
    2f60:	d29fffa1 	mov	x1, #0xfffd                	// #65533
    2f64:	f2bfffe1 	movk	x1, #0xffff, lsl #16
    2f68:	eb01001f 	cmp	x0, x1
    2f6c:	1a9f17e0 	cset	w0, eq
    2f70:	d65f03c0 	ret
    2f74:	52800020 	mov	w0, #0x1                   	// #1
/home/xiang/rockpi4-android/optee_os/lib/libutee/tee_api_property.c:132
    2f78:	d65f03c0 	ret

0000000000002f7c <propget_get_ext_prop>:
propget_get_ext_prop():
/home/xiang/rockpi4-android/optee_os/lib/libutee/tee_api_property.c:77
    2f7c:	b9400804 	ldr	w4, [x0,#8]
    2f80:	b9000024 	str	w4, [x1]
/home/xiang/rockpi4-android/optee_os/lib/libutee/tee_api_property.c:78
    2f84:	7100149f 	cmp	w4, #0x5
    2f88:	540007e8 	b.hi	3084 <propget_get_ext_prop+0x108>
/home/xiang/rockpi4-android/optee_os/lib/libutee/tee_api_property.c:74
    2f8c:	a9bb7bfd 	stp	x29, x30, [sp,#-80]!
    2f90:	910003fd 	mov	x29, sp
    2f94:	a90153f3 	stp	x19, x20, [sp,#16]
    2f98:	aa0003f4 	mov	x20, x0
    2f9c:	a9025bf5 	stp	x21, x22, [sp,#32]
/home/xiang/rockpi4-android/optee_os/lib/libutee/tee_api_property.c:78
    2fa0:	b0000040 	adrp	x0, b000 <small_prime+0x140>
/home/xiang/rockpi4-android/optee_os/lib/libutee/tee_api_property.c:74
    2fa4:	f9001bf7 	str	x23, [sp,#48]
    2fa8:	aa0303f3 	mov	x19, x3
    2fac:	aa0203f5 	mov	x21, x2
/home/xiang/rockpi4-android/optee_os/lib/libutee/tee_api_property.c:78
    2fb0:	9109a000 	add	x0, x0, #0x268
    2fb4:	b9400077 	ldr	w23, [x3]
    2fb8:	38644800 	ldrb	w0, [x0,w4,uxtw]
    2fbc:	10000061 	adr	x1, 2fc8 <propget_get_ext_prop+0x4c>
    2fc0:	8b208820 	add	x0, x1, w0, sxtb #2
    2fc4:	d61f0000 	br	x0
/home/xiang/rockpi4-android/optee_os/lib/libutee/tee_api_property.c:80
    2fc8:	d2800020 	mov	x0, #0x1                   	// #1
/home/xiang/rockpi4-android/optee_os/lib/libutee/tee_api_property.c:93
    2fcc:	f90027a0 	str	x0, [x29,#72]
/home/xiang/rockpi4-android/optee_os/lib/libutee/tee_api_property.c:117
    2fd0:	f94027a2 	ldr	x2, [x29,#72]
/home/xiang/rockpi4-android/optee_os/lib/libutee/tee_api_property.c:118
    2fd4:	b9000262 	str	w2, [x19]
/home/xiang/rockpi4-android/optee_os/lib/libutee/tee_api_property.c:117
    2fd8:	eb0202ff 	cmp	x23, x2
    2fdc:	540004c2 	b.cs	3074 <propget_get_ext_prop+0xf8>
/home/xiang/rockpi4-android/optee_os/lib/libutee/tee_api_property.c:119
    2fe0:	129ffde0 	mov	w0, #0xffff0010            	// #-65520
/home/xiang/rockpi4-android/optee_os/lib/libutee/tee_api_property.c:125
    2fe4:	a94153f3 	ldp	x19, x20, [sp,#16]
    2fe8:	a9425bf5 	ldp	x21, x22, [sp,#32]
    2fec:	f9401bf7 	ldr	x23, [sp,#48]
    2ff0:	a8c57bfd 	ldp	x29, x30, [sp],#80
    2ff4:	d65f03c0 	ret
/home/xiang/rockpi4-android/optee_os/lib/libutee/tee_api_property.c:83
    2ff8:	d2800080 	mov	x0, #0x4                   	// #4
    2ffc:	17fffff4 	b	2fcc <propget_get_ext_prop+0x50>
/home/xiang/rockpi4-android/optee_os/lib/libutee/tee_api_property.c:86
    3000:	d2800200 	mov	x0, #0x10                  	// #16
    3004:	17fffff2 	b	2fcc <propget_get_ext_prop+0x50>
/home/xiang/rockpi4-android/optee_os/lib/libutee/tee_api_property.c:89
    3008:	d2800280 	mov	x0, #0x14                  	// #20
    300c:	17fffff0 	b	2fcc <propget_get_ext_prop+0x50>
/home/xiang/rockpi4-android/optee_os/lib/libutee/tee_api_property.c:93
    3010:	f9400a80 	ldr	x0, [x20,#16]
    3014:	94001a4f 	bl	9950 <strlen>
    3018:	91000400 	add	x0, x0, #0x1
    301c:	17ffffec 	b	2fcc <propget_get_ext_prop+0x50>
/home/xiang/rockpi4-android/optee_os/lib/libutee/tee_api_property.c:102
    3020:	910143b6 	add	x22, x29, #0x50
/home/xiang/rockpi4-android/optee_os/lib/libutee/tee_api_property.c:103
    3024:	f9400a94 	ldr	x20, [x20,#16]
    3028:	aa1403e0 	mov	x0, x20
/home/xiang/rockpi4-android/optee_os/lib/libutee/tee_api_property.c:102
    302c:	f81f8ed7 	str	x23, [x22,#-8]!
/home/xiang/rockpi4-android/optee_os/lib/libutee/tee_api_property.c:103
    3030:	94001a48 	bl	9950 <strlen>
    3034:	aa1503e2 	mov	x2, x21
    3038:	aa0003e1 	mov	x1, x0
    303c:	aa1603e3 	mov	x3, x22
    3040:	aa1403e0 	mov	x0, x20
    3044:	94000413 	bl	4090 <_base64_dec>
    3048:	72001c1f 	tst	w0, #0xff
    304c:	b9400261 	ldr	w1, [x19]
    3050:	f94027a0 	ldr	x0, [x29,#72]
    3054:	54000061 	b.ne	3060 <propget_get_ext_prop+0xe4>
/home/xiang/rockpi4-android/optee_os/lib/libutee/tee_api_property.c:103 (discriminator 1)
    3058:	eb00003f 	cmp	x1, x0
    305c:	54000182 	b.cs	308c <propget_get_ext_prop+0x110>
/home/xiang/rockpi4-android/optee_os/lib/libutee/tee_api_property.c:107
    3060:	b9000260 	str	w0, [x19]
/home/xiang/rockpi4-android/optee_os/lib/libutee/tee_api_property.c:106
    3064:	eb00003f 	cmp	x1, x0
    3068:	54fffbc3 	b.cc	2fe0 <propget_get_ext_prop+0x64>
/home/xiang/rockpi4-android/optee_os/lib/libutee/tee_api_property.c:124
    306c:	52800000 	mov	w0, #0x0                   	// #0
    3070:	17ffffdd 	b	2fe4 <propget_get_ext_prop+0x68>
/home/xiang/rockpi4-android/optee_os/lib/libutee/tee_api_property.c:123
    3074:	f9400a81 	ldr	x1, [x20,#16]
    3078:	aa1503e0 	mov	x0, x21
    307c:	97fff3e9 	bl	20 <memcpy>
    3080:	17fffffb 	b	306c <propget_get_ext_prop+0xf0>
/home/xiang/rockpi4-android/optee_os/lib/libutee/tee_api_property.c:114
    3084:	52bfffe0 	mov	w0, #0xffff0000            	// #-65536
    3088:	d65f03c0 	ret
/home/xiang/rockpi4-android/optee_os/lib/libutee/tee_api_property.c:105
    308c:	52bfffe0 	mov	w0, #0xffff0000            	// #-65536
    3090:	17ffffd5 	b	2fe4 <propget_get_ext_prop+0x68>

0000000000003094 <propget_get_property>:
propget_get_property():
/home/xiang/rockpi4-android/optee_os/lib/libutee/tee_api_property.c:137
    3094:	a9b87bfd 	stp	x29, x30, [sp,#-128]!
    3098:	910003fd 	mov	x29, sp
    309c:	a90153f3 	stp	x19, x20, [sp,#16]
    30a0:	aa0003f3 	mov	x19, x0
    30a4:	a9025bf5 	stp	x21, x22, [sp,#32]
    30a8:	aa0303f4 	mov	x20, x3
    30ac:	a90363f7 	stp	x23, x24, [sp,#48]
    30b0:	aa0203f6 	mov	x22, x2
    30b4:	a9046bf9 	stp	x25, x26, [sp,#64]
    30b8:	aa0103f7 	mov	x23, x1
    30bc:	aa0403f5 	mov	x21, x4
    30c0:	f9002bfb 	str	x27, [sp,#80]
/home/xiang/rockpi4-android/optee_os/lib/libutee/tee_api_property.c:144
    30c4:	97ffffa2 	bl	2f4c <is_propset_pseudo_handle>
    30c8:	72001c1f 	tst	w0, #0xff
    30cc:	54000600 	b.eq	318c <propget_get_property+0xf8>
/home/xiang/rockpi4-android/optee_os/lib/libutee/tee_api_property.c:147
    30d0:	9101e3a2 	add	x2, x29, #0x78
    30d4:	9101c3a1 	add	x1, x29, #0x70
    30d8:	aa1303e0 	mov	x0, x19
    30dc:	97ffff80 	bl	2edc <propset_get>
/home/xiang/rockpi4-android/optee_os/lib/libutee/tee_api_property.c:148
    30e0:	35000440 	cbnz	w0, 3168 <propget_get_property+0xd4>
/home/xiang/rockpi4-android/optee_os/lib/libutee/tee_api_property.c:151
    30e4:	a9476bb9 	ldp	x25, x26, [x29,#112]
/home/xiang/rockpi4-android/optee_os/lib/libutee/tee_api_property.c:152
    30e8:	d2800018 	mov	x24, #0x0                   	// #0
/home/xiang/rockpi4-android/optee_os/lib/libutee/tee_api_property.c:151 (discriminator 1)
    30ec:	eb1a031f 	cmp	x24, x26
    30f0:	54000281 	b.ne	3140 <propget_get_property+0xac>
/home/xiang/rockpi4-android/optee_os/lib/libutee/tee_api_property.c:159
    30f4:	aa1703e0 	mov	x0, x23
    30f8:	94001a16 	bl	9950 <strlen>
/home/xiang/rockpi4-android/optee_os/lib/libutee/tee_api_property.c:158
    30fc:	9101b3a3 	add	x3, x29, #0x6c
    3100:	91000402 	add	x2, x0, #0x1
    3104:	aa1703e1 	mov	x1, x23
    3108:	aa1303e0 	mov	x0, x19
    310c:	97fff42c 	bl	1bc <_utee_get_property_name_to_index>
/home/xiang/rockpi4-android/optee_os/lib/libutee/tee_api_property.c:161
    3110:	350002c0 	cbnz	w0, 3168 <propget_get_property+0xd4>
/home/xiang/rockpi4-android/optee_os/lib/libutee/tee_api_property.c:163
    3114:	b9406fa1 	ldr	w1, [x29,#108]
    3118:	9101a3a6 	add	x6, x29, #0x68
    311c:	aa1503e5 	mov	x5, x21
    3120:	aa1403e4 	mov	x4, x20
    3124:	d2800003 	mov	x3, #0x0                   	// #0
    3128:	d2800002 	mov	x2, #0x0                   	// #0
    312c:	aa1303e0 	mov	x0, x19
    3130:	97fff420 	bl	1b0 <_utee_get_property>
/home/xiang/rockpi4-android/optee_os/lib/libutee/tee_api_property.c:186
    3134:	b9406ba1 	ldr	w1, [x29,#104]
    3138:	b90002c1 	str	w1, [x22]
/home/xiang/rockpi4-android/optee_os/lib/libutee/tee_api_property.c:187
    313c:	1400000b 	b	3168 <propget_get_property+0xd4>
/home/xiang/rockpi4-android/optee_os/lib/libutee/tee_api_property.c:152
    3140:	aa1903fb 	mov	x27, x25
    3144:	f8418721 	ldr	x1, [x25],#24
    3148:	aa1703e0 	mov	x0, x23
    314c:	940019f5 	bl	9920 <strcmp>
    3150:	350001a0 	cbnz	w0, 3184 <propget_get_property+0xf0>
/home/xiang/rockpi4-android/optee_os/lib/libutee/tee_api_property.c:153
    3154:	aa1503e3 	mov	x3, x21
    3158:	aa1403e2 	mov	x2, x20
    315c:	aa1603e1 	mov	x1, x22
    3160:	aa1b03e0 	mov	x0, x27
/home/xiang/rockpi4-android/optee_os/lib/libutee/tee_api_property.c:177
    3164:	97ffff86 	bl	2f7c <propget_get_ext_prop>
/home/xiang/rockpi4-android/optee_os/lib/libutee/tee_api_property.c:188
    3168:	a94153f3 	ldp	x19, x20, [sp,#16]
    316c:	a9425bf5 	ldp	x21, x22, [sp,#32]
    3170:	a94363f7 	ldp	x23, x24, [sp,#48]
    3174:	a9446bf9 	ldp	x25, x26, [sp,#64]
    3178:	f9402bfb 	ldr	x27, [sp,#80]
    317c:	a8c87bfd 	ldp	x29, x30, [sp],#128
    3180:	d65f03c0 	ret
/home/xiang/rockpi4-android/optee_os/lib/libutee/tee_api_property.c:151 (discriminator 2)
    3184:	91000718 	add	x24, x24, #0x1
    3188:	17ffffd9 	b	30ec <propget_get_property+0x58>
/home/xiang/rockpi4-android/optee_os/lib/libutee/tee_api_property.c:167
    318c:	b9400277 	ldr	w23, [x19]
/home/xiang/rockpi4-android/optee_os/lib/libutee/tee_api_property.c:169
    3190:	310006ff 	cmn	w23, #0x1
    3194:	540003a0 	b.eq	3208 <propget_get_property+0x174>
/home/xiang/rockpi4-android/optee_os/lib/libutee/tee_api_property.c:172
    3198:	f9400660 	ldr	x0, [x19,#8]
    319c:	9101e3a2 	add	x2, x29, #0x78
    31a0:	9101c3a1 	add	x1, x29, #0x70
    31a4:	97ffff4e 	bl	2edc <propset_get>
/home/xiang/rockpi4-android/optee_os/lib/libutee/tee_api_property.c:173
    31a8:	35fffe00 	cbnz	w0, 3168 <propget_get_property+0xd4>
/home/xiang/rockpi4-android/optee_os/lib/libutee/tee_api_property.c:176
    31ac:	f9403fa1 	ldr	x1, [x29,#120]
    31b0:	eb37403f 	cmp	x1, w23, uxtw
    31b4:	54000109 	b.ls	31d4 <propget_get_property+0x140>
/home/xiang/rockpi4-android/optee_os/lib/libutee/tee_api_property.c:177
    31b8:	f9403ba0 	ldr	x0, [x29,#112]
    31bc:	52800304 	mov	w4, #0x18                  	// #24
    31c0:	aa1503e3 	mov	x3, x21
    31c4:	aa1403e2 	mov	x2, x20
    31c8:	aa1603e1 	mov	x1, x22
    31cc:	9ba402e0 	umaddl	x0, w23, w4, x0
    31d0:	17ffffe5 	b	3164 <propget_get_property+0xd0>
/home/xiang/rockpi4-android/optee_os/lib/libutee/tee_api_property.c:180
    31d4:	f9400660 	ldr	x0, [x19,#8]
    31d8:	4b0102e1 	sub	w1, w23, w1
    31dc:	9101a3a6 	add	x6, x29, #0x68
    31e0:	aa1503e5 	mov	x5, x21
    31e4:	aa1403e4 	mov	x4, x20
    31e8:	d2800003 	mov	x3, #0x0                   	// #0
    31ec:	d2800002 	mov	x2, #0x0                   	// #0
    31f0:	97fff3f0 	bl	1b0 <_utee_get_property>
/home/xiang/rockpi4-android/optee_os/lib/libutee/tee_api_property.c:182
    31f4:	129ffee1 	mov	w1, #0xffff0008            	// #-65528
/home/xiang/rockpi4-android/optee_os/lib/libutee/tee_api_property.c:183
    31f8:	6b01001f 	cmp	w0, w1
    31fc:	129fff21 	mov	w1, #0xffff0006            	// #-65530
    3200:	1a811000 	csel	w0, w0, w1, ne
    3204:	17ffffcc 	b	3134 <propget_get_property+0xa0>
/home/xiang/rockpi4-android/optee_os/lib/libutee/tee_api_property.c:170
    3208:	129ffee0 	mov	w0, #0xffff0008            	// #-65528
    320c:	17ffffd7 	b	3168 <propget_get_property+0xd4>

0000000000003210 <TEE_GetPropertyAsString>:
TEE_GetPropertyAsString():
/home/xiang/rockpi4-android/optee_os/lib/libutee/tee_api_property.c:193
    3210:	a9bb7bfd 	stp	x29, x30, [sp,#-80]!
    3214:	910003fd 	mov	x29, sp
    3218:	a9025bf5 	stp	x21, x22, [sp,#32]
    321c:	aa0203f6 	mov	x22, x2
    3220:	a90153f3 	stp	x19, x20, [sp,#16]
    3224:	aa0303f5 	mov	x21, x3
    3228:	f9001bf7 	str	x23, [sp,#48]
    322c:	aa0103f3 	mov	x19, x1
    3230:	aa0003f7 	mov	x23, x0
/home/xiang/rockpi4-android/optee_os/lib/libutee/tee_api_property.c:203
    3234:	97ffff46 	bl	2f4c <is_propset_pseudo_handle>
    3238:	72001c1f 	tst	w0, #0xff
    323c:	54000060 	b.eq	3248 <TEE_GetPropertyAsString+0x38>
/home/xiang/rockpi4-android/optee_os/lib/libutee/tee_api_property.c:204
    3240:	aa1303e0 	mov	x0, x19
    3244:	97fffeee 	bl	2dfc <__utee_check_instring_annotation>
/home/xiang/rockpi4-android/optee_os/lib/libutee/tee_api_property.c:205
    3248:	aa1603e0 	mov	x0, x22
    324c:	aa1503e1 	mov	x1, x21
    3250:	97fffef7 	bl	2e2c <__utee_check_outstring_annotation>
/home/xiang/rockpi4-android/optee_os/lib/libutee/tee_api_property.c:207
    3254:	b94002a0 	ldr	w0, [x21]
/home/xiang/rockpi4-android/optee_os/lib/libutee/tee_api_property.c:208
    3258:	71004c1f 	cmp	w0, #0x13
    325c:	540003a9 	b.ls	32d0 <TEE_GetPropertyAsString+0xc0>
/home/xiang/rockpi4-android/optee_os/lib/libutee/tee_api_property.c:209
    3260:	b90047a0 	str	w0, [x29,#68]
/home/xiang/rockpi4-android/optee_os/lib/libutee/tee_api_property.c:210
    3264:	52b00001 	mov	w1, #0x80000000            	// #-2147483648
    3268:	b94047a0 	ldr	w0, [x29,#68]
    326c:	97fff83d 	bl	1360 <TEE_Malloc>
    3270:	aa0003f4 	mov	x20, x0
/home/xiang/rockpi4-android/optee_os/lib/libutee/tee_api_property.c:211
    3274:	b4000b80 	cbz	x0, 33e4 <TEE_GetPropertyAsString+0x1d4>
/home/xiang/rockpi4-android/optee_os/lib/libutee/tee_api_property.c:216
    3278:	aa0003e3 	mov	x3, x0
    327c:	aa1303e1 	mov	x1, x19
    3280:	910113a4 	add	x4, x29, #0x44
    3284:	910103a2 	add	x2, x29, #0x40
    3288:	aa1703e0 	mov	x0, x23
    328c:	97ffff82 	bl	3094 <propget_get_property>
    3290:	2a0003f3 	mov	w19, w0
/home/xiang/rockpi4-android/optee_os/lib/libutee/tee_api_property.c:218
    3294:	34000220 	cbz	w0, 32d8 <TEE_GetPropertyAsString+0xc8>
/home/xiang/rockpi4-android/optee_os/lib/libutee/tee_api_property.c:219
    3298:	129ffde0 	mov	w0, #0xffff0010            	// #-65520
    329c:	6b00027f 	cmp	w19, w0
    32a0:	54000121 	b.ne	32c4 <TEE_GetPropertyAsString+0xb4>
/home/xiang/rockpi4-android/optee_os/lib/libutee/tee_api_property.c:220
    32a4:	b94043a0 	ldr	w0, [x29,#64]
    32a8:	7100141f 	cmp	w0, #0x5
    32ac:	54000081 	b.ne	32bc <TEE_GetPropertyAsString+0xac>
/home/xiang/rockpi4-android/optee_os/lib/libutee/tee_api_property.c:226
    32b0:	b94047a0 	ldr	w0, [x29,#68]
    32b4:	9400032b 	bl	3f60 <_base64_enc_len>
    32b8:	b90047a0 	str	w0, [x29,#68]
/home/xiang/rockpi4-android/optee_os/lib/libutee/tee_api_property.c:228
    32bc:	b94047a0 	ldr	w0, [x29,#68]
/home/xiang/rockpi4-android/optee_os/lib/libutee/tee_api_property.c:278
    32c0:	b90002a0 	str	w0, [x21]
/home/xiang/rockpi4-android/optee_os/lib/libutee/tee_api_property.c:282
    32c4:	aa1403e0 	mov	x0, x20
    32c8:	97fff840 	bl	13c8 <TEE_Free>
    32cc:	14000047 	b	33e8 <TEE_GetPropertyAsString+0x1d8>
/home/xiang/rockpi4-android/optee_os/lib/libutee/tee_api_property.c:209
    32d0:	52800280 	mov	w0, #0x14                  	// #20
    32d4:	17ffffe3 	b	3260 <TEE_GetPropertyAsString+0x50>
/home/xiang/rockpi4-android/optee_os/lib/libutee/tee_api_property.c:233
    32d8:	b94043a2 	ldr	w2, [x29,#64]
    32dc:	7100145f 	cmp	w2, #0x5
    32e0:	54000a28 	b.hi	3424 <TEE_GetPropertyAsString+0x214>
    32e4:	90000040 	adrp	x0, b000 <small_prime+0x140>
    32e8:	b94002a1 	ldr	w1, [x21]
    32ec:	9109c000 	add	x0, x0, #0x270
    32f0:	38624800 	ldrb	w0, [x0,w2,uxtw]
    32f4:	10000062 	adr	x2, 3300 <TEE_GetPropertyAsString+0xf0>
    32f8:	8b208840 	add	x0, x2, w0, sxtb #2
    32fc:	d61f0000 	br	x0
/home/xiang/rockpi4-android/optee_os/lib/libutee/tee_api_property.c:236
    3300:	39400280 	ldrb	w0, [x20]
    3304:	35000100 	cbnz	w0, 3324 <TEE_GetPropertyAsString+0x114>
    3308:	90000040 	adrp	x0, b000 <small_prime+0x140>
    330c:	91121000 	add	x0, x0, #0x484
/home/xiang/rockpi4-android/optee_os/lib/libutee/tee_api_property.c:236 (discriminator 4)
    3310:	aa0103e2 	mov	x2, x1
    3314:	aa0003e1 	mov	x1, x0
/home/xiang/rockpi4-android/optee_os/lib/libutee/tee_api_property.c:256
    3318:	aa1603e0 	mov	x0, x22
    331c:	94001d05 	bl	a730 <strlcpy>
    3320:	1400000a 	b	3348 <TEE_GetPropertyAsString+0x138>
/home/xiang/rockpi4-android/optee_os/lib/libutee/tee_api_property.c:236
    3324:	90000040 	adrp	x0, b000 <small_prime+0x140>
    3328:	9111fc00 	add	x0, x0, #0x47f
    332c:	17fffff9 	b	3310 <TEE_GetPropertyAsString+0x100>
/home/xiang/rockpi4-android/optee_os/lib/libutee/tee_api_property.c:241
    3330:	b9400283 	ldr	w3, [x20]
    3334:	90000042 	adrp	x2, b000 <small_prime+0x140>
    3338:	aa1603e0 	mov	x0, x22
    333c:	91122842 	add	x2, x2, #0x48a
    3340:	9400192b 	bl	97ec <snprintf>
/home/xiang/rockpi4-android/optee_os/lib/libutee/tee_api_property.c:250
    3344:	93407c00 	sxtw	x0, w0
/home/xiang/rockpi4-android/optee_os/lib/libutee/tee_api_property.c:266
    3348:	f90027a0 	str	x0, [x29,#72]
/home/xiang/rockpi4-android/optee_os/lib/libutee/tee_api_property.c:277
    334c:	129ffdf3 	mov	w19, #0xffff0010            	// #-65520
/home/xiang/rockpi4-android/optee_os/lib/libutee/tee_api_property.c:276
    3350:	b94002a1 	ldr	w1, [x21]
/home/xiang/rockpi4-android/optee_os/lib/libutee/tee_api_property.c:274
    3354:	f94027a0 	ldr	x0, [x29,#72]
    3358:	91000400 	add	x0, x0, #0x1
    335c:	f90027a0 	str	x0, [x29,#72]
/home/xiang/rockpi4-android/optee_os/lib/libutee/tee_api_property.c:277
    3360:	eb01001f 	cmp	x0, x1
    3364:	1a9393f3 	csel	w19, wzr, w19, ls
    3368:	17ffffd6 	b	32c0 <TEE_GetPropertyAsString+0xb0>
/home/xiang/rockpi4-android/optee_os/lib/libutee/tee_api_property.c:245
    336c:	aa1403e3 	mov	x3, x20
    3370:	90000042 	adrp	x2, b000 <small_prime+0x140>
    3374:	aa1603e0 	mov	x0, x22
    3378:	91124042 	add	x2, x2, #0x490
    337c:	940019b4 	bl	9a4c <snprintk>
    3380:	17fffff1 	b	3344 <TEE_GetPropertyAsString+0x134>
/home/xiang/rockpi4-android/optee_os/lib/libutee/tee_api_property.c:250
    3384:	b9400283 	ldr	w3, [x20]
    3388:	91001284 	add	x4, x20, #0x4
    338c:	90000042 	adrp	x2, b000 <small_prime+0x140>
    3390:	aa1603e0 	mov	x0, x22
    3394:	91123442 	add	x2, x2, #0x48d
    3398:	940019ad 	bl	9a4c <snprintk>
    339c:	17ffffea 	b	3344 <TEE_GetPropertyAsString+0x134>
/home/xiang/rockpi4-android/optee_os/lib/libutee/tee_api_property.c:256
    33a0:	aa0103e2 	mov	x2, x1
    33a4:	aa1403e1 	mov	x1, x20
    33a8:	17ffffdc 	b	3318 <TEE_GetPropertyAsString+0x108>
/home/xiang/rockpi4-android/optee_os/lib/libutee/tee_api_property.c:260
    33ac:	910143a3 	add	x3, x29, #0x50
/home/xiang/rockpi4-android/optee_os/lib/libutee/tee_api_property.c:261
    33b0:	aa1603e2 	mov	x2, x22
    33b4:	aa1403e0 	mov	x0, x20
/home/xiang/rockpi4-android/optee_os/lib/libutee/tee_api_property.c:260
    33b8:	f81f8c61 	str	x1, [x3,#-8]!
/home/xiang/rockpi4-android/optee_os/lib/libutee/tee_api_property.c:261
    33bc:	b94047a1 	ldr	w1, [x29,#68]
    33c0:	940002ee 	bl	3f78 <_base64_enc>
    33c4:	72001c1f 	tst	w0, #0xff
    33c8:	f94027a0 	ldr	x0, [x29,#72]
    33cc:	54000081 	b.ne	33dc <TEE_GetPropertyAsString+0x1cc>
/home/xiang/rockpi4-android/optee_os/lib/libutee/tee_api_property.c:262 (discriminator 1)
    33d0:	b94002a1 	ldr	w1, [x21]
/home/xiang/rockpi4-android/optee_os/lib/libutee/tee_api_property.c:261 (discriminator 1)
    33d4:	eb00003f 	cmp	x1, x0
    33d8:	540002a2 	b.cs	342c <TEE_GetPropertyAsString+0x21c>
/home/xiang/rockpi4-android/optee_os/lib/libutee/tee_api_property.c:266
    33dc:	d1000400 	sub	x0, x0, #0x1
    33e0:	17ffffda 	b	3348 <TEE_GetPropertyAsString+0x138>
/home/xiang/rockpi4-android/optee_os/lib/libutee/tee_api_property.c:212
    33e4:	129ffe73 	mov	w19, #0xffff000c            	// #-65524
/home/xiang/rockpi4-android/optee_os/lib/libutee/tee_api_property.c:283
    33e8:	7100027f 	cmp	w19, #0x0
    33ec:	129ffee0 	mov	w0, #0xffff0008            	// #-65528
    33f0:	7a401264 	ccmp	w19, w0, #0x4, ne
    33f4:	540000c0 	b.eq	340c <TEE_GetPropertyAsString+0x1fc>
/home/xiang/rockpi4-android/optee_os/lib/libutee/tee_api_property.c:284
    33f8:	129ffde0 	mov	w0, #0xffff0010            	// #-65520
    33fc:	6b00027f 	cmp	w19, w0
    3400:	54000060 	b.eq	340c <TEE_GetPropertyAsString+0x1fc>
/home/xiang/rockpi4-android/optee_os/lib/libutee/tee_api_property.c:286
    3404:	52800000 	mov	w0, #0x0                   	// #0
    3408:	97fffe64 	bl	2d98 <TEE_Panic>
/home/xiang/rockpi4-android/optee_os/lib/libutee/tee_api_property.c:289
    340c:	2a1303e0 	mov	w0, w19
    3410:	f9401bf7 	ldr	x23, [sp,#48]
    3414:	a94153f3 	ldp	x19, x20, [sp,#16]
    3418:	a9425bf5 	ldp	x21, x22, [sp,#32]
    341c:	a8c57bfd 	ldp	x29, x30, [sp],#80
    3420:	d65f03c0 	ret
/home/xiang/rockpi4-android/optee_os/lib/libutee/tee_api_property.c:270
    3424:	129fff53 	mov	w19, #0xffff0005            	// #-65531
    3428:	17ffffa7 	b	32c4 <TEE_GetPropertyAsString+0xb4>
/home/xiang/rockpi4-android/optee_os/lib/libutee/tee_api_property.c:263
    342c:	52bffff3 	mov	w19, #0xffff0000            	// #-65536
    3430:	17ffffa5 	b	32c4 <TEE_GetPropertyAsString+0xb4>

0000000000003434 <TEE_GetPropertyAsBool>:
TEE_GetPropertyAsBool():
/home/xiang/rockpi4-android/optee_os/lib/libutee/tee_api_property.c:293
    3434:	a9bc7bfd 	stp	x29, x30, [sp,#-64]!
    3438:	910003fd 	mov	x29, sp
    343c:	a90153f3 	stp	x19, x20, [sp,#16]
    3440:	aa0103f3 	mov	x19, x1
/home/xiang/rockpi4-android/optee_os/lib/libutee/tee_api_property.c:296
    3444:	52800021 	mov	w1, #0x1                   	// #1
/home/xiang/rockpi4-android/optee_os/lib/libutee/tee_api_property.c:293
    3448:	f90013f5 	str	x21, [sp,#32]
    344c:	aa0203f4 	mov	x20, x2
/home/xiang/rockpi4-android/optee_os/lib/libutee/tee_api_property.c:296
    3450:	b9003fa1 	str	w1, [x29,#60]
/home/xiang/rockpi4-android/optee_os/lib/libutee/tee_api_property.c:293
    3454:	aa0003f5 	mov	x21, x0
/home/xiang/rockpi4-android/optee_os/lib/libutee/tee_api_property.c:298
    3458:	97fffebd 	bl	2f4c <is_propset_pseudo_handle>
    345c:	72001c1f 	tst	w0, #0xff
    3460:	54000060 	b.eq	346c <TEE_GetPropertyAsBool+0x38>
/home/xiang/rockpi4-android/optee_os/lib/libutee/tee_api_property.c:299
    3464:	aa1303e0 	mov	x0, x19
    3468:	97fffe65 	bl	2dfc <__utee_check_instring_annotation>
/home/xiang/rockpi4-android/optee_os/lib/libutee/tee_api_property.c:300
    346c:	d2800021 	mov	x1, #0x1                   	// #1
    3470:	aa1403e0 	mov	x0, x20
    3474:	97fffe81 	bl	2e78 <__utee_check_out_annotation>
/home/xiang/rockpi4-android/optee_os/lib/libutee/tee_api_property.c:302
    3478:	b9003bbf 	str	wzr, [x29,#56]
/home/xiang/rockpi4-android/optee_os/lib/libutee/tee_api_property.c:303
    347c:	aa1303e1 	mov	x1, x19
    3480:	9100e3a2 	add	x2, x29, #0x38
    3484:	9100f3a4 	add	x4, x29, #0x3c
    3488:	aa1403e3 	mov	x3, x20
    348c:	aa1503e0 	mov	x0, x21
    3490:	97ffff01 	bl	3094 <propget_get_property>
/home/xiang/rockpi4-android/optee_os/lib/libutee/tee_api_property.c:306
    3494:	b9403ba2 	ldr	w2, [x29,#56]
    3498:	129fff41 	mov	w1, #0xffff0005            	// #-65531
    349c:	7100005f 	cmp	w2, #0x0
    34a0:	1a810013 	csel	w19, w0, w1, eq
/home/xiang/rockpi4-android/optee_os/lib/libutee/tee_api_property.c:311
    34a4:	129ffee0 	mov	w0, #0xffff0008            	// #-65528
    34a8:	7100027f 	cmp	w19, #0x0
    34ac:	7a401264 	ccmp	w19, w0, #0x4, ne
    34b0:	540000a0 	b.eq	34c4 <TEE_GetPropertyAsBool+0x90>
/home/xiang/rockpi4-android/optee_os/lib/libutee/tee_api_property.c:312
    34b4:	6b01027f 	cmp	w19, w1
    34b8:	54000060 	b.eq	34c4 <TEE_GetPropertyAsBool+0x90>
/home/xiang/rockpi4-android/optee_os/lib/libutee/tee_api_property.c:314
    34bc:	52800000 	mov	w0, #0x0                   	// #0
    34c0:	97fffe36 	bl	2d98 <TEE_Panic>
/home/xiang/rockpi4-android/optee_os/lib/libutee/tee_api_property.c:317
    34c4:	2a1303e0 	mov	w0, w19
    34c8:	f94013f5 	ldr	x21, [sp,#32]
    34cc:	a94153f3 	ldp	x19, x20, [sp,#16]
    34d0:	a8c47bfd 	ldp	x29, x30, [sp],#64
    34d4:	d65f03c0 	ret

00000000000034d8 <TEE_GetPropertyAsU32>:
TEE_GetPropertyAsU32():
/home/xiang/rockpi4-android/optee_os/lib/libutee/tee_api_property.c:321
    34d8:	a9bc7bfd 	stp	x29, x30, [sp,#-64]!
    34dc:	910003fd 	mov	x29, sp
    34e0:	a90153f3 	stp	x19, x20, [sp,#16]
    34e4:	aa0103f3 	mov	x19, x1
/home/xiang/rockpi4-android/optee_os/lib/libutee/tee_api_property.c:324
    34e8:	52800081 	mov	w1, #0x4                   	// #4
/home/xiang/rockpi4-android/optee_os/lib/libutee/tee_api_property.c:321
    34ec:	f90013f5 	str	x21, [sp,#32]
    34f0:	aa0203f4 	mov	x20, x2
/home/xiang/rockpi4-android/optee_os/lib/libutee/tee_api_property.c:324
    34f4:	b9003fa1 	str	w1, [x29,#60]
/home/xiang/rockpi4-android/optee_os/lib/libutee/tee_api_property.c:321
    34f8:	aa0003f5 	mov	x21, x0
/home/xiang/rockpi4-android/optee_os/lib/libutee/tee_api_property.c:326
    34fc:	97fffe94 	bl	2f4c <is_propset_pseudo_handle>
    3500:	72001c1f 	tst	w0, #0xff
    3504:	54000060 	b.eq	3510 <TEE_GetPropertyAsU32+0x38>
/home/xiang/rockpi4-android/optee_os/lib/libutee/tee_api_property.c:327
    3508:	aa1303e0 	mov	x0, x19
    350c:	97fffe3c 	bl	2dfc <__utee_check_instring_annotation>
/home/xiang/rockpi4-android/optee_os/lib/libutee/tee_api_property.c:328
    3510:	d2800081 	mov	x1, #0x4                   	// #4
    3514:	aa1403e0 	mov	x0, x20
    3518:	97fffe58 	bl	2e78 <__utee_check_out_annotation>
/home/xiang/rockpi4-android/optee_os/lib/libutee/tee_api_property.c:330
    351c:	52800020 	mov	w0, #0x1                   	// #1
/home/xiang/rockpi4-android/optee_os/lib/libutee/tee_api_property.c:331
    3520:	aa1303e1 	mov	x1, x19
    3524:	9100e3a2 	add	x2, x29, #0x38
/home/xiang/rockpi4-android/optee_os/lib/libutee/tee_api_property.c:330
    3528:	b9003ba0 	str	w0, [x29,#56]
/home/xiang/rockpi4-android/optee_os/lib/libutee/tee_api_property.c:331
    352c:	9100f3a4 	add	x4, x29, #0x3c
    3530:	aa1403e3 	mov	x3, x20
    3534:	aa1503e0 	mov	x0, x21
    3538:	97fffed7 	bl	3094 <propget_get_property>
/home/xiang/rockpi4-android/optee_os/lib/libutee/tee_api_property.c:334
    353c:	b9403ba2 	ldr	w2, [x29,#56]
    3540:	129fff41 	mov	w1, #0xffff0005            	// #-65531
    3544:	7100045f 	cmp	w2, #0x1
    3548:	1a810013 	csel	w19, w0, w1, eq
/home/xiang/rockpi4-android/optee_os/lib/libutee/tee_api_property.c:336
    354c:	129ffee0 	mov	w0, #0xffff0008            	// #-65528
    3550:	7100027f 	cmp	w19, #0x0
    3554:	7a401264 	ccmp	w19, w0, #0x4, ne
    3558:	540000a0 	b.eq	356c <TEE_GetPropertyAsU32+0x94>
/home/xiang/rockpi4-android/optee_os/lib/libutee/tee_api_property.c:337
    355c:	6b01027f 	cmp	w19, w1
    3560:	54000060 	b.eq	356c <TEE_GetPropertyAsU32+0x94>
/home/xiang/rockpi4-android/optee_os/lib/libutee/tee_api_property.c:339
    3564:	52800000 	mov	w0, #0x0                   	// #0
    3568:	97fffe0c 	bl	2d98 <TEE_Panic>
/home/xiang/rockpi4-android/optee_os/lib/libutee/tee_api_property.c:342
    356c:	2a1303e0 	mov	w0, w19
    3570:	f94013f5 	ldr	x21, [sp,#32]
    3574:	a94153f3 	ldp	x19, x20, [sp,#16]
    3578:	a8c47bfd 	ldp	x29, x30, [sp],#64
    357c:	d65f03c0 	ret

0000000000003580 <TEE_GetPropertyAsBinaryBlock>:
TEE_GetPropertyAsBinaryBlock():
/home/xiang/rockpi4-android/optee_os/lib/libutee/tee_api_property.c:347
    3580:	a9bc7bfd 	stp	x29, x30, [sp,#-64]!
    3584:	910003fd 	mov	x29, sp
    3588:	a90153f3 	stp	x19, x20, [sp,#16]
    358c:	aa0103f3 	mov	x19, x1
    3590:	a9025bf5 	stp	x21, x22, [sp,#32]
    3594:	aa0203f4 	mov	x20, x2
    3598:	aa0003f6 	mov	x22, x0
    359c:	aa0303f5 	mov	x21, x3
/home/xiang/rockpi4-android/optee_os/lib/libutee/tee_api_property.c:351
    35a0:	97fffe6b 	bl	2f4c <is_propset_pseudo_handle>
    35a4:	72001c1f 	tst	w0, #0xff
    35a8:	54000060 	b.eq	35b4 <TEE_GetPropertyAsBinaryBlock+0x34>
/home/xiang/rockpi4-android/optee_os/lib/libutee/tee_api_property.c:352
    35ac:	aa1303e0 	mov	x0, x19
    35b0:	97fffe13 	bl	2dfc <__utee_check_instring_annotation>
/home/xiang/rockpi4-android/optee_os/lib/libutee/tee_api_property.c:353
    35b4:	aa1503e1 	mov	x1, x21
    35b8:	aa1403e0 	mov	x0, x20
    35bc:	97fffdfd 	bl	2db0 <__utee_check_outbuf_annotation>
/home/xiang/rockpi4-android/optee_os/lib/libutee/tee_api_property.c:355
    35c0:	910103a2 	add	x2, x29, #0x40
    35c4:	528000a0 	mov	w0, #0x5                   	// #5
/home/xiang/rockpi4-android/optee_os/lib/libutee/tee_api_property.c:356
    35c8:	aa1303e1 	mov	x1, x19
    35cc:	aa1503e4 	mov	x4, x21
    35d0:	aa1403e3 	mov	x3, x20
/home/xiang/rockpi4-android/optee_os/lib/libutee/tee_api_property.c:355
    35d4:	b81fcc40 	str	w0, [x2,#-4]!
/home/xiang/rockpi4-android/optee_os/lib/libutee/tee_api_property.c:356
    35d8:	aa1603e0 	mov	x0, x22
    35dc:	97fffeae 	bl	3094 <propget_get_property>
    35e0:	2a0003f3 	mov	w19, w0
/home/xiang/rockpi4-android/optee_os/lib/libutee/tee_api_property.c:358
    35e4:	b9403fa0 	ldr	w0, [x29,#60]
    35e8:	7100141f 	cmp	w0, #0x5
    35ec:	54000180 	b.eq	361c <TEE_GetPropertyAsBinaryBlock+0x9c>
/home/xiang/rockpi4-android/optee_os/lib/libutee/tee_api_property.c:359
    35f0:	129fff53 	mov	w19, #0xffff0005            	// #-65531
/home/xiang/rockpi4-android/optee_os/lib/libutee/tee_api_property.c:363
    35f4:	529fff60 	mov	w0, #0xfffb                	// #65531
    35f8:	0b000261 	add	w1, w19, w0
    35fc:	71002c3f 	cmp	w1, #0xb
    3600:	54000088 	b.hi	3610 <TEE_GetPropertyAsBinaryBlock+0x90>
    3604:	d2810120 	mov	x0, #0x809                 	// #2057
    3608:	9ac12400 	lsr	x0, x0, x1
    360c:	370000a0 	tbnz	w0, #0, 3620 <TEE_GetPropertyAsBinaryBlock+0xa0>
/home/xiang/rockpi4-android/optee_os/lib/libutee/tee_api_property.c:365
    3610:	52800000 	mov	w0, #0x0                   	// #0
    3614:	97fffde1 	bl	2d98 <TEE_Panic>
/home/xiang/rockpi4-android/optee_os/lib/libutee/tee_api_property.c:367
    3618:	14000002 	b	3620 <TEE_GetPropertyAsBinaryBlock+0xa0>
/home/xiang/rockpi4-android/optee_os/lib/libutee/tee_api_property.c:361
    361c:	35fffed3 	cbnz	w19, 35f4 <TEE_GetPropertyAsBinaryBlock+0x74>
/home/xiang/rockpi4-android/optee_os/lib/libutee/tee_api_property.c:368
    3620:	2a1303e0 	mov	w0, w19
    3624:	a94153f3 	ldp	x19, x20, [sp,#16]
    3628:	a9425bf5 	ldp	x21, x22, [sp,#32]
    362c:	a8c47bfd 	ldp	x29, x30, [sp],#64
    3630:	d65f03c0 	ret

0000000000003634 <TEE_GetPropertyAsUUID>:
TEE_GetPropertyAsUUID():
/home/xiang/rockpi4-android/optee_os/lib/libutee/tee_api_property.c:372
    3634:	a9bc7bfd 	stp	x29, x30, [sp,#-64]!
    3638:	910003fd 	mov	x29, sp
    363c:	a90153f3 	stp	x19, x20, [sp,#16]
    3640:	aa0103f3 	mov	x19, x1
/home/xiang/rockpi4-android/optee_os/lib/libutee/tee_api_property.c:375
    3644:	52800201 	mov	w1, #0x10                  	// #16
/home/xiang/rockpi4-android/optee_os/lib/libutee/tee_api_property.c:372
    3648:	f90013f5 	str	x21, [sp,#32]
    364c:	aa0203f4 	mov	x20, x2
/home/xiang/rockpi4-android/optee_os/lib/libutee/tee_api_property.c:375
    3650:	b9003fa1 	str	w1, [x29,#60]
/home/xiang/rockpi4-android/optee_os/lib/libutee/tee_api_property.c:372
    3654:	aa0003f5 	mov	x21, x0
/home/xiang/rockpi4-android/optee_os/lib/libutee/tee_api_property.c:377
    3658:	97fffe3d 	bl	2f4c <is_propset_pseudo_handle>
    365c:	72001c1f 	tst	w0, #0xff
    3660:	54000060 	b.eq	366c <TEE_GetPropertyAsUUID+0x38>
/home/xiang/rockpi4-android/optee_os/lib/libutee/tee_api_property.c:378
    3664:	aa1303e0 	mov	x0, x19
    3668:	97fffde5 	bl	2dfc <__utee_check_instring_annotation>
/home/xiang/rockpi4-android/optee_os/lib/libutee/tee_api_property.c:379
    366c:	d2800201 	mov	x1, #0x10                  	// #16
    3670:	aa1403e0 	mov	x0, x20
    3674:	97fffe01 	bl	2e78 <__utee_check_out_annotation>
/home/xiang/rockpi4-android/optee_os/lib/libutee/tee_api_property.c:381
    3678:	52800040 	mov	w0, #0x2                   	// #2
/home/xiang/rockpi4-android/optee_os/lib/libutee/tee_api_property.c:382
    367c:	aa1303e1 	mov	x1, x19
    3680:	9100e3a2 	add	x2, x29, #0x38
/home/xiang/rockpi4-android/optee_os/lib/libutee/tee_api_property.c:381
    3684:	b9003ba0 	str	w0, [x29,#56]
/home/xiang/rockpi4-android/optee_os/lib/libutee/tee_api_property.c:382
    3688:	9100f3a4 	add	x4, x29, #0x3c
    368c:	aa1403e3 	mov	x3, x20
    3690:	aa1503e0 	mov	x0, x21
    3694:	97fffe80 	bl	3094 <propget_get_property>
/home/xiang/rockpi4-android/optee_os/lib/libutee/tee_api_property.c:385
    3698:	b9403ba2 	ldr	w2, [x29,#56]
    369c:	129fff41 	mov	w1, #0xffff0005            	// #-65531
    36a0:	7100085f 	cmp	w2, #0x2
    36a4:	1a810013 	csel	w19, w0, w1, eq
/home/xiang/rockpi4-android/optee_os/lib/libutee/tee_api_property.c:387
    36a8:	129ffee0 	mov	w0, #0xffff0008            	// #-65528
    36ac:	7100027f 	cmp	w19, #0x0
    36b0:	7a401264 	ccmp	w19, w0, #0x4, ne
    36b4:	540000a0 	b.eq	36c8 <TEE_GetPropertyAsUUID+0x94>
/home/xiang/rockpi4-android/optee_os/lib/libutee/tee_api_property.c:388
    36b8:	6b01027f 	cmp	w19, w1
    36bc:	54000060 	b.eq	36c8 <TEE_GetPropertyAsUUID+0x94>
/home/xiang/rockpi4-android/optee_os/lib/libutee/tee_api_property.c:390
    36c0:	52800000 	mov	w0, #0x0                   	// #0
    36c4:	97fffdb5 	bl	2d98 <TEE_Panic>
/home/xiang/rockpi4-android/optee_os/lib/libutee/tee_api_property.c:393
    36c8:	2a1303e0 	mov	w0, w19
    36cc:	f94013f5 	ldr	x21, [sp,#32]
    36d0:	a94153f3 	ldp	x19, x20, [sp,#16]
    36d4:	a8c47bfd 	ldp	x29, x30, [sp],#64
    36d8:	d65f03c0 	ret

00000000000036dc <TEE_GetPropertyAsIdentity>:
TEE_GetPropertyAsIdentity():
/home/xiang/rockpi4-android/optee_os/lib/libutee/tee_api_property.c:397
    36dc:	a9bc7bfd 	stp	x29, x30, [sp,#-64]!
    36e0:	910003fd 	mov	x29, sp
    36e4:	a90153f3 	stp	x19, x20, [sp,#16]
    36e8:	aa0103f3 	mov	x19, x1
/home/xiang/rockpi4-android/optee_os/lib/libutee/tee_api_property.c:400
    36ec:	52800281 	mov	w1, #0x14                  	// #20
/home/xiang/rockpi4-android/optee_os/lib/libutee/tee_api_property.c:397
    36f0:	f90013f5 	str	x21, [sp,#32]
    36f4:	aa0203f4 	mov	x20, x2
/home/xiang/rockpi4-android/optee_os/lib/libutee/tee_api_property.c:400
    36f8:	b9003fa1 	str	w1, [x29,#60]
/home/xiang/rockpi4-android/optee_os/lib/libutee/tee_api_property.c:397
    36fc:	aa0003f5 	mov	x21, x0
/home/xiang/rockpi4-android/optee_os/lib/libutee/tee_api_property.c:402
    3700:	97fffe13 	bl	2f4c <is_propset_pseudo_handle>
    3704:	72001c1f 	tst	w0, #0xff
    3708:	54000060 	b.eq	3714 <TEE_GetPropertyAsIdentity+0x38>
/home/xiang/rockpi4-android/optee_os/lib/libutee/tee_api_property.c:403
    370c:	aa1303e0 	mov	x0, x19
    3710:	97fffdbb 	bl	2dfc <__utee_check_instring_annotation>
/home/xiang/rockpi4-android/optee_os/lib/libutee/tee_api_property.c:404
    3714:	d2800281 	mov	x1, #0x14                  	// #20
    3718:	aa1403e0 	mov	x0, x20
    371c:	97fffdd7 	bl	2e78 <__utee_check_out_annotation>
/home/xiang/rockpi4-android/optee_os/lib/libutee/tee_api_property.c:406
    3720:	52800060 	mov	w0, #0x3                   	// #3
/home/xiang/rockpi4-android/optee_os/lib/libutee/tee_api_property.c:407
    3724:	aa1303e1 	mov	x1, x19
    3728:	9100e3a2 	add	x2, x29, #0x38
/home/xiang/rockpi4-android/optee_os/lib/libutee/tee_api_property.c:406
    372c:	b9003ba0 	str	w0, [x29,#56]
/home/xiang/rockpi4-android/optee_os/lib/libutee/tee_api_property.c:407
    3730:	9100f3a4 	add	x4, x29, #0x3c
    3734:	aa1403e3 	mov	x3, x20
    3738:	aa1503e0 	mov	x0, x21
    373c:	97fffe56 	bl	3094 <propget_get_property>
/home/xiang/rockpi4-android/optee_os/lib/libutee/tee_api_property.c:410
    3740:	b9403ba2 	ldr	w2, [x29,#56]
    3744:	129fff41 	mov	w1, #0xffff0005            	// #-65531
    3748:	71000c5f 	cmp	w2, #0x3
    374c:	1a810013 	csel	w19, w0, w1, eq
/home/xiang/rockpi4-android/optee_os/lib/libutee/tee_api_property.c:412
    3750:	129ffee0 	mov	w0, #0xffff0008            	// #-65528
    3754:	7100027f 	cmp	w19, #0x0
    3758:	7a401264 	ccmp	w19, w0, #0x4, ne
    375c:	540000a0 	b.eq	3770 <TEE_GetPropertyAsIdentity+0x94>
/home/xiang/rockpi4-android/optee_os/lib/libutee/tee_api_property.c:413
    3760:	6b01027f 	cmp	w19, w1
    3764:	54000060 	b.eq	3770 <TEE_GetPropertyAsIdentity+0x94>
/home/xiang/rockpi4-android/optee_os/lib/libutee/tee_api_property.c:415
    3768:	52800000 	mov	w0, #0x0                   	// #0
    376c:	97fffd8b 	bl	2d98 <TEE_Panic>
/home/xiang/rockpi4-android/optee_os/lib/libutee/tee_api_property.c:418
    3770:	2a1303e0 	mov	w0, w19
    3774:	f94013f5 	ldr	x21, [sp,#32]
    3778:	a94153f3 	ldp	x19, x20, [sp,#16]
    377c:	a8c47bfd 	ldp	x29, x30, [sp],#64
    3780:	d65f03c0 	ret

0000000000003784 <TEE_ResetPropertyEnumerator>:
TEE_ResetPropertyEnumerator():
/home/xiang/rockpi4-android/optee_os/lib/libutee/tee_api_property.c:451
    3784:	12800001 	mov	w1, #0xffffffff            	// #-1
    3788:	b9000001 	str	w1, [x0]
    378c:	d65f03c0 	ret

0000000000003790 <TEE_AllocatePropertyEnumerator>:
TEE_AllocatePropertyEnumerator():
/home/xiang/rockpi4-android/optee_os/lib/libutee/tee_api_property.c:421
    3790:	a9be7bfd 	stp	x29, x30, [sp,#-32]!
/home/xiang/rockpi4-android/optee_os/lib/libutee/tee_api_property.c:425
    3794:	d2800101 	mov	x1, #0x8                   	// #8
/home/xiang/rockpi4-android/optee_os/lib/libutee/tee_api_property.c:421
    3798:	910003fd 	mov	x29, sp
    379c:	f9000bf3 	str	x19, [sp,#16]
    37a0:	aa0003f3 	mov	x19, x0
/home/xiang/rockpi4-android/optee_os/lib/libutee/tee_api_property.c:425
    37a4:	97fffdb5 	bl	2e78 <__utee_check_out_annotation>
/home/xiang/rockpi4-android/optee_os/lib/libutee/tee_api_property.c:427
    37a8:	52b00001 	mov	w1, #0x80000000            	// #-2147483648
    37ac:	52800200 	mov	w0, #0x10                  	// #16
    37b0:	97fff6ec 	bl	1360 <TEE_Malloc>
/home/xiang/rockpi4-android/optee_os/lib/libutee/tee_api_property.c:429
    37b4:	b40000e0 	cbz	x0, 37d0 <TEE_AllocatePropertyEnumerator+0x40>
/home/xiang/rockpi4-android/optee_os/lib/libutee/tee_api_property.c:434
    37b8:	f9000260 	str	x0, [x19]
/home/xiang/rockpi4-android/optee_os/lib/libutee/tee_api_property.c:435
    37bc:	97fffff2 	bl	3784 <TEE_ResetPropertyEnumerator>
/home/xiang/rockpi4-android/optee_os/lib/libutee/tee_api_property.c:444
    37c0:	52800000 	mov	w0, #0x0                   	// #0
/home/xiang/rockpi4-android/optee_os/lib/libutee/tee_api_property.c:445
    37c4:	f9400bf3 	ldr	x19, [sp,#16]
    37c8:	a8c27bfd 	ldp	x29, x30, [sp],#32
    37cc:	d65f03c0 	ret
/home/xiang/rockpi4-android/optee_os/lib/libutee/tee_api_property.c:441
    37d0:	129ffe60 	mov	w0, #0xffff000c            	// #-65524
    37d4:	17fffffc 	b	37c4 <TEE_AllocatePropertyEnumerator+0x34>

00000000000037d8 <TEE_FreePropertyEnumerator>:
TEE_FreePropertyEnumerator():
/home/xiang/rockpi4-android/optee_os/lib/libutee/tee_api_property.c:458
    37d8:	17fff6fc 	b	13c8 <TEE_Free>

00000000000037dc <TEE_StartPropertyEnumerator>:
TEE_StartPropertyEnumerator():
/home/xiang/rockpi4-android/optee_os/lib/libutee/tee_api_property.c:466
    37dc:	b4000060 	cbz	x0, 37e8 <TEE_StartPropertyEnumerator+0xc>
/home/xiang/rockpi4-android/optee_os/lib/libutee/tee_api_property.c:469
    37e0:	b900001f 	str	wzr, [x0]
/home/xiang/rockpi4-android/optee_os/lib/libutee/tee_api_property.c:470
    37e4:	f9000401 	str	x1, [x0,#8]
    37e8:	d65f03c0 	ret

00000000000037ec <TEE_GetPropertyName>:
TEE_GetPropertyName():
/home/xiang/rockpi4-android/optee_os/lib/libutee/tee_api_property.c:475
    37ec:	a9bc7bfd 	stp	x29, x30, [sp,#-64]!
    37f0:	910003fd 	mov	x29, sp
    37f4:	a90153f3 	stp	x19, x20, [sp,#16]
    37f8:	a9025bf5 	stp	x21, x22, [sp,#32]
/home/xiang/rockpi4-android/optee_os/lib/libutee/tee_api_property.c:483
    37fc:	b40006e0 	cbz	x0, 38d8 <TEE_GetPropertyName+0xec>
    3800:	aa0003f5 	mov	x21, x0
    3804:	aa0103f6 	mov	x22, x1
    3808:	aa0203f4 	mov	x20, x2
/home/xiang/rockpi4-android/optee_os/lib/libutee/tee_api_property.c:487
    380c:	aa0203e1 	mov	x1, x2
    3810:	aa1603e0 	mov	x0, x22
    3814:	97fffd86 	bl	2e2c <__utee_check_outstring_annotation>
/home/xiang/rockpi4-android/optee_os/lib/libutee/tee_api_property.c:490
    3818:	f94006a0 	ldr	x0, [x21,#8]
    381c:	9100e3a2 	add	x2, x29, #0x38
    3820:	9100c3a1 	add	x1, x29, #0x30
    3824:	97fffdae 	bl	2edc <propset_get>
    3828:	2a0003f3 	mov	w19, w0
/home/xiang/rockpi4-android/optee_os/lib/libutee/tee_api_property.c:491
    382c:	35000260 	cbnz	w0, 3878 <TEE_GetPropertyName+0x8c>
/home/xiang/rockpi4-android/optee_os/lib/libutee/tee_api_property.c:494
    3830:	b94002a0 	ldr	w0, [x21]
    3834:	f9401fa1 	ldr	x1, [x29,#56]
    3838:	2a0003e7 	mov	w7, w0
    383c:	eb0100ff 	cmp	x7, x1
    3840:	54000382 	b.cs	38b0 <TEE_GetPropertyName+0xc4>
/home/xiang/rockpi4-android/optee_os/lib/libutee/tee_api_property.c:495
    3844:	52800301 	mov	w1, #0x18                  	// #24
/home/xiang/rockpi4-android/optee_os/lib/libutee/tee_api_property.c:496
    3848:	b9400282 	ldr	w2, [x20]
/home/xiang/rockpi4-android/optee_os/lib/libutee/tee_api_property.c:498
    384c:	129ffdf3 	mov	w19, #0xffff0010            	// #-65520
/home/xiang/rockpi4-android/optee_os/lib/libutee/tee_api_property.c:495
    3850:	9ba17c00 	umull	x0, w0, w1
/home/xiang/rockpi4-android/optee_os/lib/libutee/tee_api_property.c:496
    3854:	f9401ba1 	ldr	x1, [x29,#48]
    3858:	f8606821 	ldr	x1, [x1,x0]
    385c:	aa1603e0 	mov	x0, x22
    3860:	94001bb4 	bl	a730 <strlcpy>
    3864:	91000400 	add	x0, x0, #0x1
/home/xiang/rockpi4-android/optee_os/lib/libutee/tee_api_property.c:497
    3868:	b9400281 	ldr	w1, [x20]
/home/xiang/rockpi4-android/optee_os/lib/libutee/tee_api_property.c:499
    386c:	b9000280 	str	w0, [x20]
/home/xiang/rockpi4-android/optee_os/lib/libutee/tee_api_property.c:498
    3870:	eb01001f 	cmp	x0, x1
    3874:	1a9393f3 	csel	w19, wzr, w19, ls
/home/xiang/rockpi4-android/optee_os/lib/libutee/tee_api_property.c:509
    3878:	7100027f 	cmp	w19, #0x0
    387c:	129ffee0 	mov	w0, #0xffff0008            	// #-65528
    3880:	7a401264 	ccmp	w19, w0, #0x4, ne
    3884:	540000c0 	b.eq	389c <TEE_GetPropertyName+0xb0>
/home/xiang/rockpi4-android/optee_os/lib/libutee/tee_api_property.c:510
    3888:	129ffde0 	mov	w0, #0xffff0010            	// #-65520
    388c:	6b00027f 	cmp	w19, w0
    3890:	54000060 	b.eq	389c <TEE_GetPropertyName+0xb0>
/home/xiang/rockpi4-android/optee_os/lib/libutee/tee_api_property.c:512
    3894:	52800000 	mov	w0, #0x0                   	// #0
    3898:	97fffd40 	bl	2d98 <TEE_Panic>
/home/xiang/rockpi4-android/optee_os/lib/libutee/tee_api_property.c:514
    389c:	2a1303e0 	mov	w0, w19
    38a0:	a94153f3 	ldp	x19, x20, [sp,#16]
    38a4:	a9425bf5 	ldp	x21, x22, [sp,#32]
    38a8:	a8c47bfd 	ldp	x29, x30, [sp],#64
    38ac:	d65f03c0 	ret
/home/xiang/rockpi4-android/optee_os/lib/libutee/tee_api_property.c:501
    38b0:	f94006a0 	ldr	x0, [x21,#8]
    38b4:	d2800006 	mov	x6, #0x0                   	// #0
    38b8:	d2800005 	mov	x5, #0x0                   	// #0
    38bc:	d2800004 	mov	x4, #0x0                   	// #0
    38c0:	aa1403e3 	mov	x3, x20
    38c4:	aa1603e2 	mov	x2, x22
    38c8:	cb0100e1 	sub	x1, x7, x1
    38cc:	97fff239 	bl	1b0 <_utee_get_property>
    38d0:	2a0003f3 	mov	w19, w0
    38d4:	17ffffe9 	b	3878 <TEE_GetPropertyName+0x8c>
/home/xiang/rockpi4-android/optee_os/lib/libutee/tee_api_property.c:484
    38d8:	129fff33 	mov	w19, #0xffff0006            	// #-65530
    38dc:	17ffffe7 	b	3878 <TEE_GetPropertyName+0x8c>

00000000000038e0 <TEE_GetNextProperty>:
TEE_GetNextProperty():
/home/xiang/rockpi4-android/optee_os/lib/libutee/tee_api_property.c:517
    38e0:	a9bd7bfd 	stp	x29, x30, [sp,#-48]!
    38e4:	910003fd 	mov	x29, sp
    38e8:	a90153f3 	stp	x19, x20, [sp,#16]
/home/xiang/rockpi4-android/optee_os/lib/libutee/tee_api_property.c:524
    38ec:	b4000480 	cbz	x0, 397c <TEE_GetNextProperty+0x9c>
    38f0:	aa0003f4 	mov	x20, x0
/home/xiang/rockpi4-android/optee_os/lib/libutee/tee_api_property.c:529
    38f4:	b9400000 	ldr	w0, [x0]
    38f8:	3100041f 	cmn	w0, #0x1
    38fc:	54000440 	b.eq	3984 <TEE_GetNextProperty+0xa4>
/home/xiang/rockpi4-android/optee_os/lib/libutee/tee_api_property.c:534
    3900:	f9400680 	ldr	x0, [x20,#8]
    3904:	9100a3a2 	add	x2, x29, #0x28
    3908:	910083a1 	add	x1, x29, #0x20
    390c:	97fffd74 	bl	2edc <propset_get>
    3910:	2a0003f3 	mov	w19, w0
/home/xiang/rockpi4-android/optee_os/lib/libutee/tee_api_property.c:535
    3914:	35000200 	cbnz	w0, 3954 <TEE_GetNextProperty+0x74>
/home/xiang/rockpi4-android/optee_os/lib/libutee/tee_api_property.c:538
    3918:	b9400280 	ldr	w0, [x20]
/home/xiang/rockpi4-android/optee_os/lib/libutee/tee_api_property.c:540
    391c:	f94017a1 	ldr	x1, [x29,#40]
/home/xiang/rockpi4-android/optee_os/lib/libutee/tee_api_property.c:538
    3920:	11000400 	add	w0, w0, #0x1
/home/xiang/rockpi4-android/optee_os/lib/libutee/tee_api_property.c:539
    3924:	b9000280 	str	w0, [x20]
/home/xiang/rockpi4-android/optee_os/lib/libutee/tee_api_property.c:540
    3928:	eb01001f 	cmp	x0, x1
    392c:	54000143 	b.cc	3954 <TEE_GetNextProperty+0x74>
/home/xiang/rockpi4-android/optee_os/lib/libutee/tee_api_property.c:543
    3930:	cb010001 	sub	x1, x0, x1
    3934:	f9400680 	ldr	x0, [x20,#8]
    3938:	d2800006 	mov	x6, #0x0                   	// #0
    393c:	d2800005 	mov	x5, #0x0                   	// #0
    3940:	d2800004 	mov	x4, #0x0                   	// #0
    3944:	d2800003 	mov	x3, #0x0                   	// #0
    3948:	d2800002 	mov	x2, #0x0                   	// #0
    394c:	97fff219 	bl	1b0 <_utee_get_property>
    3950:	2a0003f3 	mov	w19, w0
/home/xiang/rockpi4-android/optee_os/lib/libutee/tee_api_property.c:548
    3954:	7100027f 	cmp	w19, #0x0
    3958:	129ffee0 	mov	w0, #0xffff0008            	// #-65528
    395c:	7a401264 	ccmp	w19, w0, #0x4, ne
    3960:	54000060 	b.eq	396c <TEE_GetNextProperty+0x8c>
/home/xiang/rockpi4-android/optee_os/lib/libutee/tee_api_property.c:550
    3964:	52800000 	mov	w0, #0x0                   	// #0
    3968:	97fffd0c 	bl	2d98 <TEE_Panic>
/home/xiang/rockpi4-android/optee_os/lib/libutee/tee_api_property.c:552
    396c:	2a1303e0 	mov	w0, w19
    3970:	a94153f3 	ldp	x19, x20, [sp,#16]
    3974:	a8c37bfd 	ldp	x29, x30, [sp],#48
    3978:	d65f03c0 	ret
/home/xiang/rockpi4-android/optee_os/lib/libutee/tee_api_property.c:525
    397c:	129fff33 	mov	w19, #0xffff0006            	// #-65530
    3980:	17fffff5 	b	3954 <TEE_GetNextProperty+0x74>
/home/xiang/rockpi4-android/optee_os/lib/libutee/tee_api_property.c:530
    3984:	129ffef3 	mov	w19, #0xffff0008            	// #-65528
    3988:	17fffff3 	b	3954 <TEE_GetNextProperty+0x74>

000000000000398c <invoke_system_pta>:
invoke_system_pta():
/home/xiang/rockpi4-android/optee_os/lib/libutee/tee_system_pta.c:16
    398c:	a9bd7bfd 	stp	x29, x30, [sp,#-48]!
    3990:	910003fd 	mov	x29, sp
    3994:	a90153f3 	stp	x19, x20, [sp,#16]
    3998:	2a0003f4 	mov	w20, w0
/home/xiang/rockpi4-android/optee_os/lib/libutee/tee_system_pta.c:20
    399c:	b00000a0 	adrp	x0, 18000 <data.4506+0x2aa0>
/home/xiang/rockpi4-android/optee_os/lib/libutee/tee_system_pta.c:16
    39a0:	a9025bf5 	stp	x21, x22, [sp,#32]
    39a4:	2a0103f5 	mov	w21, w1
    39a8:	aa0203f6 	mov	x22, x2
/home/xiang/rockpi4-android/optee_os/lib/libutee/tee_system_pta.c:20
    39ac:	f942b001 	ldr	x1, [x0,#1376]
    39b0:	aa0003f3 	mov	x19, x0
    39b4:	b4000161 	cbz	x1, 39e0 <invoke_system_pta+0x54>
/home/xiang/rockpi4-android/optee_os/lib/libutee/tee_system_pta.c:28
    39b8:	aa1603e4 	mov	x4, x22
    39bc:	2a1503e3 	mov	w3, w21
    39c0:	2a1403e2 	mov	w2, w20
    39c4:	f942b260 	ldr	x0, [x19,#1376]
/home/xiang/rockpi4-android/optee_os/lib/libutee/tee_system_pta.c:30
    39c8:	a9425bf5 	ldp	x21, x22, [sp,#32]
/home/xiang/rockpi4-android/optee_os/lib/libutee/tee_system_pta.c:28
    39cc:	d2800005 	mov	x5, #0x0                   	// #0
/home/xiang/rockpi4-android/optee_os/lib/libutee/tee_system_pta.c:30
    39d0:	a94153f3 	ldp	x19, x20, [sp,#16]
/home/xiang/rockpi4-android/optee_os/lib/libutee/tee_system_pta.c:28
    39d4:	12800001 	mov	w1, #0xffffffff            	// #-1
/home/xiang/rockpi4-android/optee_os/lib/libutee/tee_system_pta.c:30
    39d8:	a8c37bfd 	ldp	x29, x30, [sp],#48
/home/xiang/rockpi4-android/optee_os/lib/libutee/tee_system_pta.c:28
    39dc:	17fff5b6 	b	10b4 <TEE_InvokeTACommand>
    39e0:	91158004 	add	x4, x0, #0x560
/home/xiang/rockpi4-android/optee_os/lib/libutee/tee_system_pta.c:21
    39e4:	d2800005 	mov	x5, #0x0                   	// #0
    39e8:	f0000020 	adrp	x0, a000 <kprintf.constprop.0+0x540>
    39ec:	d2800003 	mov	x3, #0x0                   	// #0
    39f0:	52800002 	mov	w2, #0x0                   	// #0
    39f4:	12800001 	mov	w1, #0xffffffff            	// #-1
    39f8:	91386000 	add	x0, x0, #0xe18
    39fc:	97fff570 	bl	fbc <TEE_OpenTASession>
/home/xiang/rockpi4-android/optee_os/lib/libutee/tee_system_pta.c:24
    3a00:	34fffdc0 	cbz	w0, 39b8 <invoke_system_pta+0x2c>
/home/xiang/rockpi4-android/optee_os/lib/libutee/tee_system_pta.c:30
    3a04:	a94153f3 	ldp	x19, x20, [sp,#16]
    3a08:	a9425bf5 	ldp	x21, x22, [sp,#32]
    3a0c:	a8c37bfd 	ldp	x29, x30, [sp],#48
    3a10:	d65f03c0 	ret

0000000000003a14 <tee_map_zi>:
tee_map_zi():
/home/xiang/rockpi4-android/optee_os/lib/libutee/tee_system_pta.c:33
    3a14:	a9bb7bfd 	stp	x29, x30, [sp,#-80]!
/home/xiang/rockpi4-android/optee_os/lib/libutee/tee_system_pta.c:42
    3a18:	f2607c1f 	tst	x0, #0xffffffff00000000
/home/xiang/rockpi4-android/optee_os/lib/libutee/tee_system_pta.c:33
    3a1c:	910003fd 	mov	x29, sp
/home/xiang/rockpi4-android/optee_os/lib/libutee/tee_system_pta.c:38
    3a20:	a9017fbf 	stp	xzr, xzr, [x29,#16]
    3a24:	a9027fbf 	stp	xzr, xzr, [x29,#32]
    3a28:	a9037fbf 	stp	xzr, xzr, [x29,#48]
    3a2c:	a9047fbf 	stp	xzr, xzr, [x29,#64]
/home/xiang/rockpi4-android/optee_os/lib/libutee/tee_system_pta.c:41
    3a30:	b90013a0 	str	w0, [x29,#16]
/home/xiang/rockpi4-android/optee_os/lib/libutee/tee_system_pta.c:42
    3a34:	54000060 	b.eq	3a40 <tee_map_zi+0x2c>
/home/xiang/rockpi4-android/optee_os/lib/libutee/tee_system_pta.c:51
    3a38:	d2800000 	mov	x0, #0x0                   	// #0
    3a3c:	1400000d 	b	3a70 <tee_map_zi+0x5c>
/home/xiang/rockpi4-android/optee_os/lib/libutee/tee_system_pta.c:44
    3a40:	340000a1 	cbz	w1, 3a54 <tee_map_zi+0x40>
    3a44:	7100103f 	cmp	w1, #0x4
    3a48:	54ffff81 	b.ne	3a38 <tee_map_zi+0x24>
/home/xiang/rockpi4-android/optee_os/lib/libutee/tee_system_pta.c:48
    3a4c:	52800020 	mov	w0, #0x1                   	// #1
    3a50:	b90017a0 	str	w0, [x29,#20]
/home/xiang/rockpi4-android/optee_os/lib/libutee/tee_system_pta.c:54
    3a54:	910043a2 	add	x2, x29, #0x10
    3a58:	52802621 	mov	w1, #0x131                 	// #305
    3a5c:	52800040 	mov	w0, #0x2                   	// #2
    3a60:	97ffffcb 	bl	398c <invoke_system_pta>
/home/xiang/rockpi4-android/optee_os/lib/libutee/tee_system_pta.c:55
    3a64:	35fffea0 	cbnz	w0, 3a38 <tee_map_zi+0x24>
reg_pair_to_64():
/home/xiang/rockpi4-android/optee_os/lib/libutils/ext/include/util.h:166
    3a68:	294407a0 	ldp	w0, w1, [x29,#32]
    3a6c:	aa008020 	orr	x0, x1, x0, lsl #32
tee_map_zi():
/home/xiang/rockpi4-android/optee_os/lib/libutee/tee_system_pta.c:60
    3a70:	a8c57bfd 	ldp	x29, x30, [sp],#80
    3a74:	d65f03c0 	ret

0000000000003a78 <tee_unmap>:
tee_unmap():
/home/xiang/rockpi4-android/optee_os/lib/libutee/tee_system_pta.c:63
    3a78:	a9b97bfd 	stp	x29, x30, [sp,#-112]!
    3a7c:	910003fd 	mov	x29, sp
    3a80:	a90153f3 	stp	x19, x20, [sp,#16]
    3a84:	aa0003f3 	mov	x19, x0
reg_pair_from_64():
/home/xiang/rockpi4-android/optee_os/lib/libutils/ext/include/util.h:172
    3a88:	d360fc00 	lsr	x0, x0, #32
tee_unmap():
/home/xiang/rockpi4-android/optee_os/lib/libutee/tee_system_pta.c:63
    3a8c:	f90013f5 	str	x21, [sp,#32]
/home/xiang/rockpi4-android/optee_os/lib/libutee/tee_system_pta.c:69
    3a90:	a9037fbf 	stp	xzr, xzr, [x29,#48]
/home/xiang/rockpi4-android/optee_os/lib/libutee/tee_system_pta.c:74
    3a94:	9100c3a2 	add	x2, x29, #0x30
/home/xiang/rockpi4-android/optee_os/lib/libutee/tee_system_pta.c:69
    3a98:	a9047fbf 	stp	xzr, xzr, [x29,#64]
/home/xiang/rockpi4-android/optee_os/lib/libutee/tee_system_pta.c:63
    3a9c:	aa0103f5 	mov	x21, x1
/home/xiang/rockpi4-android/optee_os/lib/libutee/tee_system_pta.c:71
    3aa0:	b90033a1 	str	w1, [x29,#48]
/home/xiang/rockpi4-android/optee_os/lib/libutee/tee_system_pta.c:74
    3aa4:	52800221 	mov	w1, #0x11                  	// #17
reg_pair_from_64():
/home/xiang/rockpi4-android/optee_os/lib/libutils/ext/include/util.h:173
    3aa8:	29084fa0 	stp	w0, w19, [x29,#64]
tee_unmap():
/home/xiang/rockpi4-android/optee_os/lib/libutee/tee_system_pta.c:74
    3aac:	52800060 	mov	w0, #0x3                   	// #3
/home/xiang/rockpi4-android/optee_os/lib/libutee/tee_system_pta.c:69
    3ab0:	a9057fbf 	stp	xzr, xzr, [x29,#80]
    3ab4:	a9067fbf 	stp	xzr, xzr, [x29,#96]
/home/xiang/rockpi4-android/optee_os/lib/libutee/tee_system_pta.c:74
    3ab8:	97ffffb5 	bl	398c <invoke_system_pta>
    3abc:	2a0003f4 	mov	w20, w0
/home/xiang/rockpi4-android/optee_os/lib/libutee/tee_system_pta.c:75
    3ac0:	34000180 	cbz	w0, 3af0 <tee_unmap+0x78>
/home/xiang/rockpi4-android/optee_os/lib/libutee/tee_system_pta.c:76
    3ac4:	f0000020 	adrp	x0, a000 <kprintf.constprop.0+0x540>
    3ac8:	91386000 	add	x0, x0, #0xe18
    3acc:	90000044 	adrp	x4, b000 <small_prime+0x140>
    3ad0:	aa1503e6 	mov	x6, x21
    3ad4:	aa1303e5 	mov	x5, x19
    3ad8:	91139484 	add	x4, x4, #0x4e5
    3adc:	52800023 	mov	w3, #0x1                   	// #1
    3ae0:	52800022 	mov	w2, #0x1                   	// #1
    3ae4:	52800981 	mov	w1, #0x4c                  	// #76
    3ae8:	91004000 	add	x0, x0, #0x10
    3aec:	94001ba8 	bl	a98c <trace_printf>
/home/xiang/rockpi4-android/optee_os/lib/libutee/tee_system_pta.c:79
    3af0:	2a1403e0 	mov	w0, w20
    3af4:	f94013f5 	ldr	x21, [sp,#32]
    3af8:	a94153f3 	ldp	x19, x20, [sp,#16]
    3afc:	a8c77bfd 	ldp	x29, x30, [sp],#112
    3b00:	d65f03c0 	ret

0000000000003b04 <tee_invoke_supp_plugin>:
tee_invoke_supp_plugin():
/home/xiang/rockpi4-android/optee_os/lib/libutee/tee_system_pta.c:84
    3b04:	a9ba7bfd 	stp	x29, x30, [sp,#-96]!
    3b08:	910003fd 	mov	x29, sp
    3b0c:	a90153f3 	stp	x19, x20, [sp,#16]
/home/xiang/rockpi4-android/optee_os/lib/libutee/tee_system_pta.c:90
    3b10:	a9027fbf 	stp	xzr, xzr, [x29,#32]
    3b14:	a9037fbf 	stp	xzr, xzr, [x29,#48]
    3b18:	a9047fbf 	stp	xzr, xzr, [x29,#64]
    3b1c:	a9057fbf 	stp	xzr, xzr, [x29,#80]
/home/xiang/rockpi4-android/optee_os/lib/libutee/tee_system_pta.c:92
    3b20:	b40004a0 	cbz	x0, 3bb4 <tee_invoke_supp_plugin+0xb0>
/home/xiang/rockpi4-android/optee_os/lib/libutee/tee_system_pta.c:92 (discriminator 1)
    3b24:	f100009f 	cmp	x4, #0x0
    3b28:	fa401860 	ccmp	x3, #0x0, #0x0, ne
    3b2c:	54000440 	b.eq	3bb4 <tee_invoke_supp_plugin+0xb0>
/home/xiang/rockpi4-android/optee_os/lib/libutee/tee_system_pta.c:92 (discriminator 2)
    3b30:	f100009f 	cmp	x4, #0x0
    3b34:	fa400864 	ccmp	x3, #0x0, #0x4, eq
    3b38:	540003e1 	b.ne	3bb4 <tee_invoke_supp_plugin+0xb0>
/home/xiang/rockpi4-android/optee_os/lib/libutee/tee_system_pta.c:95
    3b3c:	f90013a0 	str	x0, [x29,#32]
/home/xiang/rockpi4-android/optee_os/lib/libutee/tee_system_pta.c:96
    3b40:	52800200 	mov	w0, #0x10                  	// #16
/home/xiang/rockpi4-android/optee_os/lib/libutee/tee_system_pta.c:98
    3b44:	29060ba1 	stp	w1, w2, [x29,#48]
    3b48:	aa0503f4 	mov	x20, x5
/home/xiang/rockpi4-android/optee_os/lib/libutee/tee_system_pta.c:96
    3b4c:	b9002ba0 	str	w0, [x29,#40]
/home/xiang/rockpi4-android/optee_os/lib/libutee/tee_system_pta.c:102
    3b50:	910083a2 	add	x2, x29, #0x20
/home/xiang/rockpi4-android/optee_os/lib/libutee/tee_system_pta.c:99
    3b54:	f90023a3 	str	x3, [x29,#64]
/home/xiang/rockpi4-android/optee_os/lib/libutee/tee_system_pta.c:102
    3b58:	5284e2a1 	mov	w1, #0x2715                	// #10005
/home/xiang/rockpi4-android/optee_os/lib/libutee/tee_system_pta.c:100
    3b5c:	b9004ba4 	str	w4, [x29,#72]
/home/xiang/rockpi4-android/optee_os/lib/libutee/tee_system_pta.c:102
    3b60:	528001a0 	mov	w0, #0xd                   	// #13
    3b64:	97ffff8a 	bl	398c <invoke_system_pta>
    3b68:	2a0003f3 	mov	w19, w0
/home/xiang/rockpi4-android/optee_os/lib/libutee/tee_system_pta.c:104
    3b6c:	34000160 	cbz	w0, 3b98 <tee_invoke_supp_plugin+0x94>
/home/xiang/rockpi4-android/optee_os/lib/libutee/tee_system_pta.c:105
    3b70:	2a0003e5 	mov	w5, w0
    3b74:	f0000020 	adrp	x0, a000 <kprintf.constprop.0+0x540>
    3b78:	91386000 	add	x0, x0, #0xe18
    3b7c:	90000044 	adrp	x4, b000 <small_prime+0x140>
    3b80:	52800023 	mov	w3, #0x1                   	// #1
    3b84:	91143c84 	add	x4, x4, #0x50f
    3b88:	52800022 	mov	w2, #0x1                   	// #1
    3b8c:	52800d21 	mov	w1, #0x69                  	// #105
    3b90:	91008000 	add	x0, x0, #0x20
    3b94:	94001b7e 	bl	a98c <trace_printf>
/home/xiang/rockpi4-android/optee_os/lib/libutee/tee_system_pta.c:107
    3b98:	b4000074 	cbz	x20, 3ba4 <tee_invoke_supp_plugin+0xa0>
/home/xiang/rockpi4-android/optee_os/lib/libutee/tee_system_pta.c:108
    3b9c:	b94053a0 	ldr	w0, [x29,#80]
    3ba0:	f9000280 	str	x0, [x20]
/home/xiang/rockpi4-android/optee_os/lib/libutee/tee_system_pta.c:111
    3ba4:	2a1303e0 	mov	w0, w19
    3ba8:	a94153f3 	ldp	x19, x20, [sp,#16]
    3bac:	a8c67bfd 	ldp	x29, x30, [sp],#96
    3bb0:	d65f03c0 	ret
/home/xiang/rockpi4-android/optee_os/lib/libutee/tee_system_pta.c:93
    3bb4:	129fff33 	mov	w19, #0xffff0006            	// #-65530
    3bb8:	17fffffb 	b	3ba4 <tee_invoke_supp_plugin+0xa0>

0000000000003bbc <__utee_tcb_init>:
__utee_tcb_init():
/home/xiang/rockpi4-android/optee_os/lib/libutee/arch/arm/tcb.c:87
    3bbc:	a9b87bfd 	stp	x29, x30, [sp,#-128]!
/home/xiang/rockpi4-android/optee_os/lib/libutee/arch/arm/tcb.c:96
    3bc0:	d0000041 	adrp	x1, d000 <_DYNAMIC>
    3bc4:	d2800003 	mov	x3, #0x0                   	// #0
/home/xiang/rockpi4-android/optee_os/lib/libutee/arch/arm/tcb.c:99
    3bc8:	d2800706 	mov	x6, #0x38                  	// #56
/home/xiang/rockpi4-android/optee_os/lib/libutee/arch/arm/tcb.c:87
    3bcc:	910003fd 	mov	x29, sp
/home/xiang/rockpi4-android/optee_os/lib/libutee/arch/arm/tcb.c:96
    3bd0:	f940c420 	ldr	x0, [x1,#392]
/home/xiang/rockpi4-android/optee_os/lib/libutee/arch/arm/tcb.c:87
    3bd4:	a90363f7 	stp	x23, x24, [sp,#48]
    3bd8:	aa0103f7 	mov	x23, x1
    3bdc:	a9025bf5 	stp	x21, x22, [sp,#32]
/home/xiang/rockpi4-android/optee_os/lib/libutee/arch/arm/tcb.c:90
    3be0:	d2800016 	mov	x22, #0x0                   	// #0
/home/xiang/rockpi4-android/optee_os/lib/libutee/arch/arm/tcb.c:87
    3be4:	a90153f3 	stp	x19, x20, [sp,#16]
/home/xiang/rockpi4-android/optee_os/lib/libutee/arch/arm/tcb.c:96
    3be8:	79400805 	ldrh	w5, [x0,#4]
    3bec:	f9400400 	ldr	x0, [x0,#8]
/home/xiang/rockpi4-android/optee_os/lib/libutee/arch/arm/tcb.c:87
    3bf0:	a9046bf9 	stp	x25, x26, [sp,#64]
    3bf4:	91004000 	add	x0, x0, #0x10
    3bf8:	a90573fb 	stp	x27, x28, [sp,#80]
/home/xiang/rockpi4-android/optee_os/lib/libutee/arch/arm/tcb.c:96 (discriminator 1)
    3bfc:	eb05007f 	cmp	x3, x5
    3c00:	540001e3 	b.cc	3c3c <__utee_tcb_init+0x80>
/home/xiang/rockpi4-android/optee_os/lib/libutee/arch/arm/tcb.c:108
    3c04:	b00000b5 	adrp	x21, 18000 <data.4506+0x2aa0>
    3c08:	9115a2b9 	add	x25, x21, #0x568
    3c0c:	f942b6b8 	ldr	x24, [x21,#1384]
    3c10:	eb1802df 	cmp	x22, x24
    3c14:	54000362 	b.cs	3c80 <__utee_tcb_init+0xc4>
/home/xiang/rockpi4-android/optee_os/lib/libutee/arch/arm/tcb.c:108 (discriminator 1)
    3c18:	f0000023 	adrp	x3, a000 <kprintf.constprop.0+0x540>
    3c1c:	90000041 	adrp	x1, b000 <small_prime+0x140>
    3c20:	91394063 	add	x3, x3, #0xe50
    3c24:	9114e821 	add	x1, x1, #0x53a
    3c28:	90000040 	adrp	x0, b000 <small_prime+0x140>
    3c2c:	91155400 	add	x0, x0, #0x555
    3c30:	52800d82 	mov	w2, #0x6c                  	// #108
    3c34:	940000b5 	bl	3f08 <_assert_log>
    3c38:	940000c5 	bl	3f4c <_assert_break>
/home/xiang/rockpi4-android/optee_os/lib/libutee/arch/arm/tcb.c:98
    3c3c:	79401007 	ldrh	w7, [x0,#8]
    3c40:	d2800001 	mov	x1, #0x0                   	// #0
/home/xiang/rockpi4-android/optee_os/lib/libutee/arch/arm/tcb.c:98 (discriminator 1)
    3c44:	eb07003f 	cmp	x1, x7
    3c48:	54000122 	b.cs	3c6c <__utee_tcb_init+0xb0>
/home/xiang/rockpi4-android/optee_os/lib/libutee/arch/arm/tcb.c:99
    3c4c:	9b067c22 	mul	x2, x1, x6
    3c50:	f9400004 	ldr	x4, [x0]
    3c54:	8b020088 	add	x8, x4, x2
/home/xiang/rockpi4-android/optee_os/lib/libutee/arch/arm/tcb.c:100
    3c58:	b8626882 	ldr	w2, [x4,x2]
    3c5c:	71001c5f 	cmp	w2, #0x7
    3c60:	540000c1 	b.ne	3c78 <__utee_tcb_init+0xbc>
/home/xiang/rockpi4-android/optee_os/lib/libutee/arch/arm/tcb.c:101
    3c64:	f9401501 	ldr	x1, [x8,#40]
    3c68:	8b0102d6 	add	x22, x22, x1
/home/xiang/rockpi4-android/optee_os/lib/libutee/arch/arm/tcb.c:96 (discriminator 2)
    3c6c:	91000463 	add	x3, x3, #0x1
    3c70:	91010000 	add	x0, x0, #0x40
    3c74:	17ffffe2 	b	3bfc <__utee_tcb_init+0x40>
/home/xiang/rockpi4-android/optee_os/lib/libutee/arch/arm/tcb.c:98 (discriminator 2)
    3c78:	91000421 	add	x1, x1, #0x1
    3c7c:	17fffff2 	b	3c44 <__utee_tcb_init+0x88>
/home/xiang/rockpi4-android/optee_os/lib/libutee/arch/arm/tcb.c:110
    3c80:	540004e0 	b.eq	3d1c <__utee_tcb_init+0x160>
/home/xiang/rockpi4-android/optee_os/lib/libutee/arch/arm/tcb.c:114
    3c84:	f9400720 	ldr	x0, [x25,#8]
    3c88:	910042d4 	add	x20, x22, #0x10
    3c8c:	aa1403e1 	mov	x1, x20
    3c90:	94001623 	bl	951c <realloc>
    3c94:	f9000720 	str	x0, [x25,#8]
    3c98:	aa0003f3 	mov	x19, x0
/home/xiang/rockpi4-android/optee_os/lib/libutee/arch/arm/tcb.c:115
    3c9c:	b5000160 	cbnz	x0, 3cc8 <__utee_tcb_init+0x10c>
/home/xiang/rockpi4-android/optee_os/lib/libutee/arch/arm/tcb.c:116
    3ca0:	90000044 	adrp	x4, b000 <small_prime+0x140>
    3ca4:	aa1403e5 	mov	x5, x20
    3ca8:	9115b484 	add	x4, x4, #0x56d
    3cac:	52800023 	mov	w3, #0x1                   	// #1
    3cb0:	52800022 	mov	w2, #0x1                   	// #1
    3cb4:	52800e81 	mov	w1, #0x74                  	// #116
/home/xiang/rockpi4-android/optee_os/lib/libutee/arch/arm/tcb.c:124
    3cb8:	f0000020 	adrp	x0, a000 <kprintf.constprop.0+0x540>
    3cbc:	91394000 	add	x0, x0, #0xe50
    3cc0:	94001b33 	bl	a98c <trace_printf>
/home/xiang/rockpi4-android/optee_os/lib/libutee/arch/arm/tcb.c:125
    3cc4:	97fff385 	bl	ad8 <abort>
/home/xiang/rockpi4-android/optee_os/lib/libutee/arch/arm/tcb.c:121
    3cc8:	f940c6e0 	ldr	x0, [x23,#392]
    3ccc:	79400814 	ldrh	w20, [x0,#4]
/home/xiang/rockpi4-android/optee_os/lib/libutee/arch/arm/tcb.c:122
    3cd0:	f9400260 	ldr	x0, [x19]
/home/xiang/rockpi4-android/optee_os/lib/libutee/arch/arm/tcb.c:121
    3cd4:	91000a94 	add	x20, x20, #0x2
    3cd8:	d37df294 	lsl	x20, x20, #3
/home/xiang/rockpi4-android/optee_os/lib/libutee/arch/arm/tcb.c:122
    3cdc:	aa1403e1 	mov	x1, x20
    3ce0:	9400160f 	bl	951c <realloc>
    3ce4:	f9000260 	str	x0, [x19]
/home/xiang/rockpi4-android/optee_os/lib/libutee/arch/arm/tcb.c:123
    3ce8:	b4000280 	cbz	x0, 3d38 <__utee_tcb_init+0x17c>
/home/xiang/rockpi4-android/optee_os/lib/libutee/arch/arm/tcb.c:140 (discriminator 1)
    3cec:	9100427b 	add	x27, x19, #0x10
    3cf0:	d2800000 	mov	x0, #0x0                   	// #0
    3cf4:	d2800019 	mov	x25, #0x0                   	// #0
/home/xiang/rockpi4-android/optee_os/lib/libutee/arch/arm/tcb.c:133 (discriminator 1)
    3cf8:	d2800704 	mov	x4, #0x38                  	// #56
/home/xiang/rockpi4-android/optee_os/lib/libutee/arch/arm/tcb.c:130 (discriminator 1)
    3cfc:	f940c6e1 	ldr	x1, [x23,#392]
    3d00:	79400822 	ldrh	w2, [x1,#4]
    3d04:	eb02001f 	cmp	x0, x2
    3d08:	54000263 	b.cc	3d54 <__utee_tcb_init+0x198>
/home/xiang/rockpi4-android/optee_os/lib/libutee/arch/arm/tcb.c:151
    3d0c:	f9400261 	ldr	x1, [x19]
/home/xiang/rockpi4-android/optee_os/lib/libutee/arch/arm/tcb.c:153
    3d10:	f902b6b6 	str	x22, [x21,#1384]
/home/xiang/rockpi4-android/optee_os/lib/libutee/arch/arm/tcb.c:151
    3d14:	f9000020 	str	x0, [x1]
write_tpidr_el0():
/home/xiang/rockpi4-android/optee_os/lib/libutee/include/arm64_user_sysreg.h:37
    3d18:	d51bd053 	msr	tpidr_el0, x19
__utee_tcb_init():
/home/xiang/rockpi4-android/optee_os/lib/libutee/arch/arm/tcb.c:161
    3d1c:	a94153f3 	ldp	x19, x20, [sp,#16]
    3d20:	a9425bf5 	ldp	x21, x22, [sp,#32]
    3d24:	a94363f7 	ldp	x23, x24, [sp,#48]
    3d28:	a9446bf9 	ldp	x25, x26, [sp,#64]
    3d2c:	a94573fb 	ldp	x27, x28, [sp,#80]
    3d30:	a8c87bfd 	ldp	x29, x30, [sp],#128
    3d34:	d65f03c0 	ret
/home/xiang/rockpi4-android/optee_os/lib/libutee/arch/arm/tcb.c:124
    3d38:	90000044 	adrp	x4, b000 <small_prime+0x140>
    3d3c:	aa1403e5 	mov	x5, x20
    3d40:	91163c84 	add	x4, x4, #0x58f
    3d44:	52800023 	mov	w3, #0x1                   	// #1
    3d48:	52800022 	mov	w2, #0x1                   	// #1
    3d4c:	52800f81 	mov	w1, #0x7c                  	// #124
    3d50:	17ffffda 	b	3cb8 <__utee_tcb_init+0xfc>
/home/xiang/rockpi4-android/optee_os/lib/libutee/arch/arm/tcb.c:131
    3d54:	f940043a 	ldr	x26, [x1,#8]
    3d58:	91000403 	add	x3, x0, #0x1
    3d5c:	d37df065 	lsl	x5, x3, #3
/home/xiang/rockpi4-android/optee_os/lib/libutee/arch/arm/tcb.c:132
    3d60:	d280001c 	mov	x28, #0x0                   	// #0
/home/xiang/rockpi4-android/optee_os/lib/libutee/arch/arm/tcb.c:131
    3d64:	8b001b5a 	add	x26, x26, x0, lsl #6
/home/xiang/rockpi4-android/optee_os/lib/libutee/arch/arm/tcb.c:132 (discriminator 1)
    3d68:	79403341 	ldrh	w1, [x26,#24]
/home/xiang/rockpi4-android/optee_os/lib/libutee/arch/arm/tcb.c:130 (discriminator 1)
    3d6c:	aa0303e0 	mov	x0, x3
/home/xiang/rockpi4-android/optee_os/lib/libutee/arch/arm/tcb.c:132 (discriminator 1)
    3d70:	eb01039f 	cmp	x28, x1
    3d74:	54fffc42 	b.cs	3cfc <__utee_tcb_init+0x140>
/home/xiang/rockpi4-android/optee_os/lib/libutee/arch/arm/tcb.c:133
    3d78:	9b047f80 	mul	x0, x28, x4
    3d7c:	f9400b41 	ldr	x1, [x26,#16]
    3d80:	8b000034 	add	x20, x1, x0
/home/xiang/rockpi4-android/optee_os/lib/libutee/arch/arm/tcb.c:134
    3d84:	b8606820 	ldr	w0, [x1,x0]
    3d88:	71001c1f 	cmp	w0, #0x7
    3d8c:	54000341 	b.ne	3df4 <__utee_tcb_init+0x238>
/home/xiang/rockpi4-android/optee_os/lib/libutee/arch/arm/tcb.c:136
    3d90:	f9401681 	ldr	x1, [x20,#40]
/home/xiang/rockpi4-android/optee_os/lib/libutee/arch/arm/tcb.c:130
    3d94:	aa0303e0 	mov	x0, x3
    3d98:	f90037a3 	str	x3, [x29,#104]
/home/xiang/rockpi4-android/optee_os/lib/libutee/arch/arm/tcb.c:136
    3d9c:	8b010321 	add	x1, x25, x1
    3da0:	eb01031f 	cmp	x24, x1
    3da4:	54fffac2 	b.cs	3cfc <__utee_tcb_init+0x140>
/home/xiang/rockpi4-android/optee_os/lib/libutee/arch/arm/tcb.c:140
    3da8:	f9400261 	ldr	x1, [x19]
    3dac:	8b190360 	add	x0, x27, x25
    3db0:	a90717a4 	stp	x4, x5, [x29,#112]
    3db4:	f8256820 	str	x0, [x1,x5]
/home/xiang/rockpi4-android/optee_os/lib/libutee/arch/arm/tcb.c:143
    3db8:	f9400346 	ldr	x6, [x26]
/home/xiang/rockpi4-android/optee_os/lib/libutee/arch/arm/tcb.c:142
    3dbc:	f9401282 	ldr	x2, [x20,#32]
/home/xiang/rockpi4-android/optee_os/lib/libutee/arch/arm/tcb.c:143
    3dc0:	f9400a81 	ldr	x1, [x20,#16]
/home/xiang/rockpi4-android/optee_os/lib/libutee/arch/arm/tcb.c:142
    3dc4:	8b0100c1 	add	x1, x6, x1
    3dc8:	97fff096 	bl	20 <memcpy>
/home/xiang/rockpi4-android/optee_os/lib/libutee/arch/arm/tcb.c:146
    3dcc:	a9420a81 	ldp	x1, x2, [x20,#32]
    3dd0:	8b010320 	add	x0, x25, x1
    3dd4:	cb010042 	sub	x2, x2, x1
    3dd8:	8b000360 	add	x0, x27, x0
    3ddc:	52800001 	mov	w1, #0x0                   	// #0
    3de0:	940016c9 	bl	9904 <memset>
/home/xiang/rockpi4-android/optee_os/lib/libutee/arch/arm/tcb.c:148
    3de4:	f9401680 	ldr	x0, [x20,#40]
    3de8:	a94693a3 	ldp	x3, x4, [x29,#104]
    3dec:	8b000339 	add	x25, x25, x0
    3df0:	f9403fa5 	ldr	x5, [x29,#120]
/home/xiang/rockpi4-android/optee_os/lib/libutee/arch/arm/tcb.c:132 (discriminator 2)
    3df4:	9100079c 	add	x28, x28, #0x1
    3df8:	17ffffdc 	b	3d68 <__utee_tcb_init+0x1ac>

0000000000003dfc <__tls_get_addr>:
__tls_get_addr():
/home/xiang/rockpi4-android/optee_os/lib/libutee/arch/arm/tcb.c:172
    3dfc:	b00000a1 	adrp	x1, 18000 <data.4506+0x2aa0>
    3e00:	a9400002 	ldp	x2, x0, [x0]
    3e04:	f942b821 	ldr	x1, [x1,#1392]
    3e08:	f9400021 	ldr	x1, [x1]
    3e0c:	f8627821 	ldr	x1, [x1,x2,lsl #3]
/home/xiang/rockpi4-android/optee_os/lib/libutee/arch/arm/tcb.c:173
    3e10:	8b000020 	add	x0, x1, x0
    3e14:	d65f03c0 	ret

0000000000003e18 <dl_iterate_phdr>:
dl_iterate_phdr():
/home/xiang/rockpi4-android/optee_os/lib/libutee/arch/arm/tcb.c:177
    3e18:	a9bb7bfd 	stp	x29, x30, [sp,#-80]!
    3e1c:	910003fd 	mov	x29, sp
    3e20:	a90363f7 	stp	x23, x24, [sp,#48]
    3e24:	aa0003f8 	mov	x24, x0
    3e28:	f90023f9 	str	x25, [sp,#64]
/home/xiang/rockpi4-android/optee_os/lib/libutee/arch/arm/tcb.c:190
    3e2c:	d2800020 	mov	x0, #0x1                   	// #1
/home/xiang/rockpi4-android/optee_os/lib/libutee/arch/arm/tcb.c:177
    3e30:	a90153f3 	stp	x19, x20, [sp,#16]
    3e34:	aa0103f9 	mov	x25, x1
    3e38:	a9025bf5 	stp	x21, x22, [sp,#32]
/home/xiang/rockpi4-android/optee_os/lib/libutee/arch/arm/tcb.c:190
    3e3c:	d2800801 	mov	x1, #0x40                  	// #64
    3e40:	940015b0 	bl	9500 <calloc>
/home/xiang/rockpi4-android/optee_os/lib/libutee/arch/arm/tcb.c:191
    3e44:	b4000280 	cbz	x0, 3e94 <dl_iterate_phdr+0x7c>
/home/xiang/rockpi4-android/optee_os/lib/libutee/arch/arm/tcb.c:196 (discriminator 1)
    3e48:	d0000055 	adrp	x21, d000 <_DYNAMIC>
/home/xiang/rockpi4-android/optee_os/lib/libutee/arch/arm/tcb.c:201 (discriminator 1)
    3e4c:	b00000b6 	adrp	x22, 18000 <data.4506+0x2aa0>
    3e50:	aa0003f3 	mov	x19, x0
    3e54:	9115a2d6 	add	x22, x22, #0x568
/home/xiang/rockpi4-android/optee_os/lib/libutee/arch/arm/tcb.c:196 (discriminator 1)
    3e58:	f940c6b5 	ldr	x21, [x21,#392]
    3e5c:	52800017 	mov	w23, #0x0                   	// #0
    3e60:	d2800014 	mov	x20, #0x0                   	// #0
    3e64:	79400aa0 	ldrh	w0, [x21,#4]
    3e68:	eb00029f 	cmp	x20, x0
    3e6c:	54000283 	b.cc	3ebc <dl_iterate_phdr+0xa4>
/home/xiang/rockpi4-android/optee_os/lib/libutee/arch/arm/tcb.c:205
    3e70:	aa1303e0 	mov	x0, x19
    3e74:	940015b7 	bl	9550 <free>
/home/xiang/rockpi4-android/optee_os/lib/libutee/arch/arm/tcb.c:207
    3e78:	2a1703e0 	mov	w0, w23
    3e7c:	f94023f9 	ldr	x25, [sp,#64]
    3e80:	a94153f3 	ldp	x19, x20, [sp,#16]
    3e84:	a9425bf5 	ldp	x21, x22, [sp,#32]
    3e88:	a94363f7 	ldp	x23, x24, [sp,#48]
    3e8c:	a8c57bfd 	ldp	x29, x30, [sp],#80
    3e90:	d65f03c0 	ret
/home/xiang/rockpi4-android/optee_os/lib/libutee/arch/arm/tcb.c:192
    3e94:	f0000020 	adrp	x0, a000 <kprintf.constprop.0+0x540>
    3e98:	91394000 	add	x0, x0, #0xe50
    3e9c:	90000044 	adrp	x4, b000 <small_prime+0x140>
    3ea0:	91004000 	add	x0, x0, #0x10
    3ea4:	9116c484 	add	x4, x4, #0x5b1
    3ea8:	52800023 	mov	w3, #0x1                   	// #1
    3eac:	52800022 	mov	w2, #0x1                   	// #1
    3eb0:	52801801 	mov	w1, #0xc0                  	// #192
    3eb4:	94001ab6 	bl	a98c <trace_printf>
/home/xiang/rockpi4-android/optee_os/lib/libutee/arch/arm/tcb.c:193
    3eb8:	97fff308 	bl	ad8 <abort>
/home/xiang/rockpi4-android/optee_os/lib/libutee/arch/arm/tcb.c:197
    3ebc:	f94006a1 	ldr	x1, [x21,#8]
    3ec0:	d2800802 	mov	x2, #0x40                  	// #64
    3ec4:	aa1303e0 	mov	x0, x19
    3ec8:	8b141821 	add	x1, x1, x20, lsl #6
    3ecc:	97fff055 	bl	20 <memcpy>
/home/xiang/rockpi4-android/optee_os/lib/libutee/arch/arm/tcb.c:199
    3ed0:	f9401a60 	ldr	x0, [x19,#48]
/home/xiang/rockpi4-android/optee_os/lib/libutee/arch/arm/tcb.c:198
    3ed4:	f9001e7f 	str	xzr, [x19,#56]
/home/xiang/rockpi4-android/optee_os/lib/libutee/arch/arm/tcb.c:200
    3ed8:	b40000a0 	cbz	x0, 3eec <dl_iterate_phdr+0xd4>
/home/xiang/rockpi4-android/optee_os/lib/libutee/arch/arm/tcb.c:201
    3edc:	f94006c1 	ldr	x1, [x22,#8]
    3ee0:	f9400021 	ldr	x1, [x1]
    3ee4:	f8607820 	ldr	x0, [x1,x0,lsl #3]
    3ee8:	f9001e60 	str	x0, [x19,#56]
/home/xiang/rockpi4-android/optee_os/lib/libutee/arch/arm/tcb.c:202 (discriminator 2)
    3eec:	aa1903e2 	mov	x2, x25
    3ef0:	d2800801 	mov	x1, #0x40                  	// #64
    3ef4:	aa1303e0 	mov	x0, x19
/home/xiang/rockpi4-android/optee_os/lib/libutee/arch/arm/tcb.c:196 (discriminator 2)
    3ef8:	91000694 	add	x20, x20, #0x1
/home/xiang/rockpi4-android/optee_os/lib/libutee/arch/arm/tcb.c:202 (discriminator 2)
    3efc:	d63f0300 	blr	x24
    3f00:	2a0003f7 	mov	w23, w0
    3f04:	17ffffd8 	b	3e64 <dl_iterate_phdr+0x4c>

0000000000003f08 <_assert_log>:
_assert_log():
/home/xiang/rockpi4-android/optee_os/lib/libutee/assert.c:17
    3f08:	d10083ff 	sub	sp, sp, #0x20
/home/xiang/rockpi4-android/optee_os/lib/libutee/assert.c:18
    3f0c:	2a0203e7 	mov	w7, w2
    3f10:	aa0103e6 	mov	x6, x1
    3f14:	aa0003e5 	mov	x5, x0
    3f18:	52800022 	mov	w2, #0x1                   	// #1
    3f1c:	52800001 	mov	w1, #0x0                   	// #0
/home/xiang/rockpi4-android/optee_os/lib/libutee/assert.c:17
    3f20:	a9017bfd 	stp	x29, x30, [sp,#16]
    3f24:	910043fd 	add	x29, sp, #0x10
/home/xiang/rockpi4-android/optee_os/lib/libutee/assert.c:18
    3f28:	d2800000 	mov	x0, #0x0                   	// #0
    3f2c:	90000044 	adrp	x4, b000 <small_prime+0x140>
    3f30:	91174084 	add	x4, x4, #0x5d0
    3f34:	f90003e3 	str	x3, [sp]
    3f38:	52800023 	mov	w3, #0x1                   	// #1
    3f3c:	94001a94 	bl	a98c <trace_printf>
/home/xiang/rockpi4-android/optee_os/lib/libutee/assert.c:20
    3f40:	a9417bfd 	ldp	x29, x30, [sp,#16]
    3f44:	910083ff 	add	sp, sp, #0x20
    3f48:	d65f03c0 	ret

0000000000003f4c <_assert_break>:
_assert_break():
/home/xiang/rockpi4-android/optee_os/lib/libutee/assert.c:23
    3f4c:	a9bf7bfd 	stp	x29, x30, [sp,#-16]!
/home/xiang/rockpi4-android/optee_os/lib/libutee/assert.c:24
    3f50:	d2bfffe0 	mov	x0, #0xffff0000            	// #4294901760
/home/xiang/rockpi4-android/optee_os/lib/libutee/assert.c:23
    3f54:	910003fd 	mov	x29, sp
/home/xiang/rockpi4-android/optee_os/lib/libutee/assert.c:24
    3f58:	97fff08a 	bl	180 <_utee_panic>
    3f5c:	14000000 	b	3f5c <_assert_break+0x10>

0000000000003f60 <_base64_enc_len>:
_base64_enc_len():
/home/xiang/rockpi4-android/optee_os/lib/libutee/base64.c:13
    3f60:	91000800 	add	x0, x0, #0x2
    3f64:	d2800061 	mov	x1, #0x3                   	// #3
    3f68:	9ac10800 	udiv	x0, x0, x1
    3f6c:	d37ef400 	lsl	x0, x0, #2
/home/xiang/rockpi4-android/optee_os/lib/libutee/base64.c:14
    3f70:	91000400 	add	x0, x0, #0x1
    3f74:	d65f03c0 	ret

0000000000003f78 <_base64_enc>:
_base64_enc():
/home/xiang/rockpi4-android/optee_os/lib/libutee/base64.c:17
    3f78:	a9bd7bfd 	stp	x29, x30, [sp,#-48]!
    3f7c:	910003fd 	mov	x29, sp
    3f80:	a90153f3 	stp	x19, x20, [sp,#16]
    3f84:	aa0303f4 	mov	x20, x3
    3f88:	a9025bf5 	stp	x21, x22, [sp,#32]
    3f8c:	aa0103f3 	mov	x19, x1
    3f90:	aa0003f6 	mov	x22, x0
    3f94:	aa0203f5 	mov	x21, x2
/home/xiang/rockpi4-android/optee_os/lib/libutee/base64.c:22
    3f98:	aa0103e0 	mov	x0, x1
    3f9c:	97fffff1 	bl	3f60 <_base64_enc_len>
/home/xiang/rockpi4-android/optee_os/lib/libutee/base64.c:23
    3fa0:	f9400281 	ldr	x1, [x20]
    3fa4:	eb01001f 	cmp	x0, x1
    3fa8:	54000208 	b.hi	3fe8 <_base64_enc+0x70>
/home/xiang/rockpi4-android/optee_os/lib/libutee/base64.c:41
    3fac:	f0000021 	adrp	x1, a000 <kprintf.constprop.0+0x540>
    3fb0:	9139e021 	add	x1, x1, #0xe78
/home/xiang/rockpi4-android/optee_os/lib/libutee/base64.c:23
    3fb4:	aa1503e4 	mov	x4, x21
/home/xiang/rockpi4-android/optee_os/lib/libutee/base64.c:48
    3fb8:	aa0103e7 	mov	x7, x1
/home/xiang/rockpi4-android/optee_os/lib/libutee/base64.c:23
    3fbc:	d2800025 	mov	x5, #0x1                   	// #1
/home/xiang/rockpi4-android/optee_os/lib/libutee/base64.c:46
    3fc0:	528007a2 	mov	w2, #0x3d                  	// #61
/home/xiang/rockpi4-android/optee_os/lib/libutee/base64.c:28 (discriminator 1)
    3fc4:	d10004a3 	sub	x3, x5, #0x1
    3fc8:	cb150080 	sub	x0, x4, x21
    3fcc:	eb03027f 	cmp	x19, x3
    3fd0:	54000188 	b.hi	4000 <_base64_enc+0x88>
/home/xiang/rockpi4-android/optee_os/lib/libutee/base64.c:54
    3fd4:	38206abf 	strb	wzr, [x21,x0]
    3fd8:	91000400 	add	x0, x0, #0x1
/home/xiang/rockpi4-android/optee_os/lib/libutee/base64.c:56
    3fdc:	f9000280 	str	x0, [x20]
/home/xiang/rockpi4-android/optee_os/lib/libutee/base64.c:57
    3fe0:	52800020 	mov	w0, #0x1                   	// #1
    3fe4:	14000003 	b	3ff0 <_base64_enc+0x78>
/home/xiang/rockpi4-android/optee_os/lib/libutee/base64.c:24
    3fe8:	f9000280 	str	x0, [x20]
/home/xiang/rockpi4-android/optee_os/lib/libutee/base64.c:25
    3fec:	52800000 	mov	w0, #0x0                   	// #0
/home/xiang/rockpi4-android/optee_os/lib/libutee/base64.c:58
    3ff0:	a94153f3 	ldp	x19, x20, [sp,#16]
    3ff4:	a9425bf5 	ldp	x21, x22, [sp,#32]
    3ff8:	a8c37bfd 	ldp	x29, x30, [sp],#48
    3ffc:	d65f03c0 	ret
    4000:	8b0502c6 	add	x6, x22, x5
/home/xiang/rockpi4-android/optee_os/lib/libutee/base64.c:34
    4004:	eb05027f 	cmp	x19, x5
/home/xiang/rockpi4-android/optee_os/lib/libutee/base64.c:31
    4008:	385ff0c0 	ldurb	w0, [x6,#-1]
/home/xiang/rockpi4-android/optee_os/lib/libutee/base64.c:32
    400c:	53185c00 	lsl	w0, w0, #8
/home/xiang/rockpi4-android/optee_os/lib/libutee/base64.c:34
    4010:	54000069 	b.ls	401c <_base64_enc+0xa4>
/home/xiang/rockpi4-android/optee_os/lib/libutee/base64.c:35
    4014:	38656ac3 	ldrb	w3, [x22,x5]
    4018:	2a030000 	orr	w0, w0, w3
    401c:	910004a3 	add	x3, x5, #0x1
/home/xiang/rockpi4-android/optee_os/lib/libutee/base64.c:36
    4020:	53185c00 	lsl	w0, w0, #8
/home/xiang/rockpi4-android/optee_os/lib/libutee/base64.c:38
    4024:	eb03027f 	cmp	x19, x3
    4028:	54000069 	b.ls	4034 <_base64_enc+0xbc>
/home/xiang/rockpi4-android/optee_os/lib/libutee/base64.c:39
    402c:	394004c6 	ldrb	w6, [x6,#1]
    4030:	2a060000 	orr	w0, w0, w6
/home/xiang/rockpi4-android/optee_os/lib/libutee/base64.c:41
    4034:	53127c06 	lsr	w6, w0, #18
/home/xiang/rockpi4-android/optee_os/lib/libutee/base64.c:43
    4038:	eb05027f 	cmp	x19, x5
/home/xiang/rockpi4-android/optee_os/lib/libutee/base64.c:41
    403c:	38666826 	ldrb	w6, [x1,x6]
    4040:	39000086 	strb	w6, [x4]
/home/xiang/rockpi4-android/optee_os/lib/libutee/base64.c:42
    4044:	d34c4406 	ubfx	x6, x0, #12, #6
    4048:	38666826 	ldrb	w6, [x1,x6]
    404c:	39000486 	strb	w6, [x4,#1]
/home/xiang/rockpi4-android/optee_os/lib/libutee/base64.c:43
    4050:	54000189 	b.ls	4080 <_base64_enc+0x108>
/home/xiang/rockpi4-android/optee_os/lib/libutee/base64.c:44
    4054:	d3462c06 	ubfx	x6, x0, #6, #6
    4058:	38666826 	ldrb	w6, [x1,x6]
    405c:	39000886 	strb	w6, [x4,#2]
/home/xiang/rockpi4-android/optee_os/lib/libutee/base64.c:47
    4060:	eb03027f 	cmp	x19, x3
    4064:	54000129 	b.ls	4088 <_base64_enc+0x110>
/home/xiang/rockpi4-android/optee_os/lib/libutee/base64.c:48
    4068:	92401400 	and	x0, x0, #0x3f
    406c:	386068e0 	ldrb	w0, [x7,x0]
    4070:	39000c80 	strb	w0, [x4,#3]
    4074:	91001084 	add	x4, x4, #0x4
    4078:	91000ca5 	add	x5, x5, #0x3
    407c:	17ffffd2 	b	3fc4 <_base64_enc+0x4c>
/home/xiang/rockpi4-android/optee_os/lib/libutee/base64.c:46
    4080:	39000882 	strb	w2, [x4,#2]
    4084:	17fffff7 	b	4060 <_base64_enc+0xe8>
/home/xiang/rockpi4-android/optee_os/lib/libutee/base64.c:50
    4088:	39000c82 	strb	w2, [x4,#3]
    408c:	17fffffa 	b	4074 <_base64_enc+0xfc>

0000000000004090 <_base64_dec>:
get_idx():
/home/xiang/rockpi4-android/optee_os/lib/libutee/base64.c:64
    4090:	d000002a 	adrp	x10, a000 <kprintf.constprop.0+0x540>
_base64_dec():
/home/xiang/rockpi4-android/optee_os/lib/libutee/base64.c:90
    4094:	d000002b 	adrp	x11, a000 <kprintf.constprop.0+0x540>
get_idx():
/home/xiang/rockpi4-android/optee_os/lib/libutee/base64.c:64
    4098:	9139e14a 	add	x10, x10, #0xe78
_base64_dec():
/home/xiang/rockpi4-android/optee_os/lib/libutee/base64.c:90
    409c:	9139c16b 	add	x11, x11, #0xe70
/home/xiang/rockpi4-android/optee_os/lib/libutee/base64.c:81
    40a0:	52800006 	mov	w6, #0x0                   	// #0
/home/xiang/rockpi4-android/optee_os/lib/libutee/base64.c:80
    40a4:	d2800008 	mov	x8, #0x0                   	// #0
/home/xiang/rockpi4-android/optee_os/lib/libutee/base64.c:79
    40a8:	d2800004 	mov	x4, #0x0                   	// #0
/home/xiang/rockpi4-android/optee_os/lib/libutee/base64.c:83
    40ac:	d2800009 	mov	x9, #0x0                   	// #0
/home/xiang/rockpi4-android/optee_os/lib/libutee/base64.c:83 (discriminator 1)
    40b0:	eb01013f 	cmp	x9, x1
    40b4:	54000060 	b.eq	40c0 <_base64_dec+0x30>
/home/xiang/rockpi4-android/optee_os/lib/libutee/base64.c:83 (discriminator 3)
    40b8:	38696805 	ldrb	w5, [x0,x9]
    40bc:	35000105 	cbnz	w5, 40dc <_base64_dec+0x4c>
/home/xiang/rockpi4-android/optee_os/lib/libutee/base64.c:124
    40c0:	b40006e4 	cbz	x4, 419c <_base64_dec+0x10c>
/home/xiang/rockpi4-android/optee_os/lib/libutee/base64.c:124 (discriminator 4)
    40c4:	b4000742 	cbz	x2, 41ac <_base64_dec+0x11c>
/home/xiang/rockpi4-android/optee_os/lib/libutee/base64.c:124 (discriminator 5)
    40c8:	f9400060 	ldr	x0, [x3]
    40cc:	eb00009f 	cmp	x4, x0
    40d0:	1a9f87e0 	cset	w0, ls
/home/xiang/rockpi4-android/optee_os/lib/libutee/base64.c:125 (discriminator 10)
    40d4:	f9000064 	str	x4, [x3]
/home/xiang/rockpi4-android/optee_os/lib/libutee/base64.c:128 (discriminator 10)
    40d8:	d65f03c0 	ret
/home/xiang/rockpi4-android/optee_os/lib/libutee/base64.c:84
    40dc:	7100f4bf 	cmp	w5, #0x3d
    40e0:	54ffff00 	b.eq	40c0 <_base64_dec+0x30>
    40e4:	d2800007 	mov	x7, #0x0                   	// #0
get_idx():
/home/xiang/rockpi4-android/optee_os/lib/libutee/base64.c:64
    40e8:	386a68ec 	ldrb	w12, [x7,x10]
    40ec:	3500006c 	cbnz	w12, 40f8 <_base64_dec+0x68>
_base64_dec():
/home/xiang/rockpi4-android/optee_os/lib/libutee/base64.c:83 (discriminator 2)
    40f0:	91000529 	add	x9, x9, #0x1
    40f4:	17ffffef 	b	40b0 <_base64_dec+0x20>
get_idx():
/home/xiang/rockpi4-android/optee_os/lib/libutee/base64.c:65
    40f8:	6b0c00bf 	cmp	w5, w12
    40fc:	540000c1 	b.ne	4114 <_base64_dec+0x84>
/home/xiang/rockpi4-android/optee_os/lib/libutee/base64.c:66
    4100:	12001ce5 	and	w5, w7, #0xff
_base64_dec():
/home/xiang/rockpi4-android/optee_os/lib/libutee/base64.c:90
    4104:	38684968 	ldrb	w8, [x11,w8,uxtw]
    4108:	1000006c 	adr	x12, 4114 <_base64_dec+0x84>
    410c:	8b288988 	add	x8, x12, w8, sxtb #2
    4110:	d61f0100 	br	x8
get_idx():
/home/xiang/rockpi4-android/optee_os/lib/libutee/base64.c:64
    4114:	910004e7 	add	x7, x7, #0x1
    4118:	17fffff4 	b	40e8 <_base64_dec+0x58>
_base64_dec():
/home/xiang/rockpi4-android/optee_os/lib/libutee/base64.c:92
    411c:	531e14a6 	ubfiz	w6, w5, #2, #6
/home/xiang/rockpi4-android/optee_os/lib/libutee/base64.c:93
    4120:	d2800028 	mov	x8, #0x1                   	// #1
/home/xiang/rockpi4-android/optee_os/lib/libutee/base64.c:94
    4124:	17fffff3 	b	40f0 <_base64_dec+0x60>
/home/xiang/rockpi4-android/optee_os/lib/libutee/base64.c:96
    4128:	b40000c2 	cbz	x2, 4140 <_base64_dec+0xb0>
/home/xiang/rockpi4-android/optee_os/lib/libutee/base64.c:96 (discriminator 1)
    412c:	f9400068 	ldr	x8, [x3]
    4130:	eb08009f 	cmp	x4, x8
    4134:	54000062 	b.cs	4140 <_base64_dec+0xb0>
/home/xiang/rockpi4-android/optee_os/lib/libutee/base64.c:97
    4138:	2a4510c5 	orr	w5, w6, w5, lsr #4
    413c:	38246845 	strb	w5, [x2,x4]
/home/xiang/rockpi4-android/optee_os/lib/libutee/base64.c:98
    4140:	91000484 	add	x4, x4, #0x1
/home/xiang/rockpi4-android/optee_os/lib/libutee/base64.c:99
    4144:	531c0ce6 	ubfiz	w6, w7, #4, #4
/home/xiang/rockpi4-android/optee_os/lib/libutee/base64.c:100
    4148:	d2800048 	mov	x8, #0x2                   	// #2
/home/xiang/rockpi4-android/optee_os/lib/libutee/base64.c:101
    414c:	17ffffe9 	b	40f0 <_base64_dec+0x60>
/home/xiang/rockpi4-android/optee_os/lib/libutee/base64.c:103
    4150:	b40000c2 	cbz	x2, 4168 <_base64_dec+0xd8>
/home/xiang/rockpi4-android/optee_os/lib/libutee/base64.c:103 (discriminator 1)
    4154:	f9400068 	ldr	x8, [x3]
    4158:	eb08009f 	cmp	x4, x8
    415c:	54000062 	b.cs	4168 <_base64_dec+0xd8>
/home/xiang/rockpi4-android/optee_os/lib/libutee/base64.c:104
    4160:	2a4508c5 	orr	w5, w6, w5, lsr #2
    4164:	38246845 	strb	w5, [x2,x4]
/home/xiang/rockpi4-android/optee_os/lib/libutee/base64.c:105
    4168:	91000484 	add	x4, x4, #0x1
/home/xiang/rockpi4-android/optee_os/lib/libutee/base64.c:106
    416c:	531a04e6 	ubfiz	w6, w7, #6, #2
/home/xiang/rockpi4-android/optee_os/lib/libutee/base64.c:107
    4170:	d2800068 	mov	x8, #0x3                   	// #3
/home/xiang/rockpi4-android/optee_os/lib/libutee/base64.c:108
    4174:	17ffffdf 	b	40f0 <_base64_dec+0x60>
/home/xiang/rockpi4-android/optee_os/lib/libutee/base64.c:110
    4178:	b40000c2 	cbz	x2, 4190 <_base64_dec+0x100>
/home/xiang/rockpi4-android/optee_os/lib/libutee/base64.c:110 (discriminator 1)
    417c:	f9400067 	ldr	x7, [x3]
    4180:	eb07009f 	cmp	x4, x7
    4184:	54000062 	b.cs	4190 <_base64_dec+0x100>
/home/xiang/rockpi4-android/optee_os/lib/libutee/base64.c:111
    4188:	2a0500c5 	orr	w5, w6, w5
    418c:	38246845 	strb	w5, [x2,x4]
/home/xiang/rockpi4-android/optee_os/lib/libutee/base64.c:112
    4190:	91000484 	add	x4, x4, #0x1
/home/xiang/rockpi4-android/optee_os/lib/libutee/base64.c:113
    4194:	d2800008 	mov	x8, #0x0                   	// #0
/home/xiang/rockpi4-android/optee_os/lib/libutee/base64.c:114
    4198:	17ffffd6 	b	40f0 <_base64_dec+0x60>
/home/xiang/rockpi4-android/optee_os/lib/libutee/base64.c:124 (discriminator 1)
    419c:	f9400060 	ldr	x0, [x3]
    41a0:	b5fff920 	cbnz	x0, 40c4 <_base64_dec+0x34>
/home/xiang/rockpi4-android/optee_os/lib/libutee/base64.c:124
    41a4:	52800020 	mov	w0, #0x1                   	// #1
    41a8:	17ffffcb 	b	40d4 <_base64_dec+0x44>
    41ac:	52800000 	mov	w0, #0x0                   	// #0
    41b0:	17ffffc9 	b	40d4 <_base64_dec+0x44>

00000000000041b4 <mpi_get_digit>:
mpi_get_digit():
/home/xiang/rockpi4-android/optee_os/lib/libmbedtls/mbedtls/library/bignum.c:450
    41b4:	12001c42 	and	w2, w2, #0xff
/home/xiang/rockpi4-android/optee_os/lib/libmbedtls/mbedtls/library/bignum.c:453
    41b8:	5100c043 	sub	w3, w2, #0x30
    41bc:	12001c64 	and	w4, w3, #0xff
    41c0:	7100249f 	cmp	w4, #0x9
    41c4:	54000049 	b.ls	41cc <mpi_get_digit+0x18>
/home/xiang/rockpi4-android/optee_os/lib/libmbedtls/mbedtls/library/bignum.c:451
    41c8:	52801fe3 	mov	w3, #0xff                  	// #255
/home/xiang/rockpi4-android/optee_os/lib/libmbedtls/mbedtls/library/bignum.c:453 (discriminator 1)
    41cc:	b9000003 	str	w3, [x0]
/home/xiang/rockpi4-android/optee_os/lib/libmbedtls/mbedtls/library/bignum.c:454 (discriminator 1)
    41d0:	51010443 	sub	w3, w2, #0x41
    41d4:	12001c63 	and	w3, w3, #0xff
    41d8:	7100147f 	cmp	w3, #0x5
    41dc:	54000068 	b.hi	41e8 <mpi_get_digit+0x34>
    41e0:	5100dc43 	sub	w3, w2, #0x37
    41e4:	b9000003 	str	w3, [x0]
/home/xiang/rockpi4-android/optee_os/lib/libmbedtls/mbedtls/library/bignum.c:455
    41e8:	51018443 	sub	w3, w2, #0x61
    41ec:	12001c63 	and	w3, w3, #0xff
    41f0:	7100147f 	cmp	w3, #0x5
    41f4:	54000068 	b.hi	4200 <mpi_get_digit+0x4c>
/home/xiang/rockpi4-android/optee_os/lib/libmbedtls/mbedtls/library/bignum.c:455 (discriminator 1)
    41f8:	51015c42 	sub	w2, w2, #0x57
    41fc:	b9000002 	str	w2, [x0]
/home/xiang/rockpi4-android/optee_os/lib/libmbedtls/mbedtls/library/bignum.c:457
    4200:	b9400000 	ldr	w0, [x0]
/home/xiang/rockpi4-android/optee_os/lib/libmbedtls/mbedtls/library/bignum.c:460
    4204:	6b01001f 	cmp	w0, w1
/home/xiang/rockpi4-android/optee_os/lib/libmbedtls/mbedtls/library/bignum.c:461
    4208:	128000a0 	mov	w0, #0xfffffffa            	// #-6
    420c:	1a9f2000 	csel	w0, w0, wzr, cs
    4210:	d65f03c0 	ret

0000000000004214 <mpi_mul_hlp>:
mpi_mul_hlp():
/home/xiang/rockpi4-android/optee_os/lib/libmbedtls/mbedtls/library/bignum.c:1459
    4214:	aa0203e4 	mov	x4, x2
    4218:	aa0103e6 	mov	x6, x1
    421c:	aa0003e8 	mov	x8, x0
/home/xiang/rockpi4-android/optee_os/lib/libmbedtls/mbedtls/library/bignum.c:1442
    4220:	52800005 	mov	w5, #0x0                   	// #0
/home/xiang/rockpi4-android/optee_os/lib/libmbedtls/mbedtls/library/bignum.c:1459 (discriminator 1)
    4224:	f1003d1f 	cmp	x8, #0xf
    4228:	54000d68 	b.hi	43d4 <mpi_mul_hlp+0x1c0>
    422c:	d344fc07 	lsr	x7, x0, #4
    4230:	cb071000 	sub	x0, x0, x7, lsl #4
    4234:	d37ae4e7 	lsl	x7, x7, #6
    4238:	8b070026 	add	x6, x1, x7
    423c:	8b070044 	add	x4, x2, x7
/home/xiang/rockpi4-android/optee_os/lib/libmbedtls/mbedtls/library/bignum.c:1474
    4240:	f1001c1f 	cmp	x0, #0x7
    4244:	54000b29 	b.ls	43a8 <mpi_mul_hlp+0x194>
/home/xiang/rockpi4-android/optee_os/lib/libmbedtls/mbedtls/library/bignum.c:1477
    4248:	b8676821 	ldr	w1, [x1,x7]
    424c:	9ba17c61 	umull	x1, w3, w1
    4250:	d360fc28 	lsr	x8, x1, #32
    4254:	0b0100a1 	add	w1, w5, w1
    4258:	6b0100bf 	cmp	w5, w1
    425c:	b8676845 	ldr	w5, [x2,x7]
    4260:	1a889508 	cinc	w8, w8, hi
    4264:	0b050021 	add	w1, w1, w5
    4268:	b8276841 	str	w1, [x2,x7]
    426c:	6b0100bf 	cmp	w5, w1
    4270:	b94004c1 	ldr	w1, [x6,#4]
    4274:	1a889508 	cinc	w8, w8, hi
    4278:	b9400482 	ldr	w2, [x4,#4]
    427c:	9ba17c61 	umull	x1, w3, w1
    4280:	d360fc25 	lsr	x5, x1, #32
    4284:	0b010101 	add	w1, w8, w1
    4288:	6b01011f 	cmp	w8, w1
    428c:	0b020021 	add	w1, w1, w2
    4290:	b9000481 	str	w1, [x4,#4]
    4294:	1a8594a5 	cinc	w5, w5, hi
    4298:	6b01005f 	cmp	w2, w1
/home/xiang/rockpi4-android/optee_os/lib/libmbedtls/mbedtls/library/bignum.c:1478
    429c:	b94008c1 	ldr	w1, [x6,#8]
/home/xiang/rockpi4-android/optee_os/lib/libmbedtls/mbedtls/library/bignum.c:1477
    42a0:	1a8594a5 	cinc	w5, w5, hi
/home/xiang/rockpi4-android/optee_os/lib/libmbedtls/mbedtls/library/bignum.c:1478
    42a4:	9ba17c61 	umull	x1, w3, w1
    42a8:	d360fc22 	lsr	x2, x1, #32
    42ac:	0b0100a1 	add	w1, w5, w1
    42b0:	6b0100bf 	cmp	w5, w1
    42b4:	b9400885 	ldr	w5, [x4,#8]
    42b8:	1a829442 	cinc	w2, w2, hi
    42bc:	0b050021 	add	w1, w1, w5
    42c0:	b9000881 	str	w1, [x4,#8]
    42c4:	6b0100bf 	cmp	w5, w1
    42c8:	b9400cc1 	ldr	w1, [x6,#12]
    42cc:	1a829442 	cinc	w2, w2, hi
    42d0:	9ba17c61 	umull	x1, w3, w1
    42d4:	d360fc25 	lsr	x5, x1, #32
    42d8:	0b010041 	add	w1, w2, w1
    42dc:	6b01005f 	cmp	w2, w1
    42e0:	b9400c82 	ldr	w2, [x4,#12]
    42e4:	1a8594a5 	cinc	w5, w5, hi
    42e8:	0b020021 	add	w1, w1, w2
    42ec:	b9000c81 	str	w1, [x4,#12]
    42f0:	6b01005f 	cmp	w2, w1
/home/xiang/rockpi4-android/optee_os/lib/libmbedtls/mbedtls/library/bignum.c:1480
    42f4:	b94010c1 	ldr	w1, [x6,#16]
/home/xiang/rockpi4-android/optee_os/lib/libmbedtls/mbedtls/library/bignum.c:1478
    42f8:	1a8594a5 	cinc	w5, w5, hi
/home/xiang/rockpi4-android/optee_os/lib/libmbedtls/mbedtls/library/bignum.c:1480
    42fc:	9ba17c61 	umull	x1, w3, w1
    4300:	d360fc22 	lsr	x2, x1, #32
    4304:	0b0100a1 	add	w1, w5, w1
    4308:	6b0100bf 	cmp	w5, w1
    430c:	b9401085 	ldr	w5, [x4,#16]
    4310:	1a829442 	cinc	w2, w2, hi
    4314:	0b050021 	add	w1, w1, w5
    4318:	b9001081 	str	w1, [x4,#16]
    431c:	6b0100bf 	cmp	w5, w1
    4320:	b94014c1 	ldr	w1, [x6,#20]
    4324:	1a829442 	cinc	w2, w2, hi
    4328:	9ba17c61 	umull	x1, w3, w1
    432c:	d360fc25 	lsr	x5, x1, #32
    4330:	0b010041 	add	w1, w2, w1
    4334:	6b01005f 	cmp	w2, w1
    4338:	b9401482 	ldr	w2, [x4,#20]
    433c:	1a8594a5 	cinc	w5, w5, hi
    4340:	0b020021 	add	w1, w1, w2
    4344:	b9001481 	str	w1, [x4,#20]
    4348:	6b01005f 	cmp	w2, w1
/home/xiang/rockpi4-android/optee_os/lib/libmbedtls/mbedtls/library/bignum.c:1481
    434c:	b94018c1 	ldr	w1, [x6,#24]
/home/xiang/rockpi4-android/optee_os/lib/libmbedtls/mbedtls/library/bignum.c:1480
    4350:	1a8594a5 	cinc	w5, w5, hi
/home/xiang/rockpi4-android/optee_os/lib/libmbedtls/mbedtls/library/bignum.c:1481
    4354:	9ba17c61 	umull	x1, w3, w1
    4358:	d360fc22 	lsr	x2, x1, #32
    435c:	0b0100a1 	add	w1, w5, w1
    4360:	6b0100bf 	cmp	w5, w1
    4364:	b9401885 	ldr	w5, [x4,#24]
    4368:	1a829442 	cinc	w2, w2, hi
    436c:	0b050021 	add	w1, w1, w5
    4370:	b9001881 	str	w1, [x4,#24]
    4374:	6b0100bf 	cmp	w5, w1
    4378:	b9401cc1 	ldr	w1, [x6,#28]
    437c:	1a829442 	cinc	w2, w2, hi
    4380:	9ba17c61 	umull	x1, w3, w1
    4384:	d360fc25 	lsr	x5, x1, #32
    4388:	0b010041 	add	w1, w2, w1
    438c:	6b01005f 	cmp	w2, w1
    4390:	b9401c82 	ldr	w2, [x4,#28]
    4394:	1a8594a5 	cinc	w5, w5, hi
    4398:	0b020021 	add	w1, w1, w2
    439c:	b9001c81 	str	w1, [x4,#28]
    43a0:	6b01005f 	cmp	w2, w1
    43a4:	1a8594a5 	cinc	w5, w5, hi
    43a8:	d343fc01 	lsr	x1, x0, #3
    43ac:	cb010c00 	sub	x0, x0, x1, lsl #3
    43b0:	d37be821 	lsl	x1, x1, #5
    43b4:	8b0100c6 	add	x6, x6, x1
    43b8:	8b010084 	add	x4, x4, x1
/home/xiang/rockpi4-android/optee_os/lib/libmbedtls/mbedtls/library/bignum.c:1442
    43bc:	d2800001 	mov	x1, #0x0                   	// #0
/home/xiang/rockpi4-android/optee_os/lib/libmbedtls/mbedtls/library/bignum.c:1485 (discriminator 1)
    43c0:	eb00003f 	cmp	x1, x0
    43c4:	54001701 	b.ne	46a4 <mpi_mul_hlp+0x490>
    43c8:	8b010884 	add	x4, x4, x1, lsl #2
/home/xiang/rockpi4-android/optee_os/lib/libmbedtls/mbedtls/library/bignum.c:1495
    43cc:	35001865 	cbnz	w5, 46d8 <mpi_mul_hlp+0x4c4>
/home/xiang/rockpi4-android/optee_os/lib/libmbedtls/mbedtls/library/bignum.c:1499
    43d0:	d65f03c0 	ret
/home/xiang/rockpi4-android/optee_os/lib/libmbedtls/mbedtls/library/bignum.c:1462 (discriminator 2)
    43d4:	b94000c7 	ldr	w7, [x6]
    43d8:	910100c6 	add	x6, x6, #0x40
    43dc:	b940008a 	ldr	w10, [x4]
    43e0:	91010084 	add	x4, x4, #0x40
/home/xiang/rockpi4-android/optee_os/lib/libmbedtls/mbedtls/library/bignum.c:1459 (discriminator 2)
    43e4:	d1004108 	sub	x8, x8, #0x10
/home/xiang/rockpi4-android/optee_os/lib/libmbedtls/mbedtls/library/bignum.c:1462 (discriminator 2)
    43e8:	9ba77c67 	umull	x7, w3, w7
    43ec:	d360fce9 	lsr	x9, x7, #32
    43f0:	0b0700a7 	add	w7, w5, w7
    43f4:	6b0700bf 	cmp	w5, w7
    43f8:	0b0a00e5 	add	w5, w7, w10
    43fc:	b81c0085 	stur	w5, [x4,#-64]
    4400:	1a899529 	cinc	w9, w9, hi
    4404:	6b05015f 	cmp	w10, w5
    4408:	b85c40c5 	ldur	w5, [x6,#-60]
    440c:	1a899529 	cinc	w9, w9, hi
    4410:	9ba57c65 	umull	x5, w3, w5
    4414:	d360fca7 	lsr	x7, x5, #32
    4418:	0b050125 	add	w5, w9, w5
    441c:	6b05013f 	cmp	w9, w5
    4420:	b85c4089 	ldur	w9, [x4,#-60]
    4424:	1a8794e7 	cinc	w7, w7, hi
    4428:	0b0900a5 	add	w5, w5, w9
    442c:	b81c4085 	stur	w5, [x4,#-60]
    4430:	6b05013f 	cmp	w9, w5
/home/xiang/rockpi4-android/optee_os/lib/libmbedtls/mbedtls/library/bignum.c:1463 (discriminator 2)
    4434:	b85c80c5 	ldur	w5, [x6,#-56]
/home/xiang/rockpi4-android/optee_os/lib/libmbedtls/mbedtls/library/bignum.c:1462 (discriminator 2)
    4438:	1a8794e7 	cinc	w7, w7, hi
/home/xiang/rockpi4-android/optee_os/lib/libmbedtls/mbedtls/library/bignum.c:1463 (discriminator 2)
    443c:	9ba57c65 	umull	x5, w3, w5
    4440:	d360fca9 	lsr	x9, x5, #32
    4444:	0b0500e5 	add	w5, w7, w5
    4448:	6b0500ff 	cmp	w7, w5
    444c:	b85c8087 	ldur	w7, [x4,#-56]
    4450:	1a899529 	cinc	w9, w9, hi
    4454:	0b0700a5 	add	w5, w5, w7
    4458:	b81c8085 	stur	w5, [x4,#-56]
    445c:	6b0500ff 	cmp	w7, w5
    4460:	b85cc0c5 	ldur	w5, [x6,#-52]
    4464:	1a899529 	cinc	w9, w9, hi
    4468:	9ba57c65 	umull	x5, w3, w5
    446c:	d360fca7 	lsr	x7, x5, #32
    4470:	0b050125 	add	w5, w9, w5
    4474:	6b05013f 	cmp	w9, w5
    4478:	b85cc089 	ldur	w9, [x4,#-52]
    447c:	1a8794e7 	cinc	w7, w7, hi
    4480:	0b0900a5 	add	w5, w5, w9
    4484:	b81cc085 	stur	w5, [x4,#-52]
    4488:	6b05013f 	cmp	w9, w5
/home/xiang/rockpi4-android/optee_os/lib/libmbedtls/mbedtls/library/bignum.c:1464 (discriminator 2)
    448c:	b85d00c5 	ldur	w5, [x6,#-48]
/home/xiang/rockpi4-android/optee_os/lib/libmbedtls/mbedtls/library/bignum.c:1463 (discriminator 2)
    4490:	1a8794e7 	cinc	w7, w7, hi
/home/xiang/rockpi4-android/optee_os/lib/libmbedtls/mbedtls/library/bignum.c:1464 (discriminator 2)
    4494:	9ba57c65 	umull	x5, w3, w5
    4498:	d360fca9 	lsr	x9, x5, #32
    449c:	0b0500e5 	add	w5, w7, w5
    44a0:	6b0500ff 	cmp	w7, w5
    44a4:	b85d0087 	ldur	w7, [x4,#-48]
    44a8:	1a899529 	cinc	w9, w9, hi
    44ac:	0b0700a5 	add	w5, w5, w7
    44b0:	b81d0085 	stur	w5, [x4,#-48]
    44b4:	6b0500ff 	cmp	w7, w5
    44b8:	b85d40c5 	ldur	w5, [x6,#-44]
    44bc:	1a899529 	cinc	w9, w9, hi
    44c0:	9ba57c65 	umull	x5, w3, w5
    44c4:	d360fca7 	lsr	x7, x5, #32
    44c8:	0b050125 	add	w5, w9, w5
    44cc:	6b05013f 	cmp	w9, w5
    44d0:	b85d4089 	ldur	w9, [x4,#-44]
    44d4:	1a8794e7 	cinc	w7, w7, hi
    44d8:	0b0900a5 	add	w5, w5, w9
    44dc:	b81d4085 	stur	w5, [x4,#-44]
    44e0:	6b05013f 	cmp	w9, w5
/home/xiang/rockpi4-android/optee_os/lib/libmbedtls/mbedtls/library/bignum.c:1465 (discriminator 2)
    44e4:	b85d80c5 	ldur	w5, [x6,#-40]
/home/xiang/rockpi4-android/optee_os/lib/libmbedtls/mbedtls/library/bignum.c:1464 (discriminator 2)
    44e8:	1a8794e7 	cinc	w7, w7, hi
/home/xiang/rockpi4-android/optee_os/lib/libmbedtls/mbedtls/library/bignum.c:1465 (discriminator 2)
    44ec:	9ba57c65 	umull	x5, w3, w5
    44f0:	d360fca9 	lsr	x9, x5, #32
    44f4:	0b0500e5 	add	w5, w7, w5
    44f8:	6b0500ff 	cmp	w7, w5
    44fc:	b85d8087 	ldur	w7, [x4,#-40]
    4500:	1a899529 	cinc	w9, w9, hi
    4504:	0b0700a5 	add	w5, w5, w7
    4508:	b81d8085 	stur	w5, [x4,#-40]
    450c:	6b0500ff 	cmp	w7, w5
    4510:	b85dc0c5 	ldur	w5, [x6,#-36]
    4514:	1a899529 	cinc	w9, w9, hi
    4518:	9ba57c65 	umull	x5, w3, w5
    451c:	d360fca7 	lsr	x7, x5, #32
    4520:	0b050125 	add	w5, w9, w5
    4524:	6b05013f 	cmp	w9, w5
    4528:	b85dc089 	ldur	w9, [x4,#-36]
    452c:	1a8794e7 	cinc	w7, w7, hi
    4530:	0b0900a5 	add	w5, w5, w9
    4534:	b81dc085 	stur	w5, [x4,#-36]
    4538:	6b05013f 	cmp	w9, w5
/home/xiang/rockpi4-android/optee_os/lib/libmbedtls/mbedtls/library/bignum.c:1467 (discriminator 2)
    453c:	b85e00c5 	ldur	w5, [x6,#-32]
/home/xiang/rockpi4-android/optee_os/lib/libmbedtls/mbedtls/library/bignum.c:1465 (discriminator 2)
    4540:	1a8794e7 	cinc	w7, w7, hi
/home/xiang/rockpi4-android/optee_os/lib/libmbedtls/mbedtls/library/bignum.c:1467 (discriminator 2)
    4544:	9ba57c65 	umull	x5, w3, w5
    4548:	d360fca9 	lsr	x9, x5, #32
    454c:	0b0500e5 	add	w5, w7, w5
    4550:	6b0500ff 	cmp	w7, w5
    4554:	b85e0087 	ldur	w7, [x4,#-32]
    4558:	1a899529 	cinc	w9, w9, hi
    455c:	0b0700a5 	add	w5, w5, w7
    4560:	b81e0085 	stur	w5, [x4,#-32]
    4564:	6b0500ff 	cmp	w7, w5
    4568:	b85e40c5 	ldur	w5, [x6,#-28]
    456c:	1a899529 	cinc	w9, w9, hi
    4570:	9ba57c65 	umull	x5, w3, w5
    4574:	d360fca7 	lsr	x7, x5, #32
    4578:	0b050125 	add	w5, w9, w5
    457c:	6b05013f 	cmp	w9, w5
    4580:	b85e4089 	ldur	w9, [x4,#-28]
    4584:	1a8794e7 	cinc	w7, w7, hi
    4588:	0b0900a5 	add	w5, w5, w9
    458c:	b81e4085 	stur	w5, [x4,#-28]
    4590:	6b05013f 	cmp	w9, w5
/home/xiang/rockpi4-android/optee_os/lib/libmbedtls/mbedtls/library/bignum.c:1468 (discriminator 2)
    4594:	b85e80c5 	ldur	w5, [x6,#-24]
/home/xiang/rockpi4-android/optee_os/lib/libmbedtls/mbedtls/library/bignum.c:1467 (discriminator 2)
    4598:	1a8794e7 	cinc	w7, w7, hi
/home/xiang/rockpi4-android/optee_os/lib/libmbedtls/mbedtls/library/bignum.c:1468 (discriminator 2)
    459c:	9ba57c65 	umull	x5, w3, w5
    45a0:	d360fca9 	lsr	x9, x5, #32
    45a4:	0b0500e5 	add	w5, w7, w5
    45a8:	6b0500ff 	cmp	w7, w5
    45ac:	b85e8087 	ldur	w7, [x4,#-24]
    45b0:	1a899529 	cinc	w9, w9, hi
    45b4:	0b0700a5 	add	w5, w5, w7
    45b8:	b81e8085 	stur	w5, [x4,#-24]
    45bc:	6b0500ff 	cmp	w7, w5
    45c0:	b85ec0c5 	ldur	w5, [x6,#-20]
    45c4:	1a899529 	cinc	w9, w9, hi
    45c8:	9ba57c65 	umull	x5, w3, w5
    45cc:	d360fca7 	lsr	x7, x5, #32
    45d0:	0b050125 	add	w5, w9, w5
    45d4:	6b05013f 	cmp	w9, w5
    45d8:	b85ec089 	ldur	w9, [x4,#-20]
    45dc:	1a8794e7 	cinc	w7, w7, hi
    45e0:	0b0900a5 	add	w5, w5, w9
    45e4:	b81ec085 	stur	w5, [x4,#-20]
    45e8:	6b05013f 	cmp	w9, w5
/home/xiang/rockpi4-android/optee_os/lib/libmbedtls/mbedtls/library/bignum.c:1469 (discriminator 2)
    45ec:	b85f00c5 	ldur	w5, [x6,#-16]
/home/xiang/rockpi4-android/optee_os/lib/libmbedtls/mbedtls/library/bignum.c:1468 (discriminator 2)
    45f0:	1a8794e7 	cinc	w7, w7, hi
/home/xiang/rockpi4-android/optee_os/lib/libmbedtls/mbedtls/library/bignum.c:1469 (discriminator 2)
    45f4:	9ba57c65 	umull	x5, w3, w5
    45f8:	d360fca9 	lsr	x9, x5, #32
    45fc:	0b0500e5 	add	w5, w7, w5
    4600:	6b0500ff 	cmp	w7, w5
    4604:	b85f0087 	ldur	w7, [x4,#-16]
    4608:	1a899529 	cinc	w9, w9, hi
    460c:	0b0700a5 	add	w5, w5, w7
    4610:	b81f0085 	stur	w5, [x4,#-16]
    4614:	6b0500ff 	cmp	w7, w5
    4618:	b85f40c5 	ldur	w5, [x6,#-12]
    461c:	1a899529 	cinc	w9, w9, hi
    4620:	9ba57c65 	umull	x5, w3, w5
    4624:	d360fca7 	lsr	x7, x5, #32
    4628:	0b050125 	add	w5, w9, w5
    462c:	6b05013f 	cmp	w9, w5
    4630:	b85f4089 	ldur	w9, [x4,#-12]
    4634:	1a8794e7 	cinc	w7, w7, hi
    4638:	0b0900a5 	add	w5, w5, w9
    463c:	b81f4085 	stur	w5, [x4,#-12]
    4640:	6b05013f 	cmp	w9, w5
/home/xiang/rockpi4-android/optee_os/lib/libmbedtls/mbedtls/library/bignum.c:1470 (discriminator 2)
    4644:	b85f80c5 	ldur	w5, [x6,#-8]
/home/xiang/rockpi4-android/optee_os/lib/libmbedtls/mbedtls/library/bignum.c:1469 (discriminator 2)
    4648:	1a8794e7 	cinc	w7, w7, hi
/home/xiang/rockpi4-android/optee_os/lib/libmbedtls/mbedtls/library/bignum.c:1470 (discriminator 2)
    464c:	9ba57c65 	umull	x5, w3, w5
    4650:	d360fca9 	lsr	x9, x5, #32
    4654:	0b0500e5 	add	w5, w7, w5
    4658:	6b0500ff 	cmp	w7, w5
    465c:	b85f8087 	ldur	w7, [x4,#-8]
    4660:	1a899529 	cinc	w9, w9, hi
    4664:	0b0700a5 	add	w5, w5, w7
    4668:	b81f8085 	stur	w5, [x4,#-8]
    466c:	6b0500ff 	cmp	w7, w5
    4670:	b85fc0c7 	ldur	w7, [x6,#-4]
    4674:	1a899529 	cinc	w9, w9, hi
    4678:	9ba77c67 	umull	x7, w3, w7
    467c:	d360fce5 	lsr	x5, x7, #32
    4680:	0b070127 	add	w7, w9, w7
    4684:	6b07013f 	cmp	w9, w7
    4688:	b85fc089 	ldur	w9, [x4,#-4]
    468c:	1a8594a5 	cinc	w5, w5, hi
    4690:	0b0900e7 	add	w7, w7, w9
    4694:	b81fc087 	stur	w7, [x4,#-4]
    4698:	6b07013f 	cmp	w9, w7
    469c:	1a8594a5 	cinc	w5, w5, hi
    46a0:	17fffee1 	b	4224 <mpi_mul_hlp+0x10>
/home/xiang/rockpi4-android/optee_os/lib/libmbedtls/mbedtls/library/bignum.c:1488 (discriminator 2)
    46a4:	b86178c2 	ldr	w2, [x6,x1,lsl #2]
    46a8:	9ba27c62 	umull	x2, w3, w2
    46ac:	d360fc47 	lsr	x7, x2, #32
    46b0:	0b0200a2 	add	w2, w5, w2
    46b4:	6b0200bf 	cmp	w5, w2
    46b8:	1a8794e5 	cinc	w5, w7, hi
    46bc:	b8617887 	ldr	w7, [x4,x1,lsl #2]
    46c0:	0b070042 	add	w2, w2, w7
    46c4:	b8217882 	str	w2, [x4,x1,lsl #2]
    46c8:	6b0200ff 	cmp	w7, w2
    46cc:	91000421 	add	x1, x1, #0x1
    46d0:	1a8594a5 	cinc	w5, w5, hi
    46d4:	17ffff3b 	b	43c0 <mpi_mul_hlp+0x1ac>
/home/xiang/rockpi4-android/optee_os/lib/libmbedtls/mbedtls/library/bignum.c:1497
    46d8:	b9400080 	ldr	w0, [x4]
    46dc:	0b0000a0 	add	w0, w5, w0
    46e0:	b8004480 	str	w0, [x4],#4
    46e4:	6b0000bf 	cmp	w5, w0
    46e8:	1a9f97e5 	cset	w5, hi
    46ec:	17ffff38 	b	43cc <mpi_mul_hlp+0x1b8>

00000000000046f0 <mpi_montg_init.isra.1>:
mpi_montg_init():
/home/xiang/rockpi4-android/optee_os/lib/libmbedtls/mbedtls/library/bignum.c:1924
    46f0:	b9400023 	ldr	w3, [x1]
/home/xiang/rockpi4-android/optee_os/lib/libmbedtls/mbedtls/library/bignum.c:1928
    46f4:	52800062 	mov	w2, #0x3                   	// #3
/home/xiang/rockpi4-android/optee_os/lib/libmbedtls/mbedtls/library/bignum.c:1931
    46f8:	52800045 	mov	w5, #0x2                   	// #2
/home/xiang/rockpi4-android/optee_os/lib/libmbedtls/mbedtls/library/bignum.c:1928
    46fc:	11000861 	add	w1, w3, #0x2
    4700:	531f7821 	lsl	w1, w1, #1
    4704:	121d0021 	and	w1, w1, #0x8
    4708:	0b030021 	add	w1, w1, w3
/home/xiang/rockpi4-android/optee_os/lib/libmbedtls/mbedtls/library/bignum.c:1931
    470c:	1b019464 	msub	w4, w3, w1, w5
/home/xiang/rockpi4-android/optee_os/lib/libmbedtls/mbedtls/library/bignum.c:1930
    4710:	71000442 	subs	w2, w2, #0x1
/home/xiang/rockpi4-android/optee_os/lib/libmbedtls/mbedtls/library/bignum.c:1931
    4714:	1b047c21 	mul	w1, w1, w4
/home/xiang/rockpi4-android/optee_os/lib/libmbedtls/mbedtls/library/bignum.c:1930
    4718:	54ffffa1 	b.ne	470c <mpi_montg_init.isra.1+0x1c>
/home/xiang/rockpi4-android/optee_os/lib/libmbedtls/mbedtls/library/bignum.c:1933
    471c:	4b0103e1 	neg	w1, w1
    4720:	b9000001 	str	w1, [x0]
    4724:	d65f03c0 	ret

0000000000004728 <mpi_bigendian_to_host.part.0>:
mpi_bigendian_to_host():
/home/xiang/rockpi4-android/optee_os/lib/libmbedtls/mbedtls/library/bignum.c:820
    4728:	8b010801 	add	x1, x0, x1, lsl #2
/home/xiang/rockpi4-android/optee_os/lib/libmbedtls/mbedtls/library/bignum.c:804
    472c:	d10043ff 	sub	sp, sp, #0x10
/home/xiang/rockpi4-android/optee_os/lib/libmbedtls/mbedtls/library/bignum.c:820
    4730:	d1001021 	sub	x1, x1, #0x4
    4734:	eb01001f 	cmp	x0, x1
    4738:	54000069 	b.ls	4744 <mpi_bigendian_to_host.part.0+0x1c>
/home/xiang/rockpi4-android/optee_os/lib/libmbedtls/mbedtls/library/bignum.c:831
    473c:	910043ff 	add	sp, sp, #0x10
    4740:	d65f03c0 	ret
    4744:	b9400003 	ldr	w3, [x0]
mpi_uint_bigendian_to_host_c():
/home/xiang/rockpi4-android/optee_os/lib/libmbedtls/mbedtls/library/bignum.c:754
    4748:	53181c64 	ubfiz	w4, w3, #8, #8
/home/xiang/rockpi4-android/optee_os/lib/libmbedtls/mbedtls/library/bignum.c:755
    474c:	d3483c62 	ubfx	x2, x3, #8, #8
    4750:	2a040042 	orr	w2, w2, w4
    4754:	d3505c64 	ubfx	x4, x3, #16, #8
    4758:	2a022082 	orr	w2, w4, w2, lsl #8
    475c:	b9400024 	ldr	w4, [x1]
    4760:	13836042 	extr	w2, w2, w3, #24
/home/xiang/rockpi4-android/optee_os/lib/libmbedtls/mbedtls/library/bignum.c:754
    4764:	53181c85 	ubfiz	w5, w4, #8, #8
/home/xiang/rockpi4-android/optee_os/lib/libmbedtls/mbedtls/library/bignum.c:755
    4768:	d3483c83 	ubfx	x3, x4, #8, #8
    476c:	2a050063 	orr	w3, w3, w5
    4770:	d3505c85 	ubfx	x5, x4, #16, #8
    4774:	2a0320a3 	orr	w3, w5, w3, lsl #8
    4778:	13846063 	extr	w3, w3, w4, #24
mpi_bigendian_to_host():
/home/xiang/rockpi4-android/optee_os/lib/libmbedtls/mbedtls/library/bignum.c:828
    477c:	b8004403 	str	w3, [x0],#4
/home/xiang/rockpi4-android/optee_os/lib/libmbedtls/mbedtls/library/bignum.c:829
    4780:	b81fc422 	str	w2, [x1],#-4
    4784:	17ffffec 	b	4734 <mpi_bigendian_to_host.part.0+0xc>

0000000000004788 <mpi_fill_random_internal>:
mpi_fill_random_internal():
/home/xiang/rockpi4-android/optee_os/lib/libmbedtls/mbedtls/library/bignum.c:2442
    4788:	a9bb7bfd 	stp	x29, x30, [sp,#-80]!
/home/xiang/rockpi4-android/optee_os/lib/libmbedtls/mbedtls/library/bignum.c:2444
    478c:	f240043f 	tst	x1, #0x3
/home/xiang/rockpi4-android/optee_os/lib/libmbedtls/mbedtls/library/bignum.c:2442
    4790:	910003fd 	mov	x29, sp
    4794:	a90153f3 	stp	x19, x20, [sp,#16]
/home/xiang/rockpi4-android/optee_os/lib/libmbedtls/mbedtls/library/bignum.c:2444
    4798:	d342fc34 	lsr	x20, x1, #2
    479c:	9a940694 	cinc	x20, x20, ne
/home/xiang/rockpi4-android/optee_os/lib/libmbedtls/mbedtls/library/bignum.c:2447
    47a0:	f9400404 	ldr	x4, [x0,#8]
/home/xiang/rockpi4-android/optee_os/lib/libmbedtls/mbedtls/library/bignum.c:2442
    47a4:	a90363f7 	stp	x23, x24, [sp,#48]
    47a8:	f90023f9 	str	x25, [sp,#64]
/home/xiang/rockpi4-android/optee_os/lib/libmbedtls/mbedtls/library/bignum.c:2445
    47ac:	d37ef699 	lsl	x25, x20, #2
/home/xiang/rockpi4-android/optee_os/lib/libmbedtls/mbedtls/library/bignum.c:2442
    47b0:	a9025bf5 	stp	x21, x22, [sp,#32]
/home/xiang/rockpi4-android/optee_os/lib/libmbedtls/mbedtls/library/bignum.c:2447
    47b4:	eb04029f 	cmp	x20, x4
/home/xiang/rockpi4-android/optee_os/lib/libmbedtls/mbedtls/library/bignum.c:2445
    47b8:	cb010338 	sub	x24, x25, x1
/home/xiang/rockpi4-android/optee_os/lib/libmbedtls/mbedtls/library/bignum.c:2447
    47bc:	54000428 	b.hi	4840 <mpi_fill_random_internal+0xb8>
    47c0:	aa0003f3 	mov	x19, x0
/home/xiang/rockpi4-android/optee_os/lib/libmbedtls/mbedtls/library/bignum.c:2450
    47c4:	f9400800 	ldr	x0, [x0,#16]
    47c8:	aa0303f7 	mov	x23, x3
    47cc:	aa0103f5 	mov	x21, x1
    47d0:	aa0203f6 	mov	x22, x2
    47d4:	52800001 	mov	w1, #0x0                   	// #0
    47d8:	aa1803e2 	mov	x2, x24
    47dc:	9400144a 	bl	9904 <memset>
/home/xiang/rockpi4-android/optee_os/lib/libmbedtls/mbedtls/library/bignum.c:2451
    47e0:	a9408262 	ldp	x2, x0, [x19,#8]
    47e4:	52800001 	mov	w1, #0x0                   	// #0
    47e8:	cb140042 	sub	x2, x2, x20
    47ec:	8b190000 	add	x0, x0, x25
    47f0:	d37ef442 	lsl	x2, x2, #2
    47f4:	94001444 	bl	9904 <memset>
/home/xiang/rockpi4-android/optee_os/lib/libmbedtls/mbedtls/library/bignum.c:2452
    47f8:	f9400a61 	ldr	x1, [x19,#16]
    47fc:	aa1503e2 	mov	x2, x21
    4800:	aa1703e0 	mov	x0, x23
    4804:	8b180021 	add	x1, x1, x24
    4808:	d63f02c0 	blr	x22
    480c:	2a0003f5 	mov	w21, w0
    4810:	350000a0 	cbnz	w0, 4824 <mpi_fill_random_internal+0x9c>
mpi_bigendian_to_host():
/home/xiang/rockpi4-android/optee_os/lib/libmbedtls/mbedtls/library/bignum.c:808
    4814:	b4000094 	cbz	x20, 4824 <mpi_fill_random_internal+0x9c>
    4818:	f9400a60 	ldr	x0, [x19,#16]
    481c:	aa1403e1 	mov	x1, x20
    4820:	97ffffc2 	bl	4728 <mpi_bigendian_to_host.part.0>
mpi_fill_random_internal():
/home/xiang/rockpi4-android/optee_os/lib/libmbedtls/mbedtls/library/bignum.c:2457
    4824:	2a1503e0 	mov	w0, w21
    4828:	f94023f9 	ldr	x25, [sp,#64]
    482c:	a94153f3 	ldp	x19, x20, [sp,#16]
    4830:	a9425bf5 	ldp	x21, x22, [sp,#32]
    4834:	a94363f7 	ldp	x23, x24, [sp,#48]
    4838:	a8c57bfd 	ldp	x29, x30, [sp],#80
    483c:	d65f03c0 	ret
/home/xiang/rockpi4-android/optee_os/lib/libmbedtls/mbedtls/library/bignum.c:2448
    4840:	12800075 	mov	w21, #0xfffffffc            	// #-4
    4844:	17fffff8 	b	4824 <mpi_fill_random_internal+0x9c>

0000000000004848 <mpi_montmul.isra.2>:
mpi_montmul():
/home/xiang/rockpi4-android/optee_os/lib/libmbedtls/mbedtls/library/bignum.c:1963
    4848:	a9b97bfd 	stp	x29, x30, [sp,#-112]!
    484c:	910003fd 	mov	x29, sp
    4850:	a9025bf5 	stp	x21, x22, [sp,#32]
    4854:	aa0003f6 	mov	x22, x0
    4858:	a90363f7 	stp	x23, x24, [sp,#48]
    485c:	aa0203f7 	mov	x23, x2
/home/xiang/rockpi4-android/optee_os/lib/libmbedtls/mbedtls/library/bignum.c:1969
    4860:	a9408082 	ldp	x2, x0, [x4,#8]
/home/xiang/rockpi4-android/optee_os/lib/libmbedtls/mbedtls/library/bignum.c:1963
    4864:	a90153f3 	stp	x19, x20, [sp,#16]
    4868:	a9046bf9 	stp	x25, x26, [sp,#64]
    486c:	aa0403f3 	mov	x19, x4
    4870:	aa0103f9 	mov	x25, x1
    4874:	a90573fb 	stp	x27, x28, [sp,#80]
    4878:	2a0303f8 	mov	w24, w3
/home/xiang/rockpi4-android/optee_os/lib/libmbedtls/mbedtls/library/bignum.c:1969
    487c:	52800001 	mov	w1, #0x0                   	// #0
    4880:	d37ef442 	lsl	x2, x2, #2
    4884:	94001420 	bl	9904 <memset>
/home/xiang/rockpi4-android/optee_os/lib/libmbedtls/mbedtls/library/bignum.c:1972
    4888:	f94006fa 	ldr	x26, [x23,#8]
/home/xiang/rockpi4-android/optee_os/lib/libmbedtls/mbedtls/library/bignum.c:1975
    488c:	d2800015 	mov	x21, #0x0                   	// #0
/home/xiang/rockpi4-android/optee_os/lib/libmbedtls/mbedtls/library/bignum.c:1973
    4890:	f9400720 	ldr	x0, [x25,#8]
/home/xiang/rockpi4-android/optee_os/lib/libmbedtls/mbedtls/library/bignum.c:1971
    4894:	f9400a73 	ldr	x19, [x19,#16]
/home/xiang/rockpi4-android/optee_os/lib/libmbedtls/mbedtls/library/bignum.c:1986
    4898:	91000754 	add	x20, x26, #0x1
/home/xiang/rockpi4-android/optee_os/lib/libmbedtls/mbedtls/library/bignum.c:1973
    489c:	eb1a001f 	cmp	x0, x26
/home/xiang/rockpi4-android/optee_os/lib/libmbedtls/mbedtls/library/bignum.c:1986
    48a0:	d37ef694 	lsl	x20, x20, #2
/home/xiang/rockpi4-android/optee_os/lib/libmbedtls/mbedtls/library/bignum.c:1971
    48a4:	aa1303fb 	mov	x27, x19
/home/xiang/rockpi4-android/optee_os/lib/libmbedtls/mbedtls/library/bignum.c:1973
    48a8:	9a9a9000 	csel	x0, x0, x26, ls
    48ac:	f90037a0 	str	x0, [x29,#104]
/home/xiang/rockpi4-android/optee_os/lib/libmbedtls/mbedtls/library/bignum.c:1975
    48b0:	eb15035f 	cmp	x26, x21
    48b4:	f94002c0 	ldr	x0, [x22]
    48b8:	54000361 	b.ne	4924 <mpi_montmul.isra.2+0xdc>
    48bc:	d1001294 	sub	x20, x20, #0x4
    48c0:	8b140273 	add	x19, x19, x20
/home/xiang/rockpi4-android/optee_os/lib/libmbedtls/mbedtls/library/bignum.c:1995
    48c4:	aa1403e2 	mov	x2, x20
    48c8:	aa1303e1 	mov	x1, x19
    48cc:	97ffedd5 	bl	20 <memcpy>
/home/xiang/rockpi4-android/optee_os/lib/libmbedtls/mbedtls/library/bignum.c:2000
    48d0:	f9400ae4 	ldr	x4, [x23,#16]
mpi_sub_hlp():
/home/xiang/rockpi4-android/optee_os/lib/libmbedtls/mbedtls/library/bignum.c:1241
    48d4:	52800002 	mov	w2, #0x0                   	// #0
mpi_montmul():
/home/xiang/rockpi4-android/optee_os/lib/libmbedtls/mbedtls/library/bignum.c:1999
    48d8:	b8746a60 	ldr	w0, [x19,x20]
mpi_sub_hlp():
/home/xiang/rockpi4-android/optee_os/lib/libmbedtls/mbedtls/library/bignum.c:1243
    48dc:	d2800001 	mov	x1, #0x0                   	// #0
mpi_montmul():
/home/xiang/rockpi4-android/optee_os/lib/libmbedtls/mbedtls/library/bignum.c:1999
    48e0:	11000400 	add	w0, w0, #0x1
    48e4:	b8346a60 	str	w0, [x19,x20]
mpi_sub_hlp():
/home/xiang/rockpi4-android/optee_os/lib/libmbedtls/mbedtls/library/bignum.c:1243
    48e8:	eb0102bf 	cmp	x21, x1
    48ec:	54000441 	b.ne	4974 <mpi_montmul.isra.2+0x12c>
mpi_montmul():
/home/xiang/rockpi4-android/optee_os/lib/libmbedtls/mbedtls/library/bignum.c:2000
    48f0:	b8746a63 	ldr	w3, [x19,x20]
/home/xiang/rockpi4-android/optee_os/lib/libmbedtls/mbedtls/library/bignum.c:2007
    48f4:	aa1503e0 	mov	x0, x21
/home/xiang/rockpi4-android/optee_os/lib/libmbedtls/mbedtls/library/bignum.c:2008
    48f8:	a94363f7 	ldp	x23, x24, [sp,#48]
/home/xiang/rockpi4-android/optee_os/lib/libmbedtls/mbedtls/library/bignum.c:2000
    48fc:	4b020063 	sub	w3, w3, w2
    4900:	b8346a63 	str	w3, [x19,x20]
/home/xiang/rockpi4-android/optee_os/lib/libmbedtls/mbedtls/library/bignum.c:2007
    4904:	aa1303e2 	mov	x2, x19
/home/xiang/rockpi4-android/optee_os/lib/libmbedtls/mbedtls/library/bignum.c:2008
    4908:	a9446bf9 	ldp	x25, x26, [sp,#64]
    490c:	a94153f3 	ldp	x19, x20, [sp,#16]
    4910:	a94573fb 	ldp	x27, x28, [sp,#80]
/home/xiang/rockpi4-android/optee_os/lib/libmbedtls/mbedtls/library/bignum.c:2007
    4914:	f94002c1 	ldr	x1, [x22]
/home/xiang/rockpi4-android/optee_os/lib/libmbedtls/mbedtls/library/bignum.c:2008
    4918:	a9425bf5 	ldp	x21, x22, [sp,#32]
    491c:	a8c77bfd 	ldp	x29, x30, [sp],#112
/home/xiang/rockpi4-android/optee_os/lib/libmbedtls/mbedtls/library/bignum.c:2007
    4920:	14000e2b 	b	81cc <mbedtls_ct_mpi_uint_cond_assign>
/home/xiang/rockpi4-android/optee_os/lib/libmbedtls/mbedtls/library/bignum.c:1981
    4924:	f9400b21 	ldr	x1, [x25,#16]
/home/xiang/rockpi4-android/optee_os/lib/libmbedtls/mbedtls/library/bignum.c:1983
    4928:	aa1b03e2 	mov	x2, x27
/home/xiang/rockpi4-android/optee_os/lib/libmbedtls/mbedtls/library/bignum.c:1980
    492c:	b875781c 	ldr	w28, [x0,x21,lsl #2]
/home/xiang/rockpi4-android/optee_os/lib/libmbedtls/mbedtls/library/bignum.c:1975
    4930:	910006b5 	add	x21, x21, #0x1
/home/xiang/rockpi4-android/optee_os/lib/libmbedtls/mbedtls/library/bignum.c:1981
    4934:	b9400360 	ldr	w0, [x27]
/home/xiang/rockpi4-android/optee_os/lib/libmbedtls/mbedtls/library/bignum.c:1983
    4938:	2a1c03e3 	mov	w3, w28
/home/xiang/rockpi4-android/optee_os/lib/libmbedtls/mbedtls/library/bignum.c:1981
    493c:	b940002d 	ldr	w13, [x1]
    4940:	1b0d038d 	madd	w13, w28, w13, w0
    4944:	1b187da0 	mul	w0, w13, w24
    4948:	b90067a0 	str	w0, [x29,#100]
/home/xiang/rockpi4-android/optee_os/lib/libmbedtls/mbedtls/library/bignum.c:1983
    494c:	f94037a0 	ldr	x0, [x29,#104]
    4950:	97fffe31 	bl	4214 <mpi_mul_hlp>
/home/xiang/rockpi4-android/optee_os/lib/libmbedtls/mbedtls/library/bignum.c:1984
    4954:	b94067a3 	ldr	w3, [x29,#100]
    4958:	aa1b03e2 	mov	x2, x27
    495c:	f9400ae1 	ldr	x1, [x23,#16]
    4960:	aa1a03e0 	mov	x0, x26
    4964:	97fffe2c 	bl	4214 <mpi_mul_hlp>
/home/xiang/rockpi4-android/optee_os/lib/libmbedtls/mbedtls/library/bignum.c:1986
    4968:	b800477c 	str	w28, [x27],#4
    496c:	b8346b7f 	str	wzr, [x27,x20]
    4970:	17ffffd0 	b	48b0 <mpi_montmul.isra.2+0x68>
mpi_sub_hlp():
/home/xiang/rockpi4-android/optee_os/lib/libmbedtls/mbedtls/library/bignum.c:1245
    4974:	b8617a60 	ldr	w0, [x19,x1,lsl #2]
/home/xiang/rockpi4-android/optee_os/lib/libmbedtls/mbedtls/library/bignum.c:1246
    4978:	b8617883 	ldr	w3, [x4,x1,lsl #2]
/home/xiang/rockpi4-android/optee_os/lib/libmbedtls/mbedtls/library/bignum.c:1245
    497c:	6b02001f 	cmp	w0, w2
    4980:	4b020000 	sub	w0, w0, w2
    4984:	1a9f27e5 	cset	w5, cc
/home/xiang/rockpi4-android/optee_os/lib/libmbedtls/mbedtls/library/bignum.c:1246
    4988:	6b03001f 	cmp	w0, w3
    498c:	1a8524a2 	cinc	w2, w5, cc
    4990:	4b030000 	sub	w0, w0, w3
    4994:	b8217a60 	str	w0, [x19,x1,lsl #2]
/home/xiang/rockpi4-android/optee_os/lib/libmbedtls/mbedtls/library/bignum.c:1243
    4998:	91000421 	add	x1, x1, #0x1
    499c:	17ffffd3 	b	48e8 <mpi_montmul.isra.2+0xa0>

00000000000049a0 <mpi_montred>:
mpi_montred():
/home/xiang/rockpi4-android/optee_os/lib/libmbedtls/mbedtls/library/bignum.c:2023
    49a0:	a9bd7bfd 	stp	x29, x30, [sp,#-48]!
/home/xiang/rockpi4-android/optee_os/lib/libmbedtls/mbedtls/library/bignum.c:2024
    49a4:	52800024 	mov	w4, #0x1                   	// #1
/home/xiang/rockpi4-android/optee_os/lib/libmbedtls/mbedtls/library/bignum.c:2030
    49a8:	91004000 	add	x0, x0, #0x10
/home/xiang/rockpi4-android/optee_os/lib/libmbedtls/mbedtls/library/bignum.c:2023
    49ac:	910003fd 	mov	x29, sp
/home/xiang/rockpi4-android/optee_os/lib/libmbedtls/mbedtls/library/bignum.c:2027
    49b0:	790033a4 	strh	w4, [x29,#24]
/home/xiang/rockpi4-android/optee_os/lib/libmbedtls/mbedtls/library/bignum.c:2024
    49b4:	b90017a4 	str	w4, [x29,#20]
/home/xiang/rockpi4-android/optee_os/lib/libmbedtls/mbedtls/library/bignum.c:2027
    49b8:	d2800024 	mov	x4, #0x1                   	// #1
    49bc:	f90013a4 	str	x4, [x29,#32]
/home/xiang/rockpi4-android/optee_os/lib/libmbedtls/mbedtls/library/bignum.c:2028
    49c0:	910053a4 	add	x4, x29, #0x14
    49c4:	f90017a4 	str	x4, [x29,#40]
/home/xiang/rockpi4-android/optee_os/lib/libmbedtls/mbedtls/library/bignum.c:2030
    49c8:	aa0303e4 	mov	x4, x3
    49cc:	2a0203e3 	mov	w3, w2
    49d0:	aa0103e2 	mov	x2, x1
    49d4:	910063a1 	add	x1, x29, #0x18
    49d8:	97ffff9c 	bl	4848 <mpi_montmul.isra.2>
/home/xiang/rockpi4-android/optee_os/lib/libmbedtls/mbedtls/library/bignum.c:2031
    49dc:	a8c37bfd 	ldp	x29, x30, [sp],#48
    49e0:	d65f03c0 	ret

00000000000049e4 <mbedtls_mpi_init>:
mpi_init():
/home/xiang/rockpi4-android/optee_os/lib/libmbedtls/mbedtls/library/bignum.c:95
    49e4:	52800021 	mov	w1, #0x1                   	// #1
/home/xiang/rockpi4-android/optee_os/lib/libmbedtls/mbedtls/library/bignum.c:96
    49e8:	7900041f 	strh	wzr, [x0,#2]
/home/xiang/rockpi4-android/optee_os/lib/libmbedtls/mbedtls/library/bignum.c:95
    49ec:	79000001 	strh	w1, [x0]
/home/xiang/rockpi4-android/optee_os/lib/libmbedtls/mbedtls/library/bignum.c:98
    49f0:	a900fc1f 	stp	xzr, xzr, [x0,#8]
    49f4:	d65f03c0 	ret

00000000000049f8 <mbedtls_mpi_init_mempool>:
mbedtls_mpi_init_mempool():
/home/xiang/rockpi4-android/optee_os/lib/libmbedtls/mbedtls/library/bignum.c:108
    49f8:	b0000041 	adrp	x1, d000 <_DYNAMIC>
mpi_init():
/home/xiang/rockpi4-android/optee_os/lib/libmbedtls/mbedtls/library/bignum.c:95
    49fc:	52800022 	mov	w2, #0x1                   	// #1
/home/xiang/rockpi4-android/optee_os/lib/libmbedtls/mbedtls/library/bignum.c:98
    4a00:	a900fc1f 	stp	xzr, xzr, [x0,#8]
mbedtls_mpi_init_mempool():
/home/xiang/rockpi4-android/optee_os/lib/libmbedtls/mbedtls/library/bignum.c:108
    4a04:	f940cc21 	ldr	x1, [x1,#408]
    4a08:	f9400021 	ldr	x1, [x1]
mpi_init():
/home/xiang/rockpi4-android/optee_os/lib/libmbedtls/mbedtls/library/bignum.c:95
    4a0c:	79000002 	strh	w2, [x0]
mbedtls_mpi_init_mempool():
/home/xiang/rockpi4-android/optee_os/lib/libmbedtls/mbedtls/library/bignum.c:108
    4a10:	f100003f 	cmp	x1, #0x0
    4a14:	1a9f07e1 	cset	w1, ne
mpi_init():
/home/xiang/rockpi4-android/optee_os/lib/libmbedtls/mbedtls/library/bignum.c:96
    4a18:	79000401 	strh	w1, [x0,#2]
/home/xiang/rockpi4-android/optee_os/lib/libmbedtls/mbedtls/library/bignum.c:98
    4a1c:	d65f03c0 	ret

0000000000004a20 <mbedtls_mpi_free>:
mbedtls_mpi_free():
/home/xiang/rockpi4-android/optee_os/lib/libmbedtls/mbedtls/library/bignum.c:116
    4a20:	b4000340 	cbz	x0, 4a88 <mbedtls_mpi_free+0x68>
/home/xiang/rockpi4-android/optee_os/lib/libmbedtls/mbedtls/library/bignum.c:115
    4a24:	a9be7bfd 	stp	x29, x30, [sp,#-32]!
    4a28:	910003fd 	mov	x29, sp
    4a2c:	f9000bf3 	str	x19, [sp,#16]
    4a30:	aa0003f3 	mov	x19, x0
/home/xiang/rockpi4-android/optee_os/lib/libmbedtls/mbedtls/library/bignum.c:119
    4a34:	f9400800 	ldr	x0, [x0,#16]
    4a38:	b4000160 	cbz	x0, 4a64 <mbedtls_mpi_free+0x44>
mbedtls_mpi_zeroize():
/home/xiang/rockpi4-android/optee_os/lib/libmbedtls/mbedtls/library/bignum.c:85
    4a3c:	f9400661 	ldr	x1, [x19,#8]
    4a40:	d37ef421 	lsl	x1, x1, #2
    4a44:	94000fa6 	bl	88dc <mbedtls_platform_zeroize>
mbedtls_mpi_free():
/home/xiang/rockpi4-android/optee_os/lib/libmbedtls/mbedtls/library/bignum.c:122
    4a48:	79c00660 	ldrsh	w0, [x19,#2]
    4a4c:	34000180 	cbz	w0, 4a7c <mbedtls_mpi_free+0x5c>
/home/xiang/rockpi4-android/optee_os/lib/libmbedtls/mbedtls/library/bignum.c:123
    4a50:	b0000040 	adrp	x0, d000 <_DYNAMIC>
    4a54:	f9400a61 	ldr	x1, [x19,#16]
    4a58:	f940cc00 	ldr	x0, [x0,#408]
    4a5c:	f9400000 	ldr	x0, [x0]
    4a60:	94001847 	bl	ab7c <mempool_free>
/home/xiang/rockpi4-android/optee_os/lib/libmbedtls/mbedtls/library/bignum.c:130
    4a64:	a900fe7f 	stp	xzr, xzr, [x19,#8]
/home/xiang/rockpi4-android/optee_os/lib/libmbedtls/mbedtls/library/bignum.c:128
    4a68:	52800020 	mov	w0, #0x1                   	// #1
    4a6c:	79000260 	strh	w0, [x19]
/home/xiang/rockpi4-android/optee_os/lib/libmbedtls/mbedtls/library/bignum.c:131
    4a70:	f9400bf3 	ldr	x19, [sp,#16]
    4a74:	a8c27bfd 	ldp	x29, x30, [sp],#32
    4a78:	d65f03c0 	ret
/home/xiang/rockpi4-android/optee_os/lib/libmbedtls/mbedtls/library/bignum.c:125
    4a7c:	f9400a60 	ldr	x0, [x19,#16]
    4a80:	940012b4 	bl	9550 <free>
    4a84:	17fffff8 	b	4a64 <mbedtls_mpi_free+0x44>
    4a88:	d65f03c0 	ret

0000000000004a8c <mbedtls_mpi_grow>:
mbedtls_mpi_grow():
/home/xiang/rockpi4-android/optee_os/lib/libmbedtls/mbedtls/library/bignum.c:141
    4a8c:	d284e202 	mov	x2, #0x2710                	// #10000
    4a90:	eb02003f 	cmp	x1, x2
    4a94:	54000069 	b.ls	4aa0 <mbedtls_mpi_grow+0x14>
/home/xiang/rockpi4-android/optee_os/lib/libmbedtls/mbedtls/library/bignum.c:142
    4a98:	128001e0 	mov	w0, #0xfffffff0            	// #-16
/home/xiang/rockpi4-android/optee_os/lib/libmbedtls/mbedtls/library/bignum.c:175
    4a9c:	d65f03c0 	ret
/home/xiang/rockpi4-android/optee_os/lib/libmbedtls/mbedtls/library/bignum.c:144
    4aa0:	f9400402 	ldr	x2, [x0,#8]
    4aa4:	eb02003f 	cmp	x1, x2
    4aa8:	54000689 	b.ls	4b78 <mbedtls_mpi_grow+0xec>
/home/xiang/rockpi4-android/optee_os/lib/libmbedtls/mbedtls/library/bignum.c:137
    4aac:	a9bd7bfd 	stp	x29, x30, [sp,#-48]!
    4ab0:	910003fd 	mov	x29, sp
    4ab4:	a90153f3 	stp	x19, x20, [sp,#16]
    4ab8:	aa0003f3 	mov	x19, x0
/home/xiang/rockpi4-android/optee_os/lib/libmbedtls/mbedtls/library/bignum.c:146
    4abc:	79c00400 	ldrsh	w0, [x0,#2]
/home/xiang/rockpi4-android/optee_os/lib/libmbedtls/mbedtls/library/bignum.c:137
    4ac0:	a9025bf5 	stp	x21, x22, [sp,#32]
    4ac4:	aa0103f6 	mov	x22, x1
/home/xiang/rockpi4-android/optee_os/lib/libmbedtls/mbedtls/library/bignum.c:146
    4ac8:	340003e0 	cbz	w0, 4b44 <mbedtls_mpi_grow+0xb8>
/home/xiang/rockpi4-android/optee_os/lib/libmbedtls/mbedtls/library/bignum.c:148
    4acc:	b0000040 	adrp	x0, d000 <_DYNAMIC>
    4ad0:	d37ef435 	lsl	x21, x1, #2
    4ad4:	aa1503e1 	mov	x1, x21
    4ad8:	f940cc00 	ldr	x0, [x0,#408]
    4adc:	f9400000 	ldr	x0, [x0]
    4ae0:	940017fa 	bl	aac8 <mempool_alloc>
    4ae4:	aa0003f4 	mov	x20, x0
/home/xiang/rockpi4-android/optee_os/lib/libmbedtls/mbedtls/library/bignum.c:149
    4ae8:	b4000380 	cbz	x0, 4b58 <mbedtls_mpi_grow+0xcc>
/home/xiang/rockpi4-android/optee_os/lib/libmbedtls/mbedtls/library/bignum.c:151
    4aec:	aa1503e2 	mov	x2, x21
    4af0:	52800001 	mov	w1, #0x0                   	// #0
    4af4:	94001384 	bl	9904 <memset>
/home/xiang/rockpi4-android/optee_os/lib/libmbedtls/mbedtls/library/bignum.c:160
    4af8:	f9400a61 	ldr	x1, [x19,#16]
    4afc:	b40001e1 	cbz	x1, 4b38 <mbedtls_mpi_grow+0xac>
/home/xiang/rockpi4-android/optee_os/lib/libmbedtls/mbedtls/library/bignum.c:162
    4b00:	f9400662 	ldr	x2, [x19,#8]
    4b04:	aa1403e0 	mov	x0, x20
    4b08:	d37ef442 	lsl	x2, x2, #2
    4b0c:	97ffed45 	bl	20 <memcpy>
mbedtls_mpi_zeroize():
/home/xiang/rockpi4-android/optee_os/lib/libmbedtls/mbedtls/library/bignum.c:85
    4b10:	a9408261 	ldp	x1, x0, [x19,#8]
    4b14:	d37ef421 	lsl	x1, x1, #2
    4b18:	94000f71 	bl	88dc <mbedtls_platform_zeroize>
mbedtls_mpi_grow():
/home/xiang/rockpi4-android/optee_os/lib/libmbedtls/mbedtls/library/bignum.c:164
    4b1c:	79c00660 	ldrsh	w0, [x19,#2]
    4b20:	34000260 	cbz	w0, 4b6c <mbedtls_mpi_grow+0xe0>
/home/xiang/rockpi4-android/optee_os/lib/libmbedtls/mbedtls/library/bignum.c:165
    4b24:	b0000040 	adrp	x0, d000 <_DYNAMIC>
    4b28:	f9400a61 	ldr	x1, [x19,#16]
    4b2c:	f940cc00 	ldr	x0, [x0,#408]
    4b30:	f9400000 	ldr	x0, [x0]
    4b34:	94001812 	bl	ab7c <mempool_free>
/home/xiang/rockpi4-android/optee_os/lib/libmbedtls/mbedtls/library/bignum.c:174
    4b38:	52800000 	mov	w0, #0x0                   	// #0
/home/xiang/rockpi4-android/optee_os/lib/libmbedtls/mbedtls/library/bignum.c:171
    4b3c:	a900d276 	stp	x22, x20, [x19,#8]
    4b40:	14000007 	b	4b5c <mbedtls_mpi_grow+0xd0>
/home/xiang/rockpi4-android/optee_os/lib/libmbedtls/mbedtls/library/bignum.c:155
    4b44:	d2800081 	mov	x1, #0x4                   	// #4
    4b48:	aa1603e0 	mov	x0, x22
    4b4c:	9400126d 	bl	9500 <calloc>
    4b50:	aa0003f4 	mov	x20, x0
/home/xiang/rockpi4-android/optee_os/lib/libmbedtls/mbedtls/library/bignum.c:156
    4b54:	b5fffd20 	cbnz	x0, 4af8 <mbedtls_mpi_grow+0x6c>
/home/xiang/rockpi4-android/optee_os/lib/libmbedtls/mbedtls/library/bignum.c:142
    4b58:	128001e0 	mov	w0, #0xfffffff0            	// #-16
/home/xiang/rockpi4-android/optee_os/lib/libmbedtls/mbedtls/library/bignum.c:175
    4b5c:	a94153f3 	ldp	x19, x20, [sp,#16]
    4b60:	a9425bf5 	ldp	x21, x22, [sp,#32]
    4b64:	a8c37bfd 	ldp	x29, x30, [sp],#48
    4b68:	d65f03c0 	ret
/home/xiang/rockpi4-android/optee_os/lib/libmbedtls/mbedtls/library/bignum.c:167
    4b6c:	f9400a60 	ldr	x0, [x19,#16]
    4b70:	94001278 	bl	9550 <free>
    4b74:	17fffff1 	b	4b38 <mbedtls_mpi_grow+0xac>
/home/xiang/rockpi4-android/optee_os/lib/libmbedtls/mbedtls/library/bignum.c:174
    4b78:	52800000 	mov	w0, #0x0                   	// #0
    4b7c:	d65f03c0 	ret

0000000000004b80 <mbedtls_mpi_resize_clear>:
mbedtls_mpi_resize_clear():
/home/xiang/rockpi4-android/optee_os/lib/libmbedtls/mbedtls/library/bignum.c:235
    4b80:	a9be7bfd 	stp	x29, x30, [sp,#-32]!
    4b84:	910003fd 	mov	x29, sp
    4b88:	a90153f3 	stp	x19, x20, [sp,#16]
/home/xiang/rockpi4-android/optee_os/lib/libmbedtls/mbedtls/library/bignum.c:236
    4b8c:	b50000c1 	cbnz	x1, 4ba4 <mbedtls_mpi_resize_clear+0x24>
/home/xiang/rockpi4-android/optee_os/lib/libmbedtls/mbedtls/library/bignum.c:238
    4b90:	97ffffa4 	bl	4a20 <mbedtls_mpi_free>
/home/xiang/rockpi4-android/optee_os/lib/libmbedtls/mbedtls/library/bignum.c:252
    4b94:	52800000 	mov	w0, #0x0                   	// #0
    4b98:	a94153f3 	ldp	x19, x20, [sp,#16]
    4b9c:	a8c27bfd 	ldp	x29, x30, [sp],#32
    4ba0:	d65f03c0 	ret
    4ba4:	aa0103f4 	mov	x20, x1
/home/xiang/rockpi4-android/optee_os/lib/libmbedtls/mbedtls/library/bignum.c:241
    4ba8:	f9400401 	ldr	x1, [x0,#8]
    4bac:	aa0003f3 	mov	x19, x0
    4bb0:	eb01029f 	cmp	x20, x1
    4bb4:	54000101 	b.ne	4bd4 <mbedtls_mpi_resize_clear+0x54>
/home/xiang/rockpi4-android/optee_os/lib/libmbedtls/mbedtls/library/bignum.c:243
    4bb8:	f9400800 	ldr	x0, [x0,#16]
    4bbc:	d37ef682 	lsl	x2, x20, #2
    4bc0:	52800001 	mov	w1, #0x0                   	// #0
    4bc4:	94001350 	bl	9904 <memset>
/home/xiang/rockpi4-android/optee_os/lib/libmbedtls/mbedtls/library/bignum.c:244
    4bc8:	52800020 	mov	w0, #0x1                   	// #1
    4bcc:	79000260 	strh	w0, [x19]
    4bd0:	17fffff1 	b	4b94 <mbedtls_mpi_resize_clear+0x14>
/home/xiang/rockpi4-android/optee_os/lib/libmbedtls/mbedtls/library/bignum.c:249
    4bd4:	97ffff93 	bl	4a20 <mbedtls_mpi_free>
/home/xiang/rockpi4-android/optee_os/lib/libmbedtls/mbedtls/library/bignum.c:250
    4bd8:	aa1403e1 	mov	x1, x20
    4bdc:	aa1303e0 	mov	x0, x19
/home/xiang/rockpi4-android/optee_os/lib/libmbedtls/mbedtls/library/bignum.c:252
    4be0:	a94153f3 	ldp	x19, x20, [sp,#16]
    4be4:	a8c27bfd 	ldp	x29, x30, [sp],#32
/home/xiang/rockpi4-android/optee_os/lib/libmbedtls/mbedtls/library/bignum.c:250
    4be8:	17ffffa9 	b	4a8c <mbedtls_mpi_grow>

0000000000004bec <mbedtls_mpi_shrink>:
mbedtls_mpi_shrink():
/home/xiang/rockpi4-android/optee_os/lib/libmbedtls/mbedtls/library/bignum.c:187
    4bec:	d284e202 	mov	x2, #0x2710                	// #10000
    4bf0:	eb02003f 	cmp	x1, x2
    4bf4:	54000069 	b.ls	4c00 <mbedtls_mpi_shrink+0x14>
/home/xiang/rockpi4-android/optee_os/lib/libmbedtls/mbedtls/library/bignum.c:188
    4bf8:	128001e0 	mov	w0, #0xfffffff0            	// #-16
/home/xiang/rockpi4-android/optee_os/lib/libmbedtls/mbedtls/library/bignum.c:231
    4bfc:	d65f03c0 	ret
/home/xiang/rockpi4-android/optee_os/lib/libmbedtls/mbedtls/library/bignum.c:182
    4c00:	a9bd7bfd 	stp	x29, x30, [sp,#-48]!
    4c04:	910003fd 	mov	x29, sp
    4c08:	a90153f3 	stp	x19, x20, [sp,#16]
    4c0c:	aa0003f3 	mov	x19, x0
/home/xiang/rockpi4-android/optee_os/lib/libmbedtls/mbedtls/library/bignum.c:191
    4c10:	f9400402 	ldr	x2, [x0,#8]
    4c14:	aa0103f4 	mov	x20, x1
/home/xiang/rockpi4-android/optee_os/lib/libmbedtls/mbedtls/library/bignum.c:182
    4c18:	a9025bf5 	stp	x21, x22, [sp,#32]
/home/xiang/rockpi4-android/optee_os/lib/libmbedtls/mbedtls/library/bignum.c:191
    4c1c:	eb02003f 	cmp	x1, x2
    4c20:	540000a3 	b.cc	4c34 <mbedtls_mpi_shrink+0x48>
/home/xiang/rockpi4-android/optee_os/lib/libmbedtls/mbedtls/library/bignum.c:231
    4c24:	a94153f3 	ldp	x19, x20, [sp,#16]
    4c28:	a9425bf5 	ldp	x21, x22, [sp,#32]
    4c2c:	a8c37bfd 	ldp	x29, x30, [sp],#48
/home/xiang/rockpi4-android/optee_os/lib/libmbedtls/mbedtls/library/bignum.c:192
    4c30:	17ffff97 	b	4a8c <mbedtls_mpi_grow>
/home/xiang/rockpi4-android/optee_os/lib/libmbedtls/mbedtls/library/bignum.c:195
    4c34:	d1000440 	sub	x0, x2, #0x1
    4c38:	d37ef442 	lsl	x2, x2, #2
    4c3c:	d1001042 	sub	x2, x2, #0x4
/home/xiang/rockpi4-android/optee_os/lib/libmbedtls/mbedtls/library/bignum.c:195 (discriminator 1)
    4c40:	b5000460 	cbnz	x0, 4ccc <mbedtls_mpi_shrink+0xe0>
/home/xiang/rockpi4-android/optee_os/lib/libmbedtls/mbedtls/library/bignum.c:198
    4c44:	91000400 	add	x0, x0, #0x1
    4c48:	eb00029f 	cmp	x20, x0
    4c4c:	9a802294 	csel	x20, x20, x0, cs
/home/xiang/rockpi4-android/optee_os/lib/libmbedtls/mbedtls/library/bignum.c:203
    4c50:	79c00660 	ldrsh	w0, [x19,#2]
    4c54:	34000480 	cbz	w0, 4ce4 <mbedtls_mpi_shrink+0xf8>
/home/xiang/rockpi4-android/optee_os/lib/libmbedtls/mbedtls/library/bignum.c:205
    4c58:	b0000040 	adrp	x0, d000 <_DYNAMIC>
    4c5c:	d37ef696 	lsl	x22, x20, #2
    4c60:	aa1603e1 	mov	x1, x22
    4c64:	f940cc00 	ldr	x0, [x0,#408]
    4c68:	f9400000 	ldr	x0, [x0]
    4c6c:	94001797 	bl	aac8 <mempool_alloc>
    4c70:	aa0003f5 	mov	x21, x0
/home/xiang/rockpi4-android/optee_os/lib/libmbedtls/mbedtls/library/bignum.c:206
    4c74:	b4000420 	cbz	x0, 4cf8 <mbedtls_mpi_shrink+0x10c>
/home/xiang/rockpi4-android/optee_os/lib/libmbedtls/mbedtls/library/bignum.c:208
    4c78:	aa1603e2 	mov	x2, x22
    4c7c:	52800001 	mov	w1, #0x0                   	// #0
    4c80:	94001321 	bl	9904 <memset>
/home/xiang/rockpi4-android/optee_os/lib/libmbedtls/mbedtls/library/bignum.c:217
    4c84:	f9400a61 	ldr	x1, [x19,#16]
    4c88:	b40001c1 	cbz	x1, 4cc0 <mbedtls_mpi_shrink+0xd4>
/home/xiang/rockpi4-android/optee_os/lib/libmbedtls/mbedtls/library/bignum.c:219
    4c8c:	d37ef682 	lsl	x2, x20, #2
    4c90:	aa1503e0 	mov	x0, x21
    4c94:	97ffece3 	bl	20 <memcpy>
mbedtls_mpi_zeroize():
/home/xiang/rockpi4-android/optee_os/lib/libmbedtls/mbedtls/library/bignum.c:85
    4c98:	a9408261 	ldp	x1, x0, [x19,#8]
    4c9c:	d37ef421 	lsl	x1, x1, #2
    4ca0:	94000f0f 	bl	88dc <mbedtls_platform_zeroize>
mbedtls_mpi_shrink():
/home/xiang/rockpi4-android/optee_os/lib/libmbedtls/mbedtls/library/bignum.c:221
    4ca4:	79c00660 	ldrsh	w0, [x19,#2]
    4ca8:	34000320 	cbz	w0, 4d0c <mbedtls_mpi_shrink+0x120>
/home/xiang/rockpi4-android/optee_os/lib/libmbedtls/mbedtls/library/bignum.c:222
    4cac:	b0000040 	adrp	x0, d000 <_DYNAMIC>
    4cb0:	f9400a61 	ldr	x1, [x19,#16]
    4cb4:	f940cc00 	ldr	x0, [x0,#408]
    4cb8:	f9400000 	ldr	x0, [x0]
    4cbc:	940017b0 	bl	ab7c <mempool_free>
/home/xiang/rockpi4-android/optee_os/lib/libmbedtls/mbedtls/library/bignum.c:230
    4cc0:	52800000 	mov	w0, #0x0                   	// #0
/home/xiang/rockpi4-android/optee_os/lib/libmbedtls/mbedtls/library/bignum.c:228
    4cc4:	a900d674 	stp	x20, x21, [x19,#8]
/home/xiang/rockpi4-android/optee_os/lib/libmbedtls/mbedtls/library/bignum.c:230
    4cc8:	1400000d 	b	4cfc <mbedtls_mpi_shrink+0x110>
/home/xiang/rockpi4-android/optee_os/lib/libmbedtls/mbedtls/library/bignum.c:196
    4ccc:	f9400a61 	ldr	x1, [x19,#16]
    4cd0:	b8626821 	ldr	w1, [x1,x2]
    4cd4:	d1001042 	sub	x2, x2, #0x4
    4cd8:	35fffb61 	cbnz	w1, 4c44 <mbedtls_mpi_shrink+0x58>
/home/xiang/rockpi4-android/optee_os/lib/libmbedtls/mbedtls/library/bignum.c:195 (discriminator 2)
    4cdc:	d1000400 	sub	x0, x0, #0x1
    4ce0:	17ffffd8 	b	4c40 <mbedtls_mpi_shrink+0x54>
/home/xiang/rockpi4-android/optee_os/lib/libmbedtls/mbedtls/library/bignum.c:212
    4ce4:	d2800081 	mov	x1, #0x4                   	// #4
    4ce8:	aa1403e0 	mov	x0, x20
    4cec:	94001205 	bl	9500 <calloc>
    4cf0:	aa0003f5 	mov	x21, x0
/home/xiang/rockpi4-android/optee_os/lib/libmbedtls/mbedtls/library/bignum.c:213
    4cf4:	b5fffc80 	cbnz	x0, 4c84 <mbedtls_mpi_shrink+0x98>
/home/xiang/rockpi4-android/optee_os/lib/libmbedtls/mbedtls/library/bignum.c:188
    4cf8:	128001e0 	mov	w0, #0xfffffff0            	// #-16
/home/xiang/rockpi4-android/optee_os/lib/libmbedtls/mbedtls/library/bignum.c:231
    4cfc:	a94153f3 	ldp	x19, x20, [sp,#16]
    4d00:	a9425bf5 	ldp	x21, x22, [sp,#32]
    4d04:	a8c37bfd 	ldp	x29, x30, [sp],#48
    4d08:	d65f03c0 	ret
/home/xiang/rockpi4-android/optee_os/lib/libmbedtls/mbedtls/library/bignum.c:224
    4d0c:	f9400a60 	ldr	x0, [x19,#16]
    4d10:	94001210 	bl	9550 <free>
    4d14:	17ffffeb 	b	4cc0 <mbedtls_mpi_shrink+0xd4>

0000000000004d18 <mbedtls_mpi_copy>:
mbedtls_mpi_copy():
/home/xiang/rockpi4-android/optee_os/lib/libmbedtls/mbedtls/library/bignum.c:270
    4d18:	eb01001f 	cmp	x0, x1
    4d1c:	540006c0 	b.eq	4df4 <mbedtls_mpi_copy+0xdc>
/home/xiang/rockpi4-android/optee_os/lib/libmbedtls/mbedtls/library/bignum.c:264
    4d20:	a9bd7bfd 	stp	x29, x30, [sp,#-48]!
    4d24:	910003fd 	mov	x29, sp
    4d28:	a90153f3 	stp	x19, x20, [sp,#16]
    4d2c:	aa0003f3 	mov	x19, x0
/home/xiang/rockpi4-android/optee_os/lib/libmbedtls/mbedtls/library/bignum.c:273
    4d30:	f9400420 	ldr	x0, [x1,#8]
/home/xiang/rockpi4-android/optee_os/lib/libmbedtls/mbedtls/library/bignum.c:264
    4d34:	f90013f5 	str	x21, [sp,#32]
    4d38:	aa0103f5 	mov	x21, x1
/home/xiang/rockpi4-android/optee_os/lib/libmbedtls/mbedtls/library/bignum.c:273
    4d3c:	b5000160 	cbnz	x0, 4d68 <mbedtls_mpi_copy+0x50>
/home/xiang/rockpi4-android/optee_os/lib/libmbedtls/mbedtls/library/bignum.c:275
    4d40:	f9400662 	ldr	x2, [x19,#8]
    4d44:	b40000e2 	cbz	x2, 4d60 <mbedtls_mpi_copy+0x48>
/home/xiang/rockpi4-android/optee_os/lib/libmbedtls/mbedtls/library/bignum.c:277
    4d48:	52800020 	mov	w0, #0x1                   	// #1
    4d4c:	79000260 	strh	w0, [x19]
/home/xiang/rockpi4-android/optee_os/lib/libmbedtls/mbedtls/library/bignum.c:278
    4d50:	f9400a60 	ldr	x0, [x19,#16]
    4d54:	d37ef442 	lsl	x2, x2, #2
    4d58:	52800001 	mov	w1, #0x0                   	// #0
    4d5c:	940012ea 	bl	9904 <memset>
/home/xiang/rockpi4-android/optee_os/lib/libmbedtls/mbedtls/library/bignum.c:271
    4d60:	52800000 	mov	w0, #0x0                   	// #0
    4d64:	1400000f 	b	4da0 <mbedtls_mpi_copy+0x88>
/home/xiang/rockpi4-android/optee_os/lib/libmbedtls/mbedtls/library/bignum.c:283
    4d68:	d1000414 	sub	x20, x0, #0x1
    4d6c:	d37ef400 	lsl	x0, x0, #2
    4d70:	d1001000 	sub	x0, x0, #0x4
/home/xiang/rockpi4-android/optee_os/lib/libmbedtls/mbedtls/library/bignum.c:283 (discriminator 1)
    4d74:	b50001f4 	cbnz	x20, 4db0 <mbedtls_mpi_copy+0x98>
/home/xiang/rockpi4-android/optee_os/lib/libmbedtls/mbedtls/library/bignum.c:288
    4d78:	79c002a0 	ldrsh	w0, [x21]
/home/xiang/rockpi4-android/optee_os/lib/libmbedtls/mbedtls/library/bignum.c:286
    4d7c:	91000694 	add	x20, x20, #0x1
/home/xiang/rockpi4-android/optee_os/lib/libmbedtls/mbedtls/library/bignum.c:290
    4d80:	f9400662 	ldr	x2, [x19,#8]
/home/xiang/rockpi4-android/optee_os/lib/libmbedtls/mbedtls/library/bignum.c:288
    4d84:	79000260 	strh	w0, [x19]
/home/xiang/rockpi4-android/optee_os/lib/libmbedtls/mbedtls/library/bignum.c:290
    4d88:	eb02029f 	cmp	x20, x2
    4d8c:	540001e9 	b.ls	4dc8 <mbedtls_mpi_copy+0xb0>
/home/xiang/rockpi4-android/optee_os/lib/libmbedtls/mbedtls/library/bignum.c:292
    4d90:	aa1403e1 	mov	x1, x20
    4d94:	aa1303e0 	mov	x0, x19
    4d98:	97ffff3d 	bl	4a8c <mbedtls_mpi_grow>
    4d9c:	34000220 	cbz	w0, 4de0 <mbedtls_mpi_copy+0xc8>
/home/xiang/rockpi4-android/optee_os/lib/libmbedtls/mbedtls/library/bignum.c:304
    4da0:	a94153f3 	ldp	x19, x20, [sp,#16]
    4da4:	f94013f5 	ldr	x21, [sp,#32]
    4da8:	a8c37bfd 	ldp	x29, x30, [sp],#48
    4dac:	d65f03c0 	ret
/home/xiang/rockpi4-android/optee_os/lib/libmbedtls/mbedtls/library/bignum.c:284
    4db0:	f9400aa1 	ldr	x1, [x21,#16]
    4db4:	b8606821 	ldr	w1, [x1,x0]
    4db8:	d1001000 	sub	x0, x0, #0x4
    4dbc:	35fffde1 	cbnz	w1, 4d78 <mbedtls_mpi_copy+0x60>
/home/xiang/rockpi4-android/optee_os/lib/libmbedtls/mbedtls/library/bignum.c:283 (discriminator 2)
    4dc0:	d1000694 	sub	x20, x20, #0x1
    4dc4:	17ffffec 	b	4d74 <mbedtls_mpi_copy+0x5c>
/home/xiang/rockpi4-android/optee_os/lib/libmbedtls/mbedtls/library/bignum.c:296
    4dc8:	f9400a60 	ldr	x0, [x19,#16]
    4dcc:	cb140042 	sub	x2, x2, x20
    4dd0:	d37ef442 	lsl	x2, x2, #2
    4dd4:	52800001 	mov	w1, #0x0                   	// #0
    4dd8:	8b140800 	add	x0, x0, x20, lsl #2
    4ddc:	940012ca 	bl	9904 <memset>
/home/xiang/rockpi4-android/optee_os/lib/libmbedtls/mbedtls/library/bignum.c:299
    4de0:	f9400a60 	ldr	x0, [x19,#16]
    4de4:	d37ef682 	lsl	x2, x20, #2
    4de8:	f9400aa1 	ldr	x1, [x21,#16]
    4dec:	97ffec8d 	bl	20 <memcpy>
    4df0:	17ffffdc 	b	4d60 <mbedtls_mpi_copy+0x48>
/home/xiang/rockpi4-android/optee_os/lib/libmbedtls/mbedtls/library/bignum.c:271
    4df4:	52800000 	mov	w0, #0x0                   	// #0
    4df8:	d65f03c0 	ret

0000000000004dfc <mbedtls_mpi_swap>:
mbedtls_mpi_swap():
/home/xiang/rockpi4-android/optee_os/lib/libmbedtls/mbedtls/library/bignum.c:310
    4dfc:	a9bb7bfd 	stp	x29, x30, [sp,#-80]!
    4e00:	910003fd 	mov	x29, sp
    4e04:	a90153f3 	stp	x19, x20, [sp,#16]
/home/xiang/rockpi4-android/optee_os/lib/libmbedtls/mbedtls/library/bignum.c:315
    4e08:	9100e3b3 	add	x19, x29, #0x38
/home/xiang/rockpi4-android/optee_os/lib/libmbedtls/mbedtls/library/bignum.c:310
    4e0c:	a9025bf5 	stp	x21, x22, [sp,#32]
/home/xiang/rockpi4-android/optee_os/lib/libmbedtls/mbedtls/library/bignum.c:315
    4e10:	d2800314 	mov	x20, #0x18                  	// #24
/home/xiang/rockpi4-android/optee_os/lib/libmbedtls/mbedtls/library/bignum.c:310
    4e14:	aa0103f5 	mov	x21, x1
    4e18:	aa0003f6 	mov	x22, x0
/home/xiang/rockpi4-android/optee_os/lib/libmbedtls/mbedtls/library/bignum.c:315
    4e1c:	aa1403e2 	mov	x2, x20
    4e20:	aa0003e1 	mov	x1, x0
    4e24:	aa1303e0 	mov	x0, x19
    4e28:	97ffec7e 	bl	20 <memcpy>
/home/xiang/rockpi4-android/optee_os/lib/libmbedtls/mbedtls/library/bignum.c:316
    4e2c:	aa1403e2 	mov	x2, x20
    4e30:	aa1503e1 	mov	x1, x21
    4e34:	aa1603e0 	mov	x0, x22
    4e38:	97ffec7a 	bl	20 <memcpy>
/home/xiang/rockpi4-android/optee_os/lib/libmbedtls/mbedtls/library/bignum.c:317
    4e3c:	aa1403e2 	mov	x2, x20
    4e40:	aa1303e1 	mov	x1, x19
    4e44:	aa1503e0 	mov	x0, x21
    4e48:	97ffec76 	bl	20 <memcpy>
/home/xiang/rockpi4-android/optee_os/lib/libmbedtls/mbedtls/library/bignum.c:318
    4e4c:	a94153f3 	ldp	x19, x20, [sp,#16]
    4e50:	a9425bf5 	ldp	x21, x22, [sp,#32]
    4e54:	a8c57bfd 	ldp	x29, x30, [sp],#80
    4e58:	d65f03c0 	ret

0000000000004e5c <mbedtls_mpi_lset>:
mbedtls_mpi_lset():
/home/xiang/rockpi4-android/optee_os/lib/libmbedtls/mbedtls/library/bignum.c:324
    4e5c:	a9bd7bfd 	stp	x29, x30, [sp,#-48]!
    4e60:	910003fd 	mov	x29, sp
    4e64:	a90153f3 	stp	x19, x20, [sp,#16]
    4e68:	aa0003f3 	mov	x19, x0
    4e6c:	f90013f5 	str	x21, [sp,#32]
    4e70:	2a0103f4 	mov	w20, w1
/home/xiang/rockpi4-android/optee_os/lib/libmbedtls/mbedtls/library/bignum.c:328
    4e74:	d2800021 	mov	x1, #0x1                   	// #1
    4e78:	97ffff05 	bl	4a8c <mbedtls_mpi_grow>
    4e7c:	2a0003f5 	mov	w21, w0
    4e80:	35000180 	cbnz	w0, 4eb0 <mbedtls_mpi_lset+0x54>
/home/xiang/rockpi4-android/optee_os/lib/libmbedtls/mbedtls/library/bignum.c:329
    4e84:	a9408262 	ldp	x2, x0, [x19,#8]
    4e88:	52800001 	mov	w1, #0x0                   	// #0
    4e8c:	d37ef442 	lsl	x2, x2, #2
    4e90:	9400129d 	bl	9904 <memset>
/home/xiang/rockpi4-android/optee_os/lib/libmbedtls/mbedtls/library/bignum.c:331
    4e94:	f9400a60 	ldr	x0, [x19,#16]
    4e98:	7100029f 	cmp	w20, #0x0
    4e9c:	5a94a681 	cneg	w1, w20, lt
    4ea0:	b9000001 	str	w1, [x0]
/home/xiang/rockpi4-android/optee_os/lib/libmbedtls/mbedtls/library/bignum.c:332
    4ea4:	52800020 	mov	w0, #0x1                   	// #1
    4ea8:	5a80a400 	cneg	w0, w0, lt
    4eac:	79000260 	strh	w0, [x19]
/home/xiang/rockpi4-android/optee_os/lib/libmbedtls/mbedtls/library/bignum.c:337
    4eb0:	2a1503e0 	mov	w0, w21
    4eb4:	f94013f5 	ldr	x21, [sp,#32]
    4eb8:	a94153f3 	ldp	x19, x20, [sp,#16]
    4ebc:	a8c37bfd 	ldp	x29, x30, [sp],#48
    4ec0:	d65f03c0 	ret

0000000000004ec4 <mbedtls_mpi_get_bit>:
mbedtls_mpi_get_bit():
/home/xiang/rockpi4-android/optee_os/lib/libmbedtls/mbedtls/library/bignum.c:346
    4ec4:	f9400402 	ldr	x2, [x0,#8]
    4ec8:	eb02143f 	cmp	x1, x2, lsl #5
    4ecc:	54000102 	b.cs	4eec <mbedtls_mpi_get_bit+0x28>
/home/xiang/rockpi4-android/optee_os/lib/libmbedtls/mbedtls/library/bignum.c:349
    4ed0:	f9400800 	ldr	x0, [x0,#16]
    4ed4:	d345fc22 	lsr	x2, x1, #5
    4ed8:	12001021 	and	w1, w1, #0x1f
    4edc:	b8627800 	ldr	w0, [x0,x2,lsl #2]
    4ee0:	1ac12400 	lsr	w0, w0, w1
    4ee4:	12000000 	and	w0, w0, #0x1
    4ee8:	d65f03c0 	ret
/home/xiang/rockpi4-android/optee_os/lib/libmbedtls/mbedtls/library/bignum.c:347
    4eec:	52800000 	mov	w0, #0x0                   	// #0
/home/xiang/rockpi4-android/optee_os/lib/libmbedtls/mbedtls/library/bignum.c:350
    4ef0:	d65f03c0 	ret

0000000000004ef4 <mbedtls_mpi_set_bit>:
mbedtls_mpi_set_bit():
/home/xiang/rockpi4-android/optee_os/lib/libmbedtls/mbedtls/library/bignum.c:360
    4ef4:	a9bd7bfd 	stp	x29, x30, [sp,#-48]!
    4ef8:	910003fd 	mov	x29, sp
    4efc:	a9025bf5 	stp	x21, x22, [sp,#32]
    4f00:	12001c55 	and	w21, w2, #0xff
    4f04:	a90153f3 	stp	x19, x20, [sp,#16]
/home/xiang/rockpi4-android/optee_os/lib/libmbedtls/mbedtls/library/bignum.c:366
    4f08:	710006bf 	cmp	w21, #0x1
    4f0c:	54000368 	b.hi	4f78 <mbedtls_mpi_set_bit+0x84>
    4f10:	aa0103f3 	mov	x19, x1
    4f14:	d345fc34 	lsr	x20, x1, #5
/home/xiang/rockpi4-android/optee_os/lib/libmbedtls/mbedtls/library/bignum.c:369
    4f18:	f9400401 	ldr	x1, [x0,#8]
    4f1c:	aa0003f6 	mov	x22, x0
    4f20:	eb01167f 	cmp	x19, x1, lsl #5
    4f24:	540001a2 	b.cs	4f58 <mbedtls_mpi_set_bit+0x64>
/home/xiang/rockpi4-android/optee_os/lib/libmbedtls/mbedtls/library/bignum.c:377
    4f28:	f9400ac1 	ldr	x1, [x22,#16]
    4f2c:	d37ef694 	lsl	x20, x20, #2
/home/xiang/rockpi4-android/optee_os/lib/libmbedtls/mbedtls/library/bignum.c:363
    4f30:	92401273 	and	x19, x19, #0x1f
/home/xiang/rockpi4-android/optee_os/lib/libmbedtls/mbedtls/library/bignum.c:377
    4f34:	52800020 	mov	w0, #0x1                   	// #1
    4f38:	1ad32000 	lsl	w0, w0, w19
    4f3c:	b8746822 	ldr	w2, [x1,x20]
/home/xiang/rockpi4-android/optee_os/lib/libmbedtls/mbedtls/library/bignum.c:378
    4f40:	1ad322b3 	lsl	w19, w21, w19
/home/xiang/rockpi4-android/optee_os/lib/libmbedtls/mbedtls/library/bignum.c:377
    4f44:	0a200040 	bic	w0, w2, w0
/home/xiang/rockpi4-android/optee_os/lib/libmbedtls/mbedtls/library/bignum.c:378
    4f48:	2a130013 	orr	w19, w0, w19
    4f4c:	b8346833 	str	w19, [x1,x20]
/home/xiang/rockpi4-android/optee_os/lib/libmbedtls/mbedtls/library/bignum.c:372
    4f50:	52800000 	mov	w0, #0x0                   	// #0
    4f54:	14000005 	b	4f68 <mbedtls_mpi_set_bit+0x74>
/home/xiang/rockpi4-android/optee_os/lib/libmbedtls/mbedtls/library/bignum.c:371
    4f58:	34ffffd5 	cbz	w21, 4f50 <mbedtls_mpi_set_bit+0x5c>
/home/xiang/rockpi4-android/optee_os/lib/libmbedtls/mbedtls/library/bignum.c:374
    4f5c:	91000681 	add	x1, x20, #0x1
    4f60:	97fffecb 	bl	4a8c <mbedtls_mpi_grow>
    4f64:	34fffe20 	cbz	w0, 4f28 <mbedtls_mpi_set_bit+0x34>
/home/xiang/rockpi4-android/optee_os/lib/libmbedtls/mbedtls/library/bignum.c:383
    4f68:	a94153f3 	ldp	x19, x20, [sp,#16]
    4f6c:	a9425bf5 	ldp	x21, x22, [sp,#32]
    4f70:	a8c37bfd 	ldp	x29, x30, [sp],#48
    4f74:	d65f03c0 	ret
/home/xiang/rockpi4-android/optee_os/lib/libmbedtls/mbedtls/library/bignum.c:367
    4f78:	12800060 	mov	w0, #0xfffffffc            	// #-4
    4f7c:	17fffffb 	b	4f68 <mbedtls_mpi_set_bit+0x74>

0000000000004f80 <mbedtls_mpi_lsb>:
mbedtls_mpi_lsb():
/home/xiang/rockpi4-android/optee_os/lib/libmbedtls/mbedtls/library/bignum.c:393
    4f80:	f9400407 	ldr	x7, [x0,#8]
/home/xiang/rockpi4-android/optee_os/lib/libmbedtls/mbedtls/library/bignum.c:389
    4f84:	aa0003e4 	mov	x4, x0
/home/xiang/rockpi4-android/optee_os/lib/libmbedtls/mbedtls/library/bignum.c:390
    4f88:	d2800001 	mov	x1, #0x0                   	// #0
/home/xiang/rockpi4-android/optee_os/lib/libmbedtls/mbedtls/library/bignum.c:393
    4f8c:	d2800002 	mov	x2, #0x0                   	// #0
/home/xiang/rockpi4-android/optee_os/lib/libmbedtls/mbedtls/library/bignum.c:393 (discriminator 1)
    4f90:	eb07005f 	cmp	x2, x7
    4f94:	540001c0 	b.eq	4fcc <mbedtls_mpi_lsb+0x4c>
/home/xiang/rockpi4-android/optee_os/lib/libmbedtls/mbedtls/library/bignum.c:395
    4f98:	f9400880 	ldr	x0, [x4,#16]
    4f9c:	91008025 	add	x5, x1, #0x20
    4fa0:	b8627806 	ldr	w6, [x0,x2,lsl #2]
    4fa4:	aa0103e0 	mov	x0, x1
    4fa8:	4b010003 	sub	w3, w0, w1
    4fac:	1ac324c3 	lsr	w3, w6, w3
    4fb0:	37000103 	tbnz	w3, #0, 4fd0 <mbedtls_mpi_lsb+0x50>
/home/xiang/rockpi4-android/optee_os/lib/libmbedtls/mbedtls/library/bignum.c:394 (discriminator 2)
    4fb4:	91000400 	add	x0, x0, #0x1
    4fb8:	eb05001f 	cmp	x0, x5
    4fbc:	54ffff61 	b.ne	4fa8 <mbedtls_mpi_lsb+0x28>
/home/xiang/rockpi4-android/optee_os/lib/libmbedtls/mbedtls/library/bignum.c:393 (discriminator 2)
    4fc0:	91000442 	add	x2, x2, #0x1
/home/xiang/rockpi4-android/optee_os/lib/libmbedtls/mbedtls/library/bignum.c:394 (discriminator 2)
    4fc4:	aa0003e1 	mov	x1, x0
    4fc8:	17fffff2 	b	4f90 <mbedtls_mpi_lsb+0x10>
/home/xiang/rockpi4-android/optee_os/lib/libmbedtls/mbedtls/library/bignum.c:398
    4fcc:	d2800000 	mov	x0, #0x0                   	// #0
/home/xiang/rockpi4-android/optee_os/lib/libmbedtls/mbedtls/library/bignum.c:399
    4fd0:	d65f03c0 	ret

0000000000004fd4 <mbedtls_mpi_bitlen>:
mbedtls_mpi_bitlen():
/home/xiang/rockpi4-android/optee_os/lib/libmbedtls/mbedtls/library/bignum.c:426
    4fd4:	f9400402 	ldr	x2, [x0,#8]
    4fd8:	b4000302 	cbz	x2, 5038 <mbedtls_mpi_bitlen+0x64>
/home/xiang/rockpi4-android/optee_os/lib/libmbedtls/mbedtls/library/bignum.c:429
    4fdc:	d1000441 	sub	x1, x2, #0x1
    4fe0:	d37ef442 	lsl	x2, x2, #2
    4fe4:	d1001042 	sub	x2, x2, #0x4
    4fe8:	f9400803 	ldr	x3, [x0,#16]
/home/xiang/rockpi4-android/optee_os/lib/libmbedtls/mbedtls/library/bignum.c:429 (discriminator 1)
    4fec:	b50001c1 	cbnz	x1, 5024 <mbedtls_mpi_bitlen+0x50>
/home/xiang/rockpi4-android/optee_os/lib/libmbedtls/mbedtls/library/bignum.c:433
    4ff0:	b8617863 	ldr	w3, [x3,x1,lsl #2]
mbedtls_clz():
/home/xiang/rockpi4-android/optee_os/lib/libmbedtls/mbedtls/library/bignum.c:409
    4ff4:	d2800002 	mov	x2, #0x0                   	// #0
/home/xiang/rockpi4-android/optee_os/lib/libmbedtls/mbedtls/library/bignum.c:407
    4ff8:	52b00000 	mov	w0, #0x80000000            	// #-2147483648
/home/xiang/rockpi4-android/optee_os/lib/libmbedtls/mbedtls/library/bignum.c:411
    4ffc:	6a00007f 	tst	w3, w0
    5000:	540000a1 	b.ne	5014 <mbedtls_mpi_bitlen+0x40>
/home/xiang/rockpi4-android/optee_os/lib/libmbedtls/mbedtls/library/bignum.c:409
    5004:	91000442 	add	x2, x2, #0x1
/home/xiang/rockpi4-android/optee_os/lib/libmbedtls/mbedtls/library/bignum.c:413
    5008:	53017c00 	lsr	w0, w0, #1
/home/xiang/rockpi4-android/optee_os/lib/libmbedtls/mbedtls/library/bignum.c:409
    500c:	f100805f 	cmp	x2, #0x20
    5010:	54ffff61 	b.ne	4ffc <mbedtls_mpi_bitlen+0x28>
mbedtls_mpi_bitlen():
/home/xiang/rockpi4-android/optee_os/lib/libmbedtls/mbedtls/library/bignum.c:435
    5014:	d37be820 	lsl	x0, x1, #5
    5018:	91008000 	add	x0, x0, #0x20
    501c:	cb020000 	sub	x0, x0, x2
    5020:	d65f03c0 	ret
/home/xiang/rockpi4-android/optee_os/lib/libmbedtls/mbedtls/library/bignum.c:430
    5024:	b8626864 	ldr	w4, [x3,x2]
    5028:	d1001042 	sub	x2, x2, #0x4
    502c:	35fffe24 	cbnz	w4, 4ff0 <mbedtls_mpi_bitlen+0x1c>
/home/xiang/rockpi4-android/optee_os/lib/libmbedtls/mbedtls/library/bignum.c:429 (discriminator 2)
    5030:	d1000421 	sub	x1, x1, #0x1
    5034:	17ffffed 	b	4fe8 <mbedtls_mpi_bitlen+0x14>
/home/xiang/rockpi4-android/optee_os/lib/libmbedtls/mbedtls/library/bignum.c:427
    5038:	d2800000 	mov	x0, #0x0                   	// #0
/home/xiang/rockpi4-android/optee_os/lib/libmbedtls/mbedtls/library/bignum.c:436
    503c:	d65f03c0 	ret

0000000000005040 <mbedtls_mpi_size>:
mbedtls_mpi_size():
/home/xiang/rockpi4-android/optee_os/lib/libmbedtls/mbedtls/library/bignum.c:442
    5040:	a9bf7bfd 	stp	x29, x30, [sp,#-16]!
    5044:	910003fd 	mov	x29, sp
/home/xiang/rockpi4-android/optee_os/lib/libmbedtls/mbedtls/library/bignum.c:443
    5048:	97ffffe3 	bl	4fd4 <mbedtls_mpi_bitlen>
    504c:	91001c00 	add	x0, x0, #0x7
/home/xiang/rockpi4-android/optee_os/lib/libmbedtls/mbedtls/library/bignum.c:444
    5050:	d343fc00 	lsr	x0, x0, #3
    5054:	a8c17bfd 	ldp	x29, x30, [sp],#16
    5058:	d65f03c0 	ret

000000000000505c <mbedtls_mpi_read_binary_le>:
mbedtls_mpi_read_binary_le():
/home/xiang/rockpi4-android/optee_os/lib/libmbedtls/mbedtls/library/bignum.c:838
    505c:	a9bd7bfd 	stp	x29, x30, [sp,#-48]!
/home/xiang/rockpi4-android/optee_os/lib/libmbedtls/mbedtls/library/bignum.c:841
    5060:	f240045f 	tst	x2, #0x3
/home/xiang/rockpi4-android/optee_os/lib/libmbedtls/mbedtls/library/bignum.c:838
    5064:	910003fd 	mov	x29, sp
    5068:	f90013f5 	str	x21, [sp,#32]
    506c:	aa0103f5 	mov	x21, x1
/home/xiang/rockpi4-android/optee_os/lib/libmbedtls/mbedtls/library/bignum.c:841
    5070:	d342fc41 	lsr	x1, x2, #2
/home/xiang/rockpi4-android/optee_os/lib/libmbedtls/mbedtls/library/bignum.c:838
    5074:	a90153f3 	stp	x19, x20, [sp,#16]
/home/xiang/rockpi4-android/optee_os/lib/libmbedtls/mbedtls/library/bignum.c:844
    5078:	9a810421 	cinc	x1, x1, ne
/home/xiang/rockpi4-android/optee_os/lib/libmbedtls/mbedtls/library/bignum.c:838
    507c:	aa0003f4 	mov	x20, x0
    5080:	aa0203f3 	mov	x19, x2
/home/xiang/rockpi4-android/optee_os/lib/libmbedtls/mbedtls/library/bignum.c:844
    5084:	97fffebf 	bl	4b80 <mbedtls_mpi_resize_clear>
    5088:	35000080 	cbnz	w0, 5098 <mbedtls_mpi_read_binary_le+0x3c>
    508c:	d2800001 	mov	x1, #0x0                   	// #0
/home/xiang/rockpi4-android/optee_os/lib/libmbedtls/mbedtls/library/bignum.c:846 (discriminator 1)
    5090:	eb13003f 	cmp	x1, x19
    5094:	540000a1 	b.ne	50a8 <mbedtls_mpi_read_binary_le+0x4c>
/home/xiang/rockpi4-android/optee_os/lib/libmbedtls/mbedtls/library/bignum.c:857
    5098:	a94153f3 	ldp	x19, x20, [sp,#16]
    509c:	f94013f5 	ldr	x21, [sp,#32]
    50a0:	a8c37bfd 	ldp	x29, x30, [sp],#48
    50a4:	d65f03c0 	ret
/home/xiang/rockpi4-android/optee_os/lib/libmbedtls/mbedtls/library/bignum.c:847 (discriminator 3)
    50a8:	f9400a85 	ldr	x5, [x20,#16]
    50ac:	927ef424 	and	x4, x1, #0xfffffffffffffffc
    50b0:	38616aa2 	ldrb	w2, [x21,x1]
    50b4:	531d0423 	ubfiz	w3, w1, #3, #2
/home/xiang/rockpi4-android/optee_os/lib/libmbedtls/mbedtls/library/bignum.c:846 (discriminator 3)
    50b8:	91000421 	add	x1, x1, #0x1
/home/xiang/rockpi4-android/optee_os/lib/libmbedtls/mbedtls/library/bignum.c:847 (discriminator 3)
    50bc:	1ac32043 	lsl	w3, w2, w3
    50c0:	b86468a2 	ldr	w2, [x5,x4]
    50c4:	2a030042 	orr	w2, w2, w3
    50c8:	b82468a2 	str	w2, [x5,x4]
    50cc:	17fffff1 	b	5090 <mbedtls_mpi_read_binary_le+0x34>

00000000000050d0 <mbedtls_mpi_read_binary>:
mbedtls_mpi_read_binary():
/home/xiang/rockpi4-android/optee_os/lib/libmbedtls/mbedtls/library/bignum.c:863
    50d0:	a9bc7bfd 	stp	x29, x30, [sp,#-64]!
/home/xiang/rockpi4-android/optee_os/lib/libmbedtls/mbedtls/library/bignum.c:865
    50d4:	f240045f 	tst	x2, #0x3
/home/xiang/rockpi4-android/optee_os/lib/libmbedtls/mbedtls/library/bignum.c:863
    50d8:	910003fd 	mov	x29, sp
    50dc:	a90153f3 	stp	x19, x20, [sp,#16]
/home/xiang/rockpi4-android/optee_os/lib/libmbedtls/mbedtls/library/bignum.c:865
    50e0:	d342fc53 	lsr	x19, x2, #2
    50e4:	9a930673 	cinc	x19, x19, ne
/home/xiang/rockpi4-android/optee_os/lib/libmbedtls/mbedtls/library/bignum.c:863
    50e8:	a9025bf5 	stp	x21, x22, [sp,#32]
    50ec:	f9001bf7 	str	x23, [sp,#48]
    50f0:	aa0003f6 	mov	x22, x0
    50f4:	aa0203f4 	mov	x20, x2
    50f8:	aa0103f7 	mov	x23, x1
/home/xiang/rockpi4-android/optee_os/lib/libmbedtls/mbedtls/library/bignum.c:873
    50fc:	aa1303e1 	mov	x1, x19
    5100:	97fffea0 	bl	4b80 <mbedtls_mpi_resize_clear>
    5104:	2a0003f5 	mov	w21, w0
    5108:	350001a0 	cbnz	w0, 513c <mbedtls_mpi_read_binary+0x6c>
/home/xiang/rockpi4-android/optee_os/lib/libmbedtls/mbedtls/library/bignum.c:877
    510c:	b4000194 	cbz	x20, 513c <mbedtls_mpi_read_binary+0x6c>
/home/xiang/rockpi4-android/optee_os/lib/libmbedtls/mbedtls/library/bignum.c:880
    5110:	f9400ac3 	ldr	x3, [x22,#16]
/home/xiang/rockpi4-android/optee_os/lib/libmbedtls/mbedtls/library/bignum.c:866
    5114:	d37ef660 	lsl	x0, x19, #2
    5118:	cb140000 	sub	x0, x0, x20
/home/xiang/rockpi4-android/optee_os/lib/libmbedtls/mbedtls/library/bignum.c:880
    511c:	aa1403e2 	mov	x2, x20
    5120:	aa1703e1 	mov	x1, x23
    5124:	8b000060 	add	x0, x3, x0
    5128:	97ffebbe 	bl	20 <memcpy>
mpi_bigendian_to_host():
/home/xiang/rockpi4-android/optee_os/lib/libmbedtls/mbedtls/library/bignum.c:808
    512c:	b4000093 	cbz	x19, 513c <mbedtls_mpi_read_binary+0x6c>
    5130:	f9400ac0 	ldr	x0, [x22,#16]
    5134:	aa1303e1 	mov	x1, x19
    5138:	97fffd7c 	bl	4728 <mpi_bigendian_to_host.part.0>
mbedtls_mpi_read_binary():
/home/xiang/rockpi4-android/optee_os/lib/libmbedtls/mbedtls/library/bignum.c:893
    513c:	2a1503e0 	mov	w0, w21
    5140:	f9401bf7 	ldr	x23, [sp,#48]
    5144:	a94153f3 	ldp	x19, x20, [sp,#16]
    5148:	a9425bf5 	ldp	x21, x22, [sp,#32]
    514c:	a8c47bfd 	ldp	x29, x30, [sp],#64
    5150:	d65f03c0 	ret

0000000000005154 <mbedtls_mpi_write_binary_le>:
mbedtls_mpi_write_binary_le():
/home/xiang/rockpi4-android/optee_os/lib/libmbedtls/mbedtls/library/bignum.c:901
    5154:	f9400403 	ldr	x3, [x0,#8]
    5158:	d37ef463 	lsl	x3, x3, #2
/home/xiang/rockpi4-android/optee_os/lib/libmbedtls/mbedtls/library/bignum.c:905
    515c:	eb02007f 	cmp	x3, x2
    5160:	540003a3 	b.cc	51d4 <mbedtls_mpi_write_binary_le+0x80>
    5164:	aa0203e4 	mov	x4, x2
/home/xiang/rockpi4-android/optee_os/lib/libmbedtls/mbedtls/library/bignum.c:915 (discriminator 1)
    5168:	eb03009f 	cmp	x4, x3
    516c:	54000221 	b.ne	51b0 <mbedtls_mpi_write_binary_le+0x5c>
    5170:	aa0203e6 	mov	x6, x2
/home/xiang/rockpi4-android/optee_os/lib/libmbedtls/mbedtls/library/bignum.c:922
    5174:	d2800004 	mov	x4, #0x0                   	// #0
/home/xiang/rockpi4-android/optee_os/lib/libmbedtls/mbedtls/library/bignum.c:922 (discriminator 1)
    5178:	eb0400df 	cmp	x6, x4
    517c:	54000301 	b.ne	51dc <mbedtls_mpi_write_binary_le+0x88>
/home/xiang/rockpi4-android/optee_os/lib/libmbedtls/mbedtls/library/bignum.c:925
    5180:	eb02007f 	cmp	x3, x2
    5184:	54000402 	b.cs	5204 <mbedtls_mpi_write_binary_le+0xb0>
/home/xiang/rockpi4-android/optee_os/lib/libmbedtls/mbedtls/library/bignum.c:900
    5188:	a9bf7bfd 	stp	x29, x30, [sp,#-16]!
    518c:	aa0103e0 	mov	x0, x1
/home/xiang/rockpi4-android/optee_os/lib/libmbedtls/mbedtls/library/bignum.c:928
    5190:	cb030042 	sub	x2, x2, x3
    5194:	52800001 	mov	w1, #0x0                   	// #0
/home/xiang/rockpi4-android/optee_os/lib/libmbedtls/mbedtls/library/bignum.c:900
    5198:	910003fd 	mov	x29, sp
/home/xiang/rockpi4-android/optee_os/lib/libmbedtls/mbedtls/library/bignum.c:928
    519c:	8b030000 	add	x0, x0, x3
    51a0:	940011d9 	bl	9904 <memset>
/home/xiang/rockpi4-android/optee_os/lib/libmbedtls/mbedtls/library/bignum.c:931
    51a4:	52800000 	mov	w0, #0x0                   	// #0
/home/xiang/rockpi4-android/optee_os/lib/libmbedtls/mbedtls/library/bignum.c:932
    51a8:	a8c17bfd 	ldp	x29, x30, [sp],#16
    51ac:	d65f03c0 	ret
/home/xiang/rockpi4-android/optee_os/lib/libmbedtls/mbedtls/library/bignum.c:917
    51b0:	f9400807 	ldr	x7, [x0,#16]
    51b4:	927ef486 	and	x6, x4, #0xfffffffffffffffc
    51b8:	531d0485 	ubfiz	w5, w4, #3, #2
    51bc:	b86668e6 	ldr	w6, [x7,x6]
    51c0:	1ac524c5 	lsr	w5, w6, w5
    51c4:	12001ca5 	and	w5, w5, #0xff
    51c8:	350001a5 	cbnz	w5, 51fc <mbedtls_mpi_write_binary_le+0xa8>
/home/xiang/rockpi4-android/optee_os/lib/libmbedtls/mbedtls/library/bignum.c:915 (discriminator 2)
    51cc:	91000484 	add	x4, x4, #0x1
    51d0:	17ffffe6 	b	5168 <mbedtls_mpi_write_binary_le+0x14>
    51d4:	aa0303e6 	mov	x6, x3
    51d8:	17ffffe7 	b	5174 <mbedtls_mpi_write_binary_le+0x20>
/home/xiang/rockpi4-android/optee_os/lib/libmbedtls/mbedtls/library/bignum.c:923 (discriminator 3)
    51dc:	f9400808 	ldr	x8, [x0,#16]
    51e0:	927ef485 	and	x5, x4, #0xfffffffffffffffc
    51e4:	531d0487 	ubfiz	w7, w4, #3, #2
    51e8:	b8656905 	ldr	w5, [x8,x5]
    51ec:	1ac724a5 	lsr	w5, w5, w7
    51f0:	38246825 	strb	w5, [x1,x4]
/home/xiang/rockpi4-android/optee_os/lib/libmbedtls/mbedtls/library/bignum.c:922 (discriminator 3)
    51f4:	91000484 	add	x4, x4, #0x1
    51f8:	17ffffe0 	b	5178 <mbedtls_mpi_write_binary_le+0x24>
/home/xiang/rockpi4-android/optee_os/lib/libmbedtls/mbedtls/library/bignum.c:918
    51fc:	128000e0 	mov	w0, #0xfffffff8            	// #-8
    5200:	d65f03c0 	ret
/home/xiang/rockpi4-android/optee_os/lib/libmbedtls/mbedtls/library/bignum.c:931
    5204:	52800000 	mov	w0, #0x0                   	// #0
    5208:	d65f03c0 	ret

000000000000520c <mbedtls_mpi_write_binary>:
mbedtls_mpi_write_binary():
/home/xiang/rockpi4-android/optee_os/lib/libmbedtls/mbedtls/library/bignum.c:939
    520c:	a9bd7bfd 	stp	x29, x30, [sp,#-48]!
    5210:	910003fd 	mov	x29, sp
    5214:	a90153f3 	stp	x19, x20, [sp,#16]
    5218:	aa0003f4 	mov	x20, x0
    521c:	aa0103e0 	mov	x0, x1
/home/xiang/rockpi4-android/optee_os/lib/libmbedtls/mbedtls/library/bignum.c:948
    5220:	f9400693 	ldr	x19, [x20,#8]
/home/xiang/rockpi4-android/optee_os/lib/libmbedtls/mbedtls/library/bignum.c:939
    5224:	f90013f5 	str	x21, [sp,#32]
/home/xiang/rockpi4-android/optee_os/lib/libmbedtls/mbedtls/library/bignum.c:948
    5228:	d37ef673 	lsl	x19, x19, #2
/home/xiang/rockpi4-android/optee_os/lib/libmbedtls/mbedtls/library/bignum.c:950
    522c:	eb02027f 	cmp	x19, x2
    5230:	540001a3 	b.cc	5264 <mbedtls_mpi_write_binary+0x58>
    5234:	aa0203e1 	mov	x1, x2
/home/xiang/rockpi4-android/optee_os/lib/libmbedtls/mbedtls/library/bignum.c:967 (discriminator 1)
    5238:	eb13003f 	cmp	x1, x19
    523c:	54000200 	b.eq	527c <mbedtls_mpi_write_binary+0x70>
/home/xiang/rockpi4-android/optee_os/lib/libmbedtls/mbedtls/library/bignum.c:969
    5240:	f9400a85 	ldr	x5, [x20,#16]
    5244:	927ef424 	and	x4, x1, #0xfffffffffffffffc
    5248:	531d0423 	ubfiz	w3, w1, #3, #2
    524c:	b86468a4 	ldr	w4, [x5,x4]
    5250:	1ac32483 	lsr	w3, w4, w3
    5254:	12001c63 	and	w3, w3, #0xff
    5258:	35000363 	cbnz	w3, 52c4 <mbedtls_mpi_write_binary+0xb8>
/home/xiang/rockpi4-android/optee_os/lib/libmbedtls/mbedtls/library/bignum.c:967 (discriminator 2)
    525c:	91000421 	add	x1, x1, #0x1
    5260:	17fffff6 	b	5238 <mbedtls_mpi_write_binary+0x2c>
/home/xiang/rockpi4-android/optee_os/lib/libmbedtls/mbedtls/library/bignum.c:958
    5264:	cb130042 	sub	x2, x2, x19
    5268:	8b020035 	add	x21, x1, x2
/home/xiang/rockpi4-android/optee_os/lib/libmbedtls/mbedtls/library/bignum.c:959
    526c:	52800001 	mov	w1, #0x0                   	// #0
    5270:	940011a5 	bl	9904 <memset>
/home/xiang/rockpi4-android/optee_os/lib/libmbedtls/mbedtls/library/bignum.c:958
    5274:	aa1503e0 	mov	x0, x21
    5278:	aa1303e2 	mov	x2, x19
/home/xiang/rockpi4-android/optee_os/lib/libmbedtls/mbedtls/library/bignum.c:974
    527c:	d2800001 	mov	x1, #0x0                   	// #0
/home/xiang/rockpi4-android/optee_os/lib/libmbedtls/mbedtls/library/bignum.c:974 (discriminator 1)
    5280:	eb01005f 	cmp	x2, x1
    5284:	540000c1 	b.ne	529c <mbedtls_mpi_write_binary+0x90>
/home/xiang/rockpi4-android/optee_os/lib/libmbedtls/mbedtls/library/bignum.c:977
    5288:	52800000 	mov	w0, #0x0                   	// #0
/home/xiang/rockpi4-android/optee_os/lib/libmbedtls/mbedtls/library/bignum.c:978
    528c:	a94153f3 	ldp	x19, x20, [sp,#16]
    5290:	f94013f5 	ldr	x21, [sp,#32]
    5294:	a8c37bfd 	ldp	x29, x30, [sp],#48
    5298:	d65f03c0 	ret
/home/xiang/rockpi4-android/optee_os/lib/libmbedtls/mbedtls/library/bignum.c:975 (discriminator 3)
    529c:	f9400a86 	ldr	x6, [x20,#16]
    52a0:	927ef424 	and	x4, x1, #0xfffffffffffffffc
    52a4:	cb010043 	sub	x3, x2, x1
    52a8:	531d0425 	ubfiz	w5, w1, #3, #2
    52ac:	8b030003 	add	x3, x0, x3
/home/xiang/rockpi4-android/optee_os/lib/libmbedtls/mbedtls/library/bignum.c:974 (discriminator 3)
    52b0:	91000421 	add	x1, x1, #0x1
/home/xiang/rockpi4-android/optee_os/lib/libmbedtls/mbedtls/library/bignum.c:975 (discriminator 3)
    52b4:	b86468c4 	ldr	w4, [x6,x4]
    52b8:	1ac52484 	lsr	w4, w4, w5
    52bc:	381ff064 	sturb	w4, [x3,#-1]
    52c0:	17fffff0 	b	5280 <mbedtls_mpi_write_binary+0x74>
/home/xiang/rockpi4-android/optee_os/lib/libmbedtls/mbedtls/library/bignum.c:970
    52c4:	128000e0 	mov	w0, #0xfffffff8            	// #-8
    52c8:	17fffff1 	b	528c <mbedtls_mpi_write_binary+0x80>

00000000000052cc <mbedtls_mpi_shift_l>:
mbedtls_mpi_shift_l():
/home/xiang/rockpi4-android/optee_os/lib/libmbedtls/mbedtls/library/bignum.c:984
    52cc:	a9bd7bfd 	stp	x29, x30, [sp,#-48]!
    52d0:	910003fd 	mov	x29, sp
    52d4:	a9025bf5 	stp	x21, x22, [sp,#32]
    52d8:	aa0003f5 	mov	x21, x0
    52dc:	a90153f3 	stp	x19, x20, [sp,#16]
/home/xiang/rockpi4-android/optee_os/lib/libmbedtls/mbedtls/library/bignum.c:991
    52e0:	92401036 	and	x22, x1, #0x1f
/home/xiang/rockpi4-android/optee_os/lib/libmbedtls/mbedtls/library/bignum.c:984
    52e4:	aa0103f3 	mov	x19, x1
/home/xiang/rockpi4-android/optee_os/lib/libmbedtls/mbedtls/library/bignum.c:990
    52e8:	d345fc34 	lsr	x20, x1, #5
/home/xiang/rockpi4-android/optee_os/lib/libmbedtls/mbedtls/library/bignum.c:993
    52ec:	97ffff3a 	bl	4fd4 <mbedtls_mpi_bitlen>
    52f0:	8b000260 	add	x0, x19, x0
/home/xiang/rockpi4-android/optee_os/lib/libmbedtls/mbedtls/library/bignum.c:995
    52f4:	f94006a1 	ldr	x1, [x21,#8]
    52f8:	eb01141f 	cmp	x0, x1, lsl #5
    52fc:	540000a8 	b.hi	5310 <mbedtls_mpi_shift_l+0x44>
/home/xiang/rockpi4-android/optee_os/lib/libmbedtls/mbedtls/library/bignum.c:1003
    5300:	b50001d4 	cbnz	x20, 5338 <mbedtls_mpi_shift_l+0x6c>
/home/xiang/rockpi4-android/optee_os/lib/libmbedtls/mbedtls/library/bignum.c:1015
    5304:	b5000456 	cbnz	x22, 538c <mbedtls_mpi_shift_l+0xc0>
/home/xiang/rockpi4-android/optee_os/lib/libmbedtls/mbedtls/library/bignum.c:998
    5308:	52800000 	mov	w0, #0x0                   	// #0
    530c:	14000007 	b	5328 <mbedtls_mpi_shift_l+0x5c>
/home/xiang/rockpi4-android/optee_os/lib/libmbedtls/mbedtls/library/bignum.c:996
    5310:	f240101f 	tst	x0, #0x1f
    5314:	d345fc01 	lsr	x1, x0, #5
    5318:	9a810421 	cinc	x1, x1, ne
    531c:	aa1503e0 	mov	x0, x21
    5320:	97fffddb 	bl	4a8c <mbedtls_mpi_grow>
    5324:	34fffee0 	cbz	w0, 5300 <mbedtls_mpi_shift_l+0x34>
/home/xiang/rockpi4-android/optee_os/lib/libmbedtls/mbedtls/library/bignum.c:1029
    5328:	a94153f3 	ldp	x19, x20, [sp,#16]
    532c:	a9425bf5 	ldp	x21, x22, [sp,#32]
    5330:	a8c37bfd 	ldp	x29, x30, [sp],#48
    5334:	d65f03c0 	ret
/home/xiang/rockpi4-android/optee_os/lib/libmbedtls/mbedtls/library/bignum.c:1005
    5338:	f94006a0 	ldr	x0, [x21,#8]
    533c:	92800062 	mov	x2, #0xfffffffffffffffc    	// #-4
    5340:	9b027e82 	mul	x2, x20, x2
    5344:	d37ef401 	lsl	x1, x0, #2
    5348:	d1001021 	sub	x1, x1, #0x4
/home/xiang/rockpi4-android/optee_os/lib/libmbedtls/mbedtls/library/bignum.c:1005 (discriminator 1)
    534c:	eb14001f 	cmp	x0, x20
    5350:	54000108 	b.hi	5370 <mbedtls_mpi_shift_l+0xa4>
    5354:	d37ef400 	lsl	x0, x0, #2
    5358:	d1001000 	sub	x0, x0, #0x4
/home/xiang/rockpi4-android/optee_os/lib/libmbedtls/mbedtls/library/bignum.c:1008 (discriminator 2)
    535c:	b100101f 	cmn	x0, #0x4
    5360:	54fffd20 	b.eq	5304 <mbedtls_mpi_shift_l+0x38>
/home/xiang/rockpi4-android/optee_os/lib/libmbedtls/mbedtls/library/bignum.c:1009 (discriminator 2)
    5364:	f9400aa1 	ldr	x1, [x21,#16]
    5368:	b820683f 	str	wzr, [x1,x0]
    536c:	17fffffb 	b	5358 <mbedtls_mpi_shift_l+0x8c>
/home/xiang/rockpi4-android/optee_os/lib/libmbedtls/mbedtls/library/bignum.c:1006 (discriminator 3)
    5370:	f9400aa3 	ldr	x3, [x21,#16]
/home/xiang/rockpi4-android/optee_os/lib/libmbedtls/mbedtls/library/bignum.c:1005 (discriminator 3)
    5374:	d1000400 	sub	x0, x0, #0x1
/home/xiang/rockpi4-android/optee_os/lib/libmbedtls/mbedtls/library/bignum.c:1006 (discriminator 3)
    5378:	8b010064 	add	x4, x3, x1
    537c:	b8626884 	ldr	w4, [x4,x2]
    5380:	b8216864 	str	w4, [x3,x1]
    5384:	d1001021 	sub	x1, x1, #0x4
    5388:	17fffff1 	b	534c <mbedtls_mpi_shift_l+0x80>
/home/xiang/rockpi4-android/optee_os/lib/libmbedtls/mbedtls/library/bignum.c:1017
    538c:	f94006a6 	ldr	x6, [x21,#8]
/home/xiang/rockpi4-android/optee_os/lib/libmbedtls/mbedtls/library/bignum.c:1019
    5390:	52800401 	mov	w1, #0x20                  	// #32
    5394:	d37ef680 	lsl	x0, x20, #2
    5398:	4b160021 	sub	w1, w1, w22
/home/xiang/rockpi4-android/optee_os/lib/libmbedtls/mbedtls/library/bignum.c:1017
    539c:	52800003 	mov	w3, #0x0                   	// #0
/home/xiang/rockpi4-android/optee_os/lib/libmbedtls/mbedtls/library/bignum.c:1017 (discriminator 1)
    53a0:	eb06029f 	cmp	x20, x6
    53a4:	54fffb22 	b.cs	5308 <mbedtls_mpi_shift_l+0x3c>
/home/xiang/rockpi4-android/optee_os/lib/libmbedtls/mbedtls/library/bignum.c:1019 (discriminator 3)
    53a8:	f9400aa5 	ldr	x5, [x21,#16]
/home/xiang/rockpi4-android/optee_os/lib/libmbedtls/mbedtls/library/bignum.c:1017 (discriminator 3)
    53ac:	91000694 	add	x20, x20, #0x1
/home/xiang/rockpi4-android/optee_os/lib/libmbedtls/mbedtls/library/bignum.c:1019 (discriminator 3)
    53b0:	b86068a4 	ldr	w4, [x5,x0]
/home/xiang/rockpi4-android/optee_os/lib/libmbedtls/mbedtls/library/bignum.c:1020 (discriminator 3)
    53b4:	1ad62082 	lsl	w2, w4, w22
/home/xiang/rockpi4-android/optee_os/lib/libmbedtls/mbedtls/library/bignum.c:1021 (discriminator 3)
    53b8:	2a030042 	orr	w2, w2, w3
/home/xiang/rockpi4-android/optee_os/lib/libmbedtls/mbedtls/library/bignum.c:1019 (discriminator 3)
    53bc:	1ac12483 	lsr	w3, w4, w1
/home/xiang/rockpi4-android/optee_os/lib/libmbedtls/mbedtls/library/bignum.c:1021 (discriminator 3)
    53c0:	b82068a2 	str	w2, [x5,x0]
    53c4:	91001000 	add	x0, x0, #0x4
    53c8:	17fffff6 	b	53a0 <mbedtls_mpi_shift_l+0xd4>

00000000000053cc <mbedtls_mpi_shift_r>:
mbedtls_mpi_shift_r():
/home/xiang/rockpi4-android/optee_os/lib/libmbedtls/mbedtls/library/bignum.c:1043
    53cc:	f9400402 	ldr	x2, [x0,#8]
/home/xiang/rockpi4-android/optee_os/lib/libmbedtls/mbedtls/library/bignum.c:1040
    53d0:	d345fc24 	lsr	x4, x1, #5
/home/xiang/rockpi4-android/optee_os/lib/libmbedtls/mbedtls/library/bignum.c:1041
    53d4:	92401021 	and	x1, x1, #0x1f
/home/xiang/rockpi4-android/optee_os/lib/libmbedtls/mbedtls/library/bignum.c:1043
    53d8:	eb02009f 	cmp	x4, x2
    53dc:	54000068 	b.hi	53e8 <mbedtls_mpi_shift_r+0x1c>
/home/xiang/rockpi4-android/optee_os/lib/libmbedtls/mbedtls/library/bignum.c:1043 (discriminator 1)
    53e0:	54000081 	b.ne	53f0 <mbedtls_mpi_shift_r+0x24>
/home/xiang/rockpi4-android/optee_os/lib/libmbedtls/mbedtls/library/bignum.c:1043 (discriminator 2)
    53e4:	b40004c1 	cbz	x1, 547c <mbedtls_mpi_shift_r+0xb0>
/home/xiang/rockpi4-android/optee_os/lib/libmbedtls/mbedtls/library/bignum.c:1044
    53e8:	52800001 	mov	w1, #0x0                   	// #0
    53ec:	17fffe9c 	b	4e5c <mbedtls_mpi_lset>
/home/xiang/rockpi4-android/optee_os/lib/libmbedtls/mbedtls/library/bignum.c:1049
    53f0:	b5000484 	cbnz	x4, 5480 <mbedtls_mpi_shift_r+0xb4>
/home/xiang/rockpi4-android/optee_os/lib/libmbedtls/mbedtls/library/bignum.c:1061
    53f4:	b40000e1 	cbz	x1, 5410 <mbedtls_mpi_shift_r+0x44>
    53f8:	d37ef443 	lsl	x3, x2, #2
/home/xiang/rockpi4-android/optee_os/lib/libmbedtls/mbedtls/library/bignum.c:1065 (discriminator 1)
    53fc:	52800404 	mov	w4, #0x20                  	// #32
    5400:	d1001063 	sub	x3, x3, #0x4
    5404:	4b010084 	sub	w4, w4, w1
/home/xiang/rockpi4-android/optee_os/lib/libmbedtls/mbedtls/library/bignum.c:1061 (discriminator 1)
    5408:	52800006 	mov	w6, #0x0                   	// #0
/home/xiang/rockpi4-android/optee_os/lib/libmbedtls/mbedtls/library/bignum.c:1063 (discriminator 1)
    540c:	b5000262 	cbnz	x2, 5458 <mbedtls_mpi_shift_r+0x8c>
/home/xiang/rockpi4-android/optee_os/lib/libmbedtls/mbedtls/library/bignum.c:1073
    5410:	52800000 	mov	w0, #0x0                   	// #0
    5414:	d65f03c0 	ret
/home/xiang/rockpi4-android/optee_os/lib/libmbedtls/mbedtls/library/bignum.c:1052 (discriminator 3)
    5418:	f9400805 	ldr	x5, [x0,#16]
    541c:	8b040066 	add	x6, x3, x4
    5420:	b86678a6 	ldr	w6, [x5,x6,lsl #2]
    5424:	b82378a6 	str	w6, [x5,x3,lsl #2]
/home/xiang/rockpi4-android/optee_os/lib/libmbedtls/mbedtls/library/bignum.c:1051 (discriminator 3)
    5428:	91000463 	add	x3, x3, #0x1
/home/xiang/rockpi4-android/optee_os/lib/libmbedtls/mbedtls/library/bignum.c:1051 (discriminator 1)
    542c:	cb040045 	sub	x5, x2, x4
    5430:	eb05007f 	cmp	x3, x5
    5434:	54ffff23 	b.cc	5418 <mbedtls_mpi_shift_r+0x4c>
    5438:	d37ef4a3 	lsl	x3, x5, #2
/home/xiang/rockpi4-android/optee_os/lib/libmbedtls/mbedtls/library/bignum.c:1054 (discriminator 1)
    543c:	eb0200bf 	cmp	x5, x2
    5440:	54fffda2 	b.cs	53f4 <mbedtls_mpi_shift_r+0x28>
/home/xiang/rockpi4-android/optee_os/lib/libmbedtls/mbedtls/library/bignum.c:1055 (discriminator 2)
    5444:	f9400804 	ldr	x4, [x0,#16]
/home/xiang/rockpi4-android/optee_os/lib/libmbedtls/mbedtls/library/bignum.c:1054 (discriminator 2)
    5448:	910004a5 	add	x5, x5, #0x1
/home/xiang/rockpi4-android/optee_os/lib/libmbedtls/mbedtls/library/bignum.c:1055 (discriminator 2)
    544c:	b823689f 	str	wzr, [x4,x3]
    5450:	91001063 	add	x3, x3, #0x4
    5454:	17fffffa 	b	543c <mbedtls_mpi_shift_r+0x70>
/home/xiang/rockpi4-android/optee_os/lib/libmbedtls/mbedtls/library/bignum.c:1065 (discriminator 3)
    5458:	f9400808 	ldr	x8, [x0,#16]
/home/xiang/rockpi4-android/optee_os/lib/libmbedtls/mbedtls/library/bignum.c:1063 (discriminator 3)
    545c:	d1000442 	sub	x2, x2, #0x1
/home/xiang/rockpi4-android/optee_os/lib/libmbedtls/mbedtls/library/bignum.c:1065 (discriminator 3)
    5460:	b8636907 	ldr	w7, [x8,x3]
/home/xiang/rockpi4-android/optee_os/lib/libmbedtls/mbedtls/library/bignum.c:1066 (discriminator 3)
    5464:	1ac124e5 	lsr	w5, w7, w1
/home/xiang/rockpi4-android/optee_os/lib/libmbedtls/mbedtls/library/bignum.c:1067 (discriminator 3)
    5468:	2a0600a5 	orr	w5, w5, w6
/home/xiang/rockpi4-android/optee_os/lib/libmbedtls/mbedtls/library/bignum.c:1065 (discriminator 3)
    546c:	1ac420e6 	lsl	w6, w7, w4
/home/xiang/rockpi4-android/optee_os/lib/libmbedtls/mbedtls/library/bignum.c:1067 (discriminator 3)
    5470:	b8236905 	str	w5, [x8,x3]
    5474:	d1001063 	sub	x3, x3, #0x4
    5478:	17ffffe5 	b	540c <mbedtls_mpi_shift_r+0x40>
/home/xiang/rockpi4-android/optee_os/lib/libmbedtls/mbedtls/library/bignum.c:1049
    547c:	b4fffca4 	cbz	x4, 5410 <mbedtls_mpi_shift_r+0x44>
    5480:	d2800003 	mov	x3, #0x0                   	// #0
    5484:	17ffffea 	b	542c <mbedtls_mpi_shift_r+0x60>

0000000000005488 <mbedtls_mpi_cmp_abs>:
mbedtls_mpi_cmp_abs():
/home/xiang/rockpi4-android/optee_os/lib/libmbedtls/mbedtls/library/bignum.c:1084
    5488:	f9400402 	ldr	x2, [x0,#8]
    548c:	d37ef443 	lsl	x3, x2, #2
    5490:	d1001063 	sub	x3, x3, #0x4
/home/xiang/rockpi4-android/optee_os/lib/libmbedtls/mbedtls/library/bignum.c:1084 (discriminator 1)
    5494:	b50001e2 	cbnz	x2, 54d0 <mbedtls_mpi_cmp_abs+0x48>
/home/xiang/rockpi4-android/optee_os/lib/libmbedtls/mbedtls/library/bignum.c:1088
    5498:	f9400423 	ldr	x3, [x1,#8]
    549c:	d37ef464 	lsl	x4, x3, #2
    54a0:	d1001084 	sub	x4, x4, #0x4
/home/xiang/rockpi4-android/optee_os/lib/libmbedtls/mbedtls/library/bignum.c:1088 (discriminator 1)
    54a4:	b5000223 	cbnz	x3, 54e8 <mbedtls_mpi_cmp_abs+0x60>
/home/xiang/rockpi4-android/optee_os/lib/libmbedtls/mbedtls/library/bignum.c:1092
    54a8:	aa030044 	orr	x4, x2, x3
    54ac:	b40000e4 	cbz	x4, 54c8 <mbedtls_mpi_cmp_abs+0x40>
/home/xiang/rockpi4-android/optee_os/lib/libmbedtls/mbedtls/library/bignum.c:1095
    54b0:	eb03005f 	cmp	x2, x3
    54b4:	540003a8 	b.hi	5528 <mbedtls_mpi_cmp_abs+0xa0>
/home/xiang/rockpi4-android/optee_os/lib/libmbedtls/mbedtls/library/bignum.c:1096
    54b8:	540003c3 	b.cc	5530 <mbedtls_mpi_cmp_abs+0xa8>
    54bc:	d37ef443 	lsl	x3, x2, #2
    54c0:	d1001063 	sub	x3, x3, #0x4
/home/xiang/rockpi4-android/optee_os/lib/libmbedtls/mbedtls/library/bignum.c:1098 (discriminator 1)
    54c4:	b50001e2 	cbnz	x2, 5500 <mbedtls_mpi_cmp_abs+0x78>
/home/xiang/rockpi4-android/optee_os/lib/libmbedtls/mbedtls/library/bignum.c:1093
    54c8:	52800000 	mov	w0, #0x0                   	// #0
    54cc:	d65f03c0 	ret
/home/xiang/rockpi4-android/optee_os/lib/libmbedtls/mbedtls/library/bignum.c:1085
    54d0:	f9400804 	ldr	x4, [x0,#16]
    54d4:	b8636884 	ldr	w4, [x4,x3]
    54d8:	d1001063 	sub	x3, x3, #0x4
    54dc:	35fffde4 	cbnz	w4, 5498 <mbedtls_mpi_cmp_abs+0x10>
/home/xiang/rockpi4-android/optee_os/lib/libmbedtls/mbedtls/library/bignum.c:1084 (discriminator 2)
    54e0:	d1000442 	sub	x2, x2, #0x1
    54e4:	17ffffec 	b	5494 <mbedtls_mpi_cmp_abs+0xc>
/home/xiang/rockpi4-android/optee_os/lib/libmbedtls/mbedtls/library/bignum.c:1089
    54e8:	f9400825 	ldr	x5, [x1,#16]
    54ec:	b86468a5 	ldr	w5, [x5,x4]
    54f0:	d1001084 	sub	x4, x4, #0x4
    54f4:	35fffda5 	cbnz	w5, 54a8 <mbedtls_mpi_cmp_abs+0x20>
/home/xiang/rockpi4-android/optee_os/lib/libmbedtls/mbedtls/library/bignum.c:1088 (discriminator 2)
    54f8:	d1000463 	sub	x3, x3, #0x1
    54fc:	17ffffea 	b	54a4 <mbedtls_mpi_cmp_abs+0x1c>
/home/xiang/rockpi4-android/optee_os/lib/libmbedtls/mbedtls/library/bignum.c:1100
    5500:	f9400804 	ldr	x4, [x0,#16]
    5504:	b8636885 	ldr	w5, [x4,x3]
    5508:	f9400824 	ldr	x4, [x1,#16]
    550c:	b8636884 	ldr	w4, [x4,x3]
    5510:	6b0400bf 	cmp	w5, w4
    5514:	540000a8 	b.hi	5528 <mbedtls_mpi_cmp_abs+0xa0>
    5518:	d1001063 	sub	x3, x3, #0x4
/home/xiang/rockpi4-android/optee_os/lib/libmbedtls/mbedtls/library/bignum.c:1101
    551c:	540000a3 	b.cc	5530 <mbedtls_mpi_cmp_abs+0xa8>
/home/xiang/rockpi4-android/optee_os/lib/libmbedtls/mbedtls/library/bignum.c:1098
    5520:	d1000442 	sub	x2, x2, #0x1
    5524:	17ffffe8 	b	54c4 <mbedtls_mpi_cmp_abs+0x3c>
/home/xiang/rockpi4-android/optee_os/lib/libmbedtls/mbedtls/library/bignum.c:1095
    5528:	52800020 	mov	w0, #0x1                   	// #1
    552c:	d65f03c0 	ret
/home/xiang/rockpi4-android/optee_os/lib/libmbedtls/mbedtls/library/bignum.c:1096
    5530:	12800000 	mov	w0, #0xffffffff            	// #-1
/home/xiang/rockpi4-android/optee_os/lib/libmbedtls/mbedtls/library/bignum.c:1105
    5534:	d65f03c0 	ret

0000000000005538 <mbedtls_mpi_cmp_mpi>:
mbedtls_mpi_cmp_mpi():
/home/xiang/rockpi4-android/optee_os/lib/libmbedtls/mbedtls/library/bignum.c:1116
    5538:	f9400403 	ldr	x3, [x0,#8]
    553c:	d37ef462 	lsl	x2, x3, #2
    5540:	d1001042 	sub	x2, x2, #0x4
/home/xiang/rockpi4-android/optee_os/lib/libmbedtls/mbedtls/library/bignum.c:1116 (discriminator 1)
    5544:	b5000163 	cbnz	x3, 5570 <mbedtls_mpi_cmp_mpi+0x38>
/home/xiang/rockpi4-android/optee_os/lib/libmbedtls/mbedtls/library/bignum.c:1120
    5548:	f9400422 	ldr	x2, [x1,#8]
    554c:	d37ef444 	lsl	x4, x2, #2
    5550:	d1001084 	sub	x4, x4, #0x4
/home/xiang/rockpi4-android/optee_os/lib/libmbedtls/mbedtls/library/bignum.c:1120 (discriminator 1)
    5554:	b50001a2 	cbnz	x2, 5588 <mbedtls_mpi_cmp_mpi+0x50>
/home/xiang/rockpi4-android/optee_os/lib/libmbedtls/mbedtls/library/bignum.c:1124
    5558:	aa020064 	orr	x4, x3, x2
    555c:	b40003e4 	cbz	x4, 55d8 <mbedtls_mpi_cmp_mpi+0xa0>
/home/xiang/rockpi4-android/optee_os/lib/libmbedtls/mbedtls/library/bignum.c:1127
    5560:	eb02007f 	cmp	x3, x2
    5564:	540001e9 	b.ls	55a0 <mbedtls_mpi_cmp_mpi+0x68>
/home/xiang/rockpi4-android/optee_os/lib/libmbedtls/mbedtls/library/bignum.c:1127 (discriminator 1)
    5568:	79c00000 	ldrsh	w0, [x0]
    556c:	d65f03c0 	ret
/home/xiang/rockpi4-android/optee_os/lib/libmbedtls/mbedtls/library/bignum.c:1117
    5570:	f9400804 	ldr	x4, [x0,#16]
    5574:	b8626884 	ldr	w4, [x4,x2]
    5578:	d1001042 	sub	x2, x2, #0x4
    557c:	35fffe64 	cbnz	w4, 5548 <mbedtls_mpi_cmp_mpi+0x10>
/home/xiang/rockpi4-android/optee_os/lib/libmbedtls/mbedtls/library/bignum.c:1116 (discriminator 2)
    5580:	d1000463 	sub	x3, x3, #0x1
    5584:	17fffff0 	b	5544 <mbedtls_mpi_cmp_mpi+0xc>
/home/xiang/rockpi4-android/optee_os/lib/libmbedtls/mbedtls/library/bignum.c:1121
    5588:	f9400825 	ldr	x5, [x1,#16]
    558c:	b86468a5 	ldr	w5, [x5,x4]
    5590:	d1001084 	sub	x4, x4, #0x4
    5594:	35fffe25 	cbnz	w5, 5558 <mbedtls_mpi_cmp_mpi+0x20>
/home/xiang/rockpi4-android/optee_os/lib/libmbedtls/mbedtls/library/bignum.c:1120 (discriminator 2)
    5598:	d1000442 	sub	x2, x2, #0x1
    559c:	17ffffee 	b	5554 <mbedtls_mpi_cmp_mpi+0x1c>
    55a0:	79c00024 	ldrsh	w4, [x1]
/home/xiang/rockpi4-android/optee_os/lib/libmbedtls/mbedtls/library/bignum.c:1128
    55a4:	54000062 	b.cs	55b0 <mbedtls_mpi_cmp_mpi+0x78>
/home/xiang/rockpi4-android/optee_os/lib/libmbedtls/mbedtls/library/bignum.c:1128 (discriminator 1)
    55a8:	4b0403e0 	neg	w0, w4
    55ac:	d65f03c0 	ret
/home/xiang/rockpi4-android/optee_os/lib/libmbedtls/mbedtls/library/bignum.c:1130
    55b0:	79c00002 	ldrsh	w2, [x0]
    55b4:	7100005f 	cmp	w2, #0x0
    55b8:	5400004d 	b.le	55c0 <mbedtls_mpi_cmp_mpi+0x88>
/home/xiang/rockpi4-android/optee_os/lib/libmbedtls/mbedtls/library/bignum.c:1130 (discriminator 1)
    55bc:	37f802e4 	tbnz	w4, #31, 5618 <mbedtls_mpi_cmp_mpi+0xe0>
/home/xiang/rockpi4-android/optee_os/lib/libmbedtls/mbedtls/library/bignum.c:1131
    55c0:	7100009f 	cmp	w4, #0x0
    55c4:	5400004d 	b.le	55cc <mbedtls_mpi_cmp_mpi+0x94>
/home/xiang/rockpi4-android/optee_os/lib/libmbedtls/mbedtls/library/bignum.c:1131 (discriminator 1)
    55c8:	37f802c2 	tbnz	w2, #31, 5620 <mbedtls_mpi_cmp_mpi+0xe8>
    55cc:	d37ef464 	lsl	x4, x3, #2
    55d0:	d1001084 	sub	x4, x4, #0x4
/home/xiang/rockpi4-android/optee_os/lib/libmbedtls/mbedtls/library/bignum.c:1133 (discriminator 1)
    55d4:	b5000063 	cbnz	x3, 55e0 <mbedtls_mpi_cmp_mpi+0xa8>
/home/xiang/rockpi4-android/optee_os/lib/libmbedtls/mbedtls/library/bignum.c:1125
    55d8:	52800000 	mov	w0, #0x0                   	// #0
    55dc:	d65f03c0 	ret
/home/xiang/rockpi4-android/optee_os/lib/libmbedtls/mbedtls/library/bignum.c:1135
    55e0:	f9400805 	ldr	x5, [x0,#16]
    55e4:	b86468a6 	ldr	w6, [x5,x4]
    55e8:	f9400825 	ldr	x5, [x1,#16]
    55ec:	b86468a5 	ldr	w5, [x5,x4]
    55f0:	6b0500df 	cmp	w6, w5
    55f4:	54000069 	b.ls	5600 <mbedtls_mpi_cmp_mpi+0xc8>
/home/xiang/rockpi4-android/optee_os/lib/libmbedtls/mbedtls/library/bignum.c:1135 (discriminator 1)
    55f8:	2a0203e0 	mov	w0, w2
    55fc:	d65f03c0 	ret
    5600:	d1001084 	sub	x4, x4, #0x4
/home/xiang/rockpi4-android/optee_os/lib/libmbedtls/mbedtls/library/bignum.c:1136
    5604:	54000062 	b.cs	5610 <mbedtls_mpi_cmp_mpi+0xd8>
/home/xiang/rockpi4-android/optee_os/lib/libmbedtls/mbedtls/library/bignum.c:1136 (discriminator 1)
    5608:	4b0203e0 	neg	w0, w2
    560c:	d65f03c0 	ret
/home/xiang/rockpi4-android/optee_os/lib/libmbedtls/mbedtls/library/bignum.c:1133
    5610:	d1000463 	sub	x3, x3, #0x1
    5614:	17fffff0 	b	55d4 <mbedtls_mpi_cmp_mpi+0x9c>
/home/xiang/rockpi4-android/optee_os/lib/libmbedtls/mbedtls/library/bignum.c:1130
    5618:	52800020 	mov	w0, #0x1                   	// #1
    561c:	d65f03c0 	ret
/home/xiang/rockpi4-android/optee_os/lib/libmbedtls/mbedtls/library/bignum.c:1131
    5620:	12800000 	mov	w0, #0xffffffff            	// #-1
/home/xiang/rockpi4-android/optee_os/lib/libmbedtls/mbedtls/library/bignum.c:1140
    5624:	d65f03c0 	ret

0000000000005628 <mbedtls_mpi_cmp_int>:
mbedtls_mpi_cmp_int():
/home/xiang/rockpi4-android/optee_os/lib/libmbedtls/mbedtls/library/bignum.c:1146
    5628:	a9bd7bfd 	stp	x29, x30, [sp,#-48]!
/home/xiang/rockpi4-android/optee_os/lib/libmbedtls/mbedtls/library/bignum.c:1151
    562c:	7100003f 	cmp	w1, #0x0
    5630:	5a81a422 	cneg	w2, w1, lt
/home/xiang/rockpi4-android/optee_os/lib/libmbedtls/mbedtls/library/bignum.c:1153
    5634:	d2800021 	mov	x1, #0x1                   	// #1
/home/xiang/rockpi4-android/optee_os/lib/libmbedtls/mbedtls/library/bignum.c:1146
    5638:	910003fd 	mov	x29, sp
/home/xiang/rockpi4-android/optee_os/lib/libmbedtls/mbedtls/library/bignum.c:1151
    563c:	b90013a2 	str	w2, [x29,#16]
/home/xiang/rockpi4-android/optee_os/lib/libmbedtls/mbedtls/library/bignum.c:1152
    5640:	52800022 	mov	w2, #0x1                   	// #1
    5644:	5a82a442 	cneg	w2, w2, lt
/home/xiang/rockpi4-android/optee_os/lib/libmbedtls/mbedtls/library/bignum.c:1153
    5648:	f90013a1 	str	x1, [x29,#32]
/home/xiang/rockpi4-android/optee_os/lib/libmbedtls/mbedtls/library/bignum.c:1154
    564c:	910043a1 	add	x1, x29, #0x10
/home/xiang/rockpi4-android/optee_os/lib/libmbedtls/mbedtls/library/bignum.c:1152
    5650:	790033a2 	strh	w2, [x29,#24]
/home/xiang/rockpi4-android/optee_os/lib/libmbedtls/mbedtls/library/bignum.c:1154
    5654:	f90017a1 	str	x1, [x29,#40]
/home/xiang/rockpi4-android/optee_os/lib/libmbedtls/mbedtls/library/bignum.c:1156
    5658:	910063a1 	add	x1, x29, #0x18
    565c:	97ffffb7 	bl	5538 <mbedtls_mpi_cmp_mpi>
/home/xiang/rockpi4-android/optee_os/lib/libmbedtls/mbedtls/library/bignum.c:1157
    5660:	a8c37bfd 	ldp	x29, x30, [sp],#48
    5664:	d65f03c0 	ret

0000000000005668 <mbedtls_mpi_add_abs>:
mbedtls_mpi_add_abs():
/home/xiang/rockpi4-android/optee_os/lib/libmbedtls/mbedtls/library/bignum.c:1163
    5668:	a9bc7bfd 	stp	x29, x30, [sp,#-64]!
/home/xiang/rockpi4-android/optee_os/lib/libmbedtls/mbedtls/library/bignum.c:1171
    566c:	eb02001f 	cmp	x0, x2
/home/xiang/rockpi4-android/optee_os/lib/libmbedtls/mbedtls/library/bignum.c:1163
    5670:	910003fd 	mov	x29, sp
    5674:	a90153f3 	stp	x19, x20, [sp,#16]
    5678:	aa0103f4 	mov	x20, x1
    567c:	a9025bf5 	stp	x21, x22, [sp,#32]
    5680:	aa0003f5 	mov	x21, x0
    5684:	f9001bf7 	str	x23, [sp,#48]
/home/xiang/rockpi4-android/optee_os/lib/libmbedtls/mbedtls/library/bignum.c:1171
    5688:	540000a0 	b.eq	569c <mbedtls_mpi_add_abs+0x34>
    568c:	aa0203f3 	mov	x19, x2
/home/xiang/rockpi4-android/optee_os/lib/libmbedtls/mbedtls/library/bignum.c:1176
    5690:	eb01001f 	cmp	x0, x1
    5694:	54000501 	b.ne	5734 <mbedtls_mpi_add_abs+0xcc>
/home/xiang/rockpi4-android/optee_os/lib/libmbedtls/mbedtls/library/bignum.c:1163
    5698:	aa1303f4 	mov	x20, x19
/home/xiang/rockpi4-android/optee_os/lib/libmbedtls/mbedtls/library/bignum.c:1184
    569c:	f9400693 	ldr	x19, [x20,#8]
/home/xiang/rockpi4-android/optee_os/lib/libmbedtls/mbedtls/library/bignum.c:1182
    56a0:	52800020 	mov	w0, #0x1                   	// #1
    56a4:	790002a0 	strh	w0, [x21]
    56a8:	d37ef660 	lsl	x0, x19, #2
    56ac:	d1001000 	sub	x0, x0, #0x4
/home/xiang/rockpi4-android/optee_os/lib/libmbedtls/mbedtls/library/bignum.c:1184 (discriminator 1)
    56b0:	b5000553 	cbnz	x19, 5758 <mbedtls_mpi_add_abs+0xf0>
/home/xiang/rockpi4-android/optee_os/lib/libmbedtls/mbedtls/library/bignum.c:1188
    56b4:	aa1303e1 	mov	x1, x19
    56b8:	aa1503e0 	mov	x0, x21
    56bc:	97fffcf4 	bl	4a8c <mbedtls_mpi_grow>
    56c0:	2a0003f6 	mov	w22, w0
    56c4:	350003e0 	cbnz	w0, 5740 <mbedtls_mpi_add_abs+0xd8>
/home/xiang/rockpi4-android/optee_os/lib/libmbedtls/mbedtls/library/bignum.c:1190
    56c8:	f9400aa0 	ldr	x0, [x21,#16]
/home/xiang/rockpi4-android/optee_os/lib/libmbedtls/mbedtls/library/bignum.c:1195
    56cc:	d2800001 	mov	x1, #0x0                   	// #0
/home/xiang/rockpi4-android/optee_os/lib/libmbedtls/mbedtls/library/bignum.c:1190
    56d0:	f9400a84 	ldr	x4, [x20,#16]
    56d4:	52800014 	mov	w20, #0x0                   	// #0
/home/xiang/rockpi4-android/optee_os/lib/libmbedtls/mbedtls/library/bignum.c:1195 (discriminator 1)
    56d8:	eb13003f 	cmp	x1, x19
    56dc:	540004a1 	b.ne	5770 <mbedtls_mpi_add_abs+0x108>
    56e0:	d37ef437 	lsl	x23, x1, #2
    56e4:	8b170000 	add	x0, x0, x23
/home/xiang/rockpi4-android/optee_os/lib/libmbedtls/mbedtls/library/bignum.c:1202
    56e8:	340002d4 	cbz	w20, 5740 <mbedtls_mpi_add_abs+0xd8>
/home/xiang/rockpi4-android/optee_os/lib/libmbedtls/mbedtls/library/bignum.c:1204
    56ec:	f94006a2 	ldr	x2, [x21,#8]
    56f0:	91000433 	add	x19, x1, #0x1
    56f4:	eb02003f 	cmp	x1, x2
    56f8:	540000e3 	b.cc	5714 <mbedtls_mpi_add_abs+0xac>
/home/xiang/rockpi4-android/optee_os/lib/libmbedtls/mbedtls/library/bignum.c:1206
    56fc:	aa1303e1 	mov	x1, x19
    5700:	aa1503e0 	mov	x0, x21
    5704:	97fffce2 	bl	4a8c <mbedtls_mpi_grow>
    5708:	350004a0 	cbnz	w0, 579c <mbedtls_mpi_add_abs+0x134>
/home/xiang/rockpi4-android/optee_os/lib/libmbedtls/mbedtls/library/bignum.c:1207
    570c:	f9400aa0 	ldr	x0, [x21,#16]
    5710:	8b170000 	add	x0, x0, x23
/home/xiang/rockpi4-android/optee_os/lib/libmbedtls/mbedtls/library/bignum.c:1210
    5714:	b9400001 	ldr	w1, [x0]
    5718:	910012f7 	add	x23, x23, #0x4
    571c:	0b010281 	add	w1, w20, w1
    5720:	b8004401 	str	w1, [x0],#4
    5724:	6b01029f 	cmp	w20, w1
    5728:	aa1303e1 	mov	x1, x19
    572c:	1a9f97f4 	cset	w20, hi
    5730:	17ffffee 	b	56e8 <mbedtls_mpi_add_abs+0x80>
/home/xiang/rockpi4-android/optee_os/lib/libmbedtls/mbedtls/library/bignum.c:1177
    5734:	97fffd79 	bl	4d18 <mbedtls_mpi_copy>
    5738:	2a0003f6 	mov	w22, w0
    573c:	34fffae0 	cbz	w0, 5698 <mbedtls_mpi_add_abs+0x30>
/home/xiang/rockpi4-android/optee_os/lib/libmbedtls/mbedtls/library/bignum.c:1216
    5740:	2a1603e0 	mov	w0, w22
    5744:	f9401bf7 	ldr	x23, [sp,#48]
    5748:	a94153f3 	ldp	x19, x20, [sp,#16]
    574c:	a9425bf5 	ldp	x21, x22, [sp,#32]
    5750:	a8c47bfd 	ldp	x29, x30, [sp],#64
    5754:	d65f03c0 	ret
/home/xiang/rockpi4-android/optee_os/lib/libmbedtls/mbedtls/library/bignum.c:1185
    5758:	f9400a81 	ldr	x1, [x20,#16]
    575c:	b8606821 	ldr	w1, [x1,x0]
    5760:	d1001000 	sub	x0, x0, #0x4
    5764:	35fffa81 	cbnz	w1, 56b4 <mbedtls_mpi_add_abs+0x4c>
/home/xiang/rockpi4-android/optee_os/lib/libmbedtls/mbedtls/library/bignum.c:1184 (discriminator 2)
    5768:	d1000673 	sub	x19, x19, #0x1
    576c:	17ffffd1 	b	56b0 <mbedtls_mpi_add_abs+0x48>
/home/xiang/rockpi4-android/optee_os/lib/libmbedtls/mbedtls/library/bignum.c:1198 (discriminator 3)
    5770:	b8617802 	ldr	w2, [x0,x1,lsl #2]
/home/xiang/rockpi4-android/optee_os/lib/libmbedtls/mbedtls/library/bignum.c:1197 (discriminator 3)
    5774:	b8617883 	ldr	w3, [x4,x1,lsl #2]
/home/xiang/rockpi4-android/optee_os/lib/libmbedtls/mbedtls/library/bignum.c:1198 (discriminator 3)
    5778:	0b020282 	add	w2, w20, w2
    577c:	6b02029f 	cmp	w20, w2
/home/xiang/rockpi4-android/optee_os/lib/libmbedtls/mbedtls/library/bignum.c:1199 (discriminator 3)
    5780:	0b020062 	add	w2, w3, w2
/home/xiang/rockpi4-android/optee_os/lib/libmbedtls/mbedtls/library/bignum.c:1198 (discriminator 3)
    5784:	1a9f97f4 	cset	w20, hi
/home/xiang/rockpi4-android/optee_os/lib/libmbedtls/mbedtls/library/bignum.c:1199 (discriminator 3)
    5788:	6b02007f 	cmp	w3, w2
    578c:	b8217802 	str	w2, [x0,x1,lsl #2]
    5790:	1a949694 	cinc	w20, w20, hi
/home/xiang/rockpi4-android/optee_os/lib/libmbedtls/mbedtls/library/bignum.c:1195 (discriminator 3)
    5794:	91000421 	add	x1, x1, #0x1
    5798:	17ffffd0 	b	56d8 <mbedtls_mpi_add_abs+0x70>
/home/xiang/rockpi4-android/optee_os/lib/libmbedtls/mbedtls/library/bignum.c:1206
    579c:	2a0003f6 	mov	w22, w0
/home/xiang/rockpi4-android/optee_os/lib/libmbedtls/mbedtls/library/bignum.c:1215
    57a0:	17ffffe8 	b	5740 <mbedtls_mpi_add_abs+0xd8>

00000000000057a4 <mbedtls_mpi_sub_abs>:
mbedtls_mpi_sub_abs():
/home/xiang/rockpi4-android/optee_os/lib/libmbedtls/mbedtls/library/bignum.c:1256
    57a4:	a9bc7bfd 	stp	x29, x30, [sp,#-64]!
    57a8:	910003fd 	mov	x29, sp
    57ac:	a90153f3 	stp	x19, x20, [sp,#16]
/home/xiang/rockpi4-android/optee_os/lib/libmbedtls/mbedtls/library/bignum.c:1264
    57b0:	f9400454 	ldr	x20, [x2,#8]
/home/xiang/rockpi4-android/optee_os/lib/libmbedtls/mbedtls/library/bignum.c:1256
    57b4:	a9025bf5 	stp	x21, x22, [sp,#32]
    57b8:	aa0103f5 	mov	x21, x1
    57bc:	f9001bf7 	str	x23, [sp,#48]
    57c0:	d37ef681 	lsl	x1, x20, #2
    57c4:	d1001021 	sub	x1, x1, #0x4
/home/xiang/rockpi4-android/optee_os/lib/libmbedtls/mbedtls/library/bignum.c:1264 (discriminator 1)
    57c8:	b5000174 	cbnz	x20, 57f4 <mbedtls_mpi_sub_abs+0x50>
/home/xiang/rockpi4-android/optee_os/lib/libmbedtls/mbedtls/library/bignum.c:1267
    57cc:	f94006a1 	ldr	x1, [x21,#8]
    57d0:	eb14003f 	cmp	x1, x20
    57d4:	540001c2 	b.cs	580c <mbedtls_mpi_sub_abs+0x68>
/home/xiang/rockpi4-android/optee_os/lib/libmbedtls/mbedtls/library/bignum.c:1270
    57d8:	12800137 	mov	w23, #0xfffffff6            	// #-10
/home/xiang/rockpi4-android/optee_os/lib/libmbedtls/mbedtls/library/bignum.c:1305
    57dc:	2a1703e0 	mov	w0, w23
    57e0:	f9401bf7 	ldr	x23, [sp,#48]
    57e4:	a94153f3 	ldp	x19, x20, [sp,#16]
    57e8:	a9425bf5 	ldp	x21, x22, [sp,#32]
    57ec:	a8c47bfd 	ldp	x29, x30, [sp],#64
    57f0:	d65f03c0 	ret
/home/xiang/rockpi4-android/optee_os/lib/libmbedtls/mbedtls/library/bignum.c:1265
    57f4:	f9400843 	ldr	x3, [x2,#16]
    57f8:	b8616863 	ldr	w3, [x3,x1]
    57fc:	d1001021 	sub	x1, x1, #0x4
    5800:	35fffe63 	cbnz	w3, 57cc <mbedtls_mpi_sub_abs+0x28>
/home/xiang/rockpi4-android/optee_os/lib/libmbedtls/mbedtls/library/bignum.c:1264 (discriminator 2)
    5804:	d1000694 	sub	x20, x20, #0x1
    5808:	17fffff0 	b	57c8 <mbedtls_mpi_sub_abs+0x24>
    580c:	aa0203f6 	mov	x22, x2
    5810:	aa0003f3 	mov	x19, x0
/home/xiang/rockpi4-android/optee_os/lib/libmbedtls/mbedtls/library/bignum.c:1274
    5814:	97fffc9e 	bl	4a8c <mbedtls_mpi_grow>
    5818:	2a0003f7 	mov	w23, w0
    581c:	35fffe00 	cbnz	w0, 57dc <mbedtls_mpi_sub_abs+0x38>
/home/xiang/rockpi4-android/optee_os/lib/libmbedtls/mbedtls/library/bignum.c:1279
    5820:	f94006a2 	ldr	x2, [x21,#8]
    5824:	eb14005f 	cmp	x2, x20
    5828:	54000129 	b.ls	584c <mbedtls_mpi_sub_abs+0xa8>
/home/xiang/rockpi4-android/optee_os/lib/libmbedtls/mbedtls/library/bignum.c:1280
    582c:	f9400a63 	ldr	x3, [x19,#16]
    5830:	d37ef680 	lsl	x0, x20, #2
    5834:	f9400aa1 	ldr	x1, [x21,#16]
    5838:	cb140042 	sub	x2, x2, x20
    583c:	d37ef442 	lsl	x2, x2, #2
    5840:	8b000021 	add	x1, x1, x0
    5844:	8b000060 	add	x0, x3, x0
    5848:	97ffe9f6 	bl	20 <memcpy>
/home/xiang/rockpi4-android/optee_os/lib/libmbedtls/mbedtls/library/bignum.c:1281
    584c:	f9400662 	ldr	x2, [x19,#8]
    5850:	f94006a0 	ldr	x0, [x21,#8]
    5854:	eb00005f 	cmp	x2, x0
    5858:	540000e9 	b.ls	5874 <mbedtls_mpi_sub_abs+0xd0>
/home/xiang/rockpi4-android/optee_os/lib/libmbedtls/mbedtls/library/bignum.c:1282
    585c:	f9400a63 	ldr	x3, [x19,#16]
    5860:	cb000042 	sub	x2, x2, x0
    5864:	d37ef442 	lsl	x2, x2, #2
    5868:	52800001 	mov	w1, #0x0                   	// #0
    586c:	8b000860 	add	x0, x3, x0, lsl #2
    5870:	94001025 	bl	9904 <memset>
/home/xiang/rockpi4-android/optee_os/lib/libmbedtls/mbedtls/library/bignum.c:1284
    5874:	f9400a63 	ldr	x3, [x19,#16]
mpi_sub_hlp():
/home/xiang/rockpi4-android/optee_os/lib/libmbedtls/mbedtls/library/bignum.c:1241
    5878:	52800002 	mov	w2, #0x0                   	// #0
mbedtls_mpi_sub_abs():
/home/xiang/rockpi4-android/optee_os/lib/libmbedtls/mbedtls/library/bignum.c:1284
    587c:	f9400aa5 	ldr	x5, [x21,#16]
mpi_sub_hlp():
/home/xiang/rockpi4-android/optee_os/lib/libmbedtls/mbedtls/library/bignum.c:1243
    5880:	d2800001 	mov	x1, #0x0                   	// #0
mbedtls_mpi_sub_abs():
/home/xiang/rockpi4-android/optee_os/lib/libmbedtls/mbedtls/library/bignum.c:1284
    5884:	f9400ac6 	ldr	x6, [x22,#16]
mpi_sub_hlp():
/home/xiang/rockpi4-android/optee_os/lib/libmbedtls/mbedtls/library/bignum.c:1243
    5888:	eb01029f 	cmp	x20, x1
    588c:	540001e1 	b.ne	58c8 <mbedtls_mpi_sub_abs+0x124>
mbedtls_mpi_sub_abs():
/home/xiang/rockpi4-android/optee_os/lib/libmbedtls/mbedtls/library/bignum.c:1285
    5890:	34000162 	cbz	w2, 58bc <mbedtls_mpi_sub_abs+0x118>
/home/xiang/rockpi4-android/optee_os/lib/libmbedtls/mbedtls/library/bignum.c:1288
    5894:	f9400662 	ldr	x2, [x19,#8]
/home/xiang/rockpi4-android/optee_os/lib/libmbedtls/mbedtls/library/bignum.c:1289
    5898:	12800004 	mov	w4, #0xffffffff            	// #-1
/home/xiang/rockpi4-android/optee_os/lib/libmbedtls/mbedtls/library/bignum.c:1288 (discriminator 1)
    589c:	eb02003f 	cmp	x1, x2
    58a0:	54000302 	b.cs	5900 <mbedtls_mpi_sub_abs+0x15c>
/home/xiang/rockpi4-android/optee_os/lib/libmbedtls/mbedtls/library/bignum.c:1288 (discriminator 2)
    58a4:	b8617860 	ldr	w0, [x3,x1,lsl #2]
    58a8:	34000260 	cbz	w0, 58f4 <mbedtls_mpi_sub_abs+0x150>
/home/xiang/rockpi4-android/optee_os/lib/libmbedtls/mbedtls/library/bignum.c:1297
    58ac:	d37ef421 	lsl	x1, x1, #2
    58b0:	b8616860 	ldr	w0, [x3,x1]
    58b4:	51000400 	sub	w0, w0, #0x1
    58b8:	b8216860 	str	w0, [x3,x1]
/home/xiang/rockpi4-android/optee_os/lib/libmbedtls/mbedtls/library/bignum.c:1301
    58bc:	52800020 	mov	w0, #0x1                   	// #1
    58c0:	79000260 	strh	w0, [x19]
/home/xiang/rockpi4-android/optee_os/lib/libmbedtls/mbedtls/library/bignum.c:1304
    58c4:	17ffffc6 	b	57dc <mbedtls_mpi_sub_abs+0x38>
mpi_sub_hlp():
/home/xiang/rockpi4-android/optee_os/lib/libmbedtls/mbedtls/library/bignum.c:1245
    58c8:	b86178a0 	ldr	w0, [x5,x1,lsl #2]
/home/xiang/rockpi4-android/optee_os/lib/libmbedtls/mbedtls/library/bignum.c:1246
    58cc:	b86178c4 	ldr	w4, [x6,x1,lsl #2]
/home/xiang/rockpi4-android/optee_os/lib/libmbedtls/mbedtls/library/bignum.c:1245
    58d0:	6b02001f 	cmp	w0, w2
    58d4:	4b020000 	sub	w0, w0, w2
    58d8:	1a9f27e7 	cset	w7, cc
/home/xiang/rockpi4-android/optee_os/lib/libmbedtls/mbedtls/library/bignum.c:1246
    58dc:	6b04001f 	cmp	w0, w4
    58e0:	1a8724e2 	cinc	w2, w7, cc
    58e4:	4b040000 	sub	w0, w0, w4
    58e8:	b8217860 	str	w0, [x3,x1,lsl #2]
/home/xiang/rockpi4-android/optee_os/lib/libmbedtls/mbedtls/library/bignum.c:1243
    58ec:	91000421 	add	x1, x1, #0x1
    58f0:	17ffffe6 	b	5888 <mbedtls_mpi_sub_abs+0xe4>
mbedtls_mpi_sub_abs():
/home/xiang/rockpi4-android/optee_os/lib/libmbedtls/mbedtls/library/bignum.c:1289 (discriminator 3)
    58f4:	b8217864 	str	w4, [x3,x1,lsl #2]
/home/xiang/rockpi4-android/optee_os/lib/libmbedtls/mbedtls/library/bignum.c:1288 (discriminator 3)
    58f8:	91000421 	add	x1, x1, #0x1
    58fc:	17ffffe8 	b	589c <mbedtls_mpi_sub_abs+0xf8>
/home/xiang/rockpi4-android/optee_os/lib/libmbedtls/mbedtls/library/bignum.c:1292
    5900:	54fffd61 	b.ne	58ac <mbedtls_mpi_sub_abs+0x108>
    5904:	17ffffb5 	b	57d8 <mbedtls_mpi_sub_abs+0x34>

0000000000005908 <mbedtls_mpi_add_mpi>:
mbedtls_mpi_add_mpi():
/home/xiang/rockpi4-android/optee_os/lib/libmbedtls/mbedtls/library/bignum.c:1311
    5908:	a9bd7bfd 	stp	x29, x30, [sp,#-48]!
    590c:	910003fd 	mov	x29, sp
    5910:	a90153f3 	stp	x19, x20, [sp,#16]
    5914:	aa0003f4 	mov	x20, x0
/home/xiang/rockpi4-android/optee_os/lib/libmbedtls/mbedtls/library/bignum.c:1317
    5918:	79c00033 	ldrsh	w19, [x1]
/home/xiang/rockpi4-android/optee_os/lib/libmbedtls/mbedtls/library/bignum.c:1318
    591c:	79c00043 	ldrsh	w3, [x2]
/home/xiang/rockpi4-android/optee_os/lib/libmbedtls/mbedtls/library/bignum.c:1311
    5920:	a9025bf5 	stp	x21, x22, [sp,#32]
/home/xiang/rockpi4-android/optee_os/lib/libmbedtls/mbedtls/library/bignum.c:1318
    5924:	1b137c63 	mul	w3, w3, w19
    5928:	36f80303 	tbz	w3, #31, 5988 <mbedtls_mpi_add_mpi+0x80>
    592c:	aa0103f6 	mov	x22, x1
    5930:	aa0203f5 	mov	x21, x2
/home/xiang/rockpi4-android/optee_os/lib/libmbedtls/mbedtls/library/bignum.c:1320
    5934:	aa0203e1 	mov	x1, x2
    5938:	aa1603e0 	mov	x0, x22
    593c:	97fffed3 	bl	5488 <mbedtls_mpi_cmp_abs>
    5940:	37f80140 	tbnz	w0, #31, 5968 <mbedtls_mpi_add_mpi+0x60>
/home/xiang/rockpi4-android/optee_os/lib/libmbedtls/mbedtls/library/bignum.c:1322
    5944:	aa1503e2 	mov	x2, x21
    5948:	aa1603e1 	mov	x1, x22
    594c:	aa1403e0 	mov	x0, x20
    5950:	97ffff95 	bl	57a4 <mbedtls_mpi_sub_abs>
/home/xiang/rockpi4-android/optee_os/lib/libmbedtls/mbedtls/library/bignum.c:1333
    5954:	34000160 	cbz	w0, 5980 <mbedtls_mpi_add_mpi+0x78>
/home/xiang/rockpi4-android/optee_os/lib/libmbedtls/mbedtls/library/bignum.c:1340
    5958:	a94153f3 	ldp	x19, x20, [sp,#16]
    595c:	a9425bf5 	ldp	x21, x22, [sp,#32]
    5960:	a8c37bfd 	ldp	x29, x30, [sp],#48
    5964:	d65f03c0 	ret
/home/xiang/rockpi4-android/optee_os/lib/libmbedtls/mbedtls/library/bignum.c:1327
    5968:	aa1603e2 	mov	x2, x22
    596c:	aa1503e1 	mov	x1, x21
    5970:	aa1403e0 	mov	x0, x20
    5974:	97ffff8c 	bl	57a4 <mbedtls_mpi_sub_abs>
    5978:	35ffff00 	cbnz	w0, 5958 <mbedtls_mpi_add_mpi+0x50>
/home/xiang/rockpi4-android/optee_os/lib/libmbedtls/mbedtls/library/bignum.c:1328
    597c:	4b1303f3 	neg	w19, w19
/home/xiang/rockpi4-android/optee_os/lib/libmbedtls/mbedtls/library/bignum.c:1334
    5980:	79000293 	strh	w19, [x20]
/home/xiang/rockpi4-android/optee_os/lib/libmbedtls/mbedtls/library/bignum.c:1339
    5984:	17fffff5 	b	5958 <mbedtls_mpi_add_mpi+0x50>
/home/xiang/rockpi4-android/optee_os/lib/libmbedtls/mbedtls/library/bignum.c:1333
    5988:	97ffff38 	bl	5668 <mbedtls_mpi_add_abs>
    598c:	17fffff2 	b	5954 <mbedtls_mpi_add_mpi+0x4c>

0000000000005990 <mbedtls_mpi_sub_mpi>:
mbedtls_mpi_sub_mpi():
/home/xiang/rockpi4-android/optee_os/lib/libmbedtls/mbedtls/library/bignum.c:1346
    5990:	a9bd7bfd 	stp	x29, x30, [sp,#-48]!
    5994:	910003fd 	mov	x29, sp
    5998:	a90153f3 	stp	x19, x20, [sp,#16]
    599c:	aa0003f4 	mov	x20, x0
/home/xiang/rockpi4-android/optee_os/lib/libmbedtls/mbedtls/library/bignum.c:1352
    59a0:	79c00033 	ldrsh	w19, [x1]
/home/xiang/rockpi4-android/optee_os/lib/libmbedtls/mbedtls/library/bignum.c:1353
    59a4:	79c00043 	ldrsh	w3, [x2]
/home/xiang/rockpi4-android/optee_os/lib/libmbedtls/mbedtls/library/bignum.c:1346
    59a8:	a9025bf5 	stp	x21, x22, [sp,#32]
/home/xiang/rockpi4-android/optee_os/lib/libmbedtls/mbedtls/library/bignum.c:1353
    59ac:	1b137c63 	mul	w3, w3, w19
    59b0:	7100007f 	cmp	w3, #0x0
    59b4:	5400030d 	b.le	5a14 <mbedtls_mpi_sub_mpi+0x84>
    59b8:	aa0103f6 	mov	x22, x1
    59bc:	aa0203f5 	mov	x21, x2
/home/xiang/rockpi4-android/optee_os/lib/libmbedtls/mbedtls/library/bignum.c:1355
    59c0:	aa0203e1 	mov	x1, x2
    59c4:	aa1603e0 	mov	x0, x22
    59c8:	97fffeb0 	bl	5488 <mbedtls_mpi_cmp_abs>
    59cc:	37f80140 	tbnz	w0, #31, 59f4 <mbedtls_mpi_sub_mpi+0x64>
/home/xiang/rockpi4-android/optee_os/lib/libmbedtls/mbedtls/library/bignum.c:1357
    59d0:	aa1503e2 	mov	x2, x21
    59d4:	aa1603e1 	mov	x1, x22
    59d8:	aa1403e0 	mov	x0, x20
    59dc:	97ffff72 	bl	57a4 <mbedtls_mpi_sub_abs>
/home/xiang/rockpi4-android/optee_os/lib/libmbedtls/mbedtls/library/bignum.c:1368
    59e0:	34000160 	cbz	w0, 5a0c <mbedtls_mpi_sub_mpi+0x7c>
/home/xiang/rockpi4-android/optee_os/lib/libmbedtls/mbedtls/library/bignum.c:1375
    59e4:	a94153f3 	ldp	x19, x20, [sp,#16]
    59e8:	a9425bf5 	ldp	x21, x22, [sp,#32]
    59ec:	a8c37bfd 	ldp	x29, x30, [sp],#48
    59f0:	d65f03c0 	ret
/home/xiang/rockpi4-android/optee_os/lib/libmbedtls/mbedtls/library/bignum.c:1362
    59f4:	aa1603e2 	mov	x2, x22
    59f8:	aa1503e1 	mov	x1, x21
    59fc:	aa1403e0 	mov	x0, x20
    5a00:	97ffff69 	bl	57a4 <mbedtls_mpi_sub_abs>
    5a04:	35ffff00 	cbnz	w0, 59e4 <mbedtls_mpi_sub_mpi+0x54>
/home/xiang/rockpi4-android/optee_os/lib/libmbedtls/mbedtls/library/bignum.c:1363
    5a08:	4b1303f3 	neg	w19, w19
/home/xiang/rockpi4-android/optee_os/lib/libmbedtls/mbedtls/library/bignum.c:1369
    5a0c:	79000293 	strh	w19, [x20]
/home/xiang/rockpi4-android/optee_os/lib/libmbedtls/mbedtls/library/bignum.c:1374
    5a10:	17fffff5 	b	59e4 <mbedtls_mpi_sub_mpi+0x54>
/home/xiang/rockpi4-android/optee_os/lib/libmbedtls/mbedtls/library/bignum.c:1368
    5a14:	97ffff15 	bl	5668 <mbedtls_mpi_add_abs>
    5a18:	17fffff2 	b	59e0 <mbedtls_mpi_sub_mpi+0x50>

0000000000005a1c <mbedtls_mpi_add_int>:
mbedtls_mpi_add_int():
/home/xiang/rockpi4-android/optee_os/lib/libmbedtls/mbedtls/library/bignum.c:1381
    5a1c:	a9bd7bfd 	stp	x29, x30, [sp,#-48]!
/home/xiang/rockpi4-android/optee_os/lib/libmbedtls/mbedtls/library/bignum.c:1387
    5a20:	7100005f 	cmp	w2, #0x0
    5a24:	5a82a443 	cneg	w3, w2, lt
/home/xiang/rockpi4-android/optee_os/lib/libmbedtls/mbedtls/library/bignum.c:1389
    5a28:	d2800022 	mov	x2, #0x1                   	// #1
/home/xiang/rockpi4-android/optee_os/lib/libmbedtls/mbedtls/library/bignum.c:1381
    5a2c:	910003fd 	mov	x29, sp
/home/xiang/rockpi4-android/optee_os/lib/libmbedtls/mbedtls/library/bignum.c:1387
    5a30:	b90013a3 	str	w3, [x29,#16]
/home/xiang/rockpi4-android/optee_os/lib/libmbedtls/mbedtls/library/bignum.c:1388
    5a34:	52800023 	mov	w3, #0x1                   	// #1
    5a38:	5a83a463 	cneg	w3, w3, lt
/home/xiang/rockpi4-android/optee_os/lib/libmbedtls/mbedtls/library/bignum.c:1389
    5a3c:	f90013a2 	str	x2, [x29,#32]
/home/xiang/rockpi4-android/optee_os/lib/libmbedtls/mbedtls/library/bignum.c:1390
    5a40:	910043a2 	add	x2, x29, #0x10
/home/xiang/rockpi4-android/optee_os/lib/libmbedtls/mbedtls/library/bignum.c:1388
    5a44:	790033a3 	strh	w3, [x29,#24]
/home/xiang/rockpi4-android/optee_os/lib/libmbedtls/mbedtls/library/bignum.c:1390
    5a48:	f90017a2 	str	x2, [x29,#40]
/home/xiang/rockpi4-android/optee_os/lib/libmbedtls/mbedtls/library/bignum.c:1392
    5a4c:	910063a2 	add	x2, x29, #0x18
    5a50:	97ffffae 	bl	5908 <mbedtls_mpi_add_mpi>
/home/xiang/rockpi4-android/optee_os/lib/libmbedtls/mbedtls/library/bignum.c:1393
    5a54:	a8c37bfd 	ldp	x29, x30, [sp],#48
    5a58:	d65f03c0 	ret

0000000000005a5c <mbedtls_mpi_sub_int>:
mbedtls_mpi_sub_int():
/home/xiang/rockpi4-android/optee_os/lib/libmbedtls/mbedtls/library/bignum.c:1399
    5a5c:	a9bd7bfd 	stp	x29, x30, [sp,#-48]!
/home/xiang/rockpi4-android/optee_os/lib/libmbedtls/mbedtls/library/bignum.c:1405
    5a60:	7100005f 	cmp	w2, #0x0
    5a64:	5a82a443 	cneg	w3, w2, lt
/home/xiang/rockpi4-android/optee_os/lib/libmbedtls/mbedtls/library/bignum.c:1407
    5a68:	d2800022 	mov	x2, #0x1                   	// #1
/home/xiang/rockpi4-android/optee_os/lib/libmbedtls/mbedtls/library/bignum.c:1399
    5a6c:	910003fd 	mov	x29, sp
/home/xiang/rockpi4-android/optee_os/lib/libmbedtls/mbedtls/library/bignum.c:1405
    5a70:	b90013a3 	str	w3, [x29,#16]
/home/xiang/rockpi4-android/optee_os/lib/libmbedtls/mbedtls/library/bignum.c:1406
    5a74:	52800023 	mov	w3, #0x1                   	// #1
    5a78:	5a83a463 	cneg	w3, w3, lt
/home/xiang/rockpi4-android/optee_os/lib/libmbedtls/mbedtls/library/bignum.c:1407
    5a7c:	f90013a2 	str	x2, [x29,#32]
/home/xiang/rockpi4-android/optee_os/lib/libmbedtls/mbedtls/library/bignum.c:1408
    5a80:	910043a2 	add	x2, x29, #0x10
/home/xiang/rockpi4-android/optee_os/lib/libmbedtls/mbedtls/library/bignum.c:1406
    5a84:	790033a3 	strh	w3, [x29,#24]
/home/xiang/rockpi4-android/optee_os/lib/libmbedtls/mbedtls/library/bignum.c:1408
    5a88:	f90017a2 	str	x2, [x29,#40]
/home/xiang/rockpi4-android/optee_os/lib/libmbedtls/mbedtls/library/bignum.c:1410
    5a8c:	910063a2 	add	x2, x29, #0x18
    5a90:	97ffffc0 	bl	5990 <mbedtls_mpi_sub_mpi>
/home/xiang/rockpi4-android/optee_os/lib/libmbedtls/mbedtls/library/bignum.c:1411
    5a94:	a8c37bfd 	ldp	x29, x30, [sp],#48
    5a98:	d65f03c0 	ret

0000000000005a9c <mbedtls_mpi_mul_mpi>:
mbedtls_mpi_mul_mpi():
/home/xiang/rockpi4-android/optee_os/lib/libmbedtls/mbedtls/library/bignum.c:1505
    5a9c:	a9b77bfd 	stp	x29, x30, [sp,#-144]!
    5aa0:	910003fd 	mov	x29, sp
    5aa4:	a9046bf9 	stp	x25, x26, [sp,#64]
/home/xiang/rockpi4-android/optee_os/lib/libmbedtls/mbedtls/library/bignum.c:1514
    5aa8:	910183b9 	add	x25, x29, #0x60
/home/xiang/rockpi4-android/optee_os/lib/libmbedtls/mbedtls/library/bignum.c:1505
    5aac:	a90153f3 	stp	x19, x20, [sp,#16]
/home/xiang/rockpi4-android/optee_os/lib/libmbedtls/mbedtls/library/bignum.c:1514
    5ab0:	9101e3ba 	add	x26, x29, #0x78
/home/xiang/rockpi4-android/optee_os/lib/libmbedtls/mbedtls/library/bignum.c:1505
    5ab4:	a9025bf5 	stp	x21, x22, [sp,#32]
    5ab8:	aa0003f4 	mov	x20, x0
    5abc:	a90363f7 	stp	x23, x24, [sp,#48]
    5ac0:	aa0203f6 	mov	x22, x2
    5ac4:	aa0103f7 	mov	x23, x1
/home/xiang/rockpi4-android/optee_os/lib/libmbedtls/mbedtls/library/bignum.c:1514
    5ac8:	aa1903e0 	mov	x0, x25
/home/xiang/rockpi4-android/optee_os/lib/libmbedtls/mbedtls/library/bignum.c:1505
    5acc:	a90573fb 	stp	x27, x28, [sp,#80]
/home/xiang/rockpi4-android/optee_os/lib/libmbedtls/mbedtls/library/bignum.c:1514
    5ad0:	97fffbca 	bl	49f8 <mbedtls_mpi_init_mempool>
    5ad4:	aa1a03e0 	mov	x0, x26
    5ad8:	97fffbc8 	bl	49f8 <mbedtls_mpi_init_mempool>
/home/xiang/rockpi4-android/optee_os/lib/libmbedtls/mbedtls/library/bignum.c:1516
    5adc:	eb17029f 	cmp	x20, x23
    5ae0:	540000e1 	b.ne	5afc <mbedtls_mpi_mul_mpi+0x60>
/home/xiang/rockpi4-android/optee_os/lib/libmbedtls/mbedtls/library/bignum.c:1516 (discriminator 1)
    5ae4:	aa1403e1 	mov	x1, x20
    5ae8:	aa1903e0 	mov	x0, x25
    5aec:	97fffc8b 	bl	4d18 <mbedtls_mpi_copy>
    5af0:	2a0003f3 	mov	w19, w0
    5af4:	35000480 	cbnz	w0, 5b84 <mbedtls_mpi_mul_mpi+0xe8>
/home/xiang/rockpi4-android/optee_os/lib/libmbedtls/mbedtls/library/bignum.c:1516
    5af8:	aa1903f7 	mov	x23, x25
/home/xiang/rockpi4-android/optee_os/lib/libmbedtls/mbedtls/library/bignum.c:1517
    5afc:	eb16029f 	cmp	x20, x22
    5b00:	540000e1 	b.ne	5b1c <mbedtls_mpi_mul_mpi+0x80>
/home/xiang/rockpi4-android/optee_os/lib/libmbedtls/mbedtls/library/bignum.c:1517 (discriminator 1)
    5b04:	aa1403e1 	mov	x1, x20
    5b08:	aa1a03e0 	mov	x0, x26
    5b0c:	97fffc83 	bl	4d18 <mbedtls_mpi_copy>
    5b10:	2a0003f3 	mov	w19, w0
    5b14:	35000380 	cbnz	w0, 5b84 <mbedtls_mpi_mul_mpi+0xe8>
/home/xiang/rockpi4-android/optee_os/lib/libmbedtls/mbedtls/library/bignum.c:1517
    5b18:	aa1a03f6 	mov	x22, x26
/home/xiang/rockpi4-android/optee_os/lib/libmbedtls/mbedtls/library/bignum.c:1519
    5b1c:	f94006f8 	ldr	x24, [x23,#8]
    5b20:	d37ef700 	lsl	x0, x24, #2
    5b24:	d1001000 	sub	x0, x0, #0x4
/home/xiang/rockpi4-android/optee_os/lib/libmbedtls/mbedtls/library/bignum.c:1519 (discriminator 1)
    5b28:	b5000478 	cbnz	x24, 5bb4 <mbedtls_mpi_mul_mpi+0x118>
/home/xiang/rockpi4-android/optee_os/lib/libmbedtls/mbedtls/library/bignum.c:1523
    5b2c:	5280003b 	mov	w27, #0x1                   	// #1
/home/xiang/rockpi4-android/optee_os/lib/libmbedtls/mbedtls/library/bignum.c:1525
    5b30:	f94006d5 	ldr	x21, [x22,#8]
    5b34:	d37ef6a0 	lsl	x0, x21, #2
    5b38:	d1001000 	sub	x0, x0, #0x4
/home/xiang/rockpi4-android/optee_os/lib/libmbedtls/mbedtls/library/bignum.c:1525 (discriminator 1)
    5b3c:	b50004d5 	cbnz	x21, 5bd4 <mbedtls_mpi_mul_mpi+0x138>
/home/xiang/rockpi4-android/optee_os/lib/libmbedtls/mbedtls/library/bignum.c:1529
    5b40:	5280003b 	mov	w27, #0x1                   	// #1
/home/xiang/rockpi4-android/optee_os/lib/libmbedtls/mbedtls/library/bignum.c:1531
    5b44:	8b150301 	add	x1, x24, x21
    5b48:	aa1403e0 	mov	x0, x20
    5b4c:	97fffbd0 	bl	4a8c <mbedtls_mpi_grow>
    5b50:	2a0003f3 	mov	w19, w0
    5b54:	35000180 	cbnz	w0, 5b84 <mbedtls_mpi_mul_mpi+0xe8>
/home/xiang/rockpi4-android/optee_os/lib/libmbedtls/mbedtls/library/bignum.c:1532
    5b58:	52800001 	mov	w1, #0x0                   	// #0
    5b5c:	aa1403e0 	mov	x0, x20
    5b60:	97fffcbf 	bl	4e5c <mbedtls_mpi_lset>
    5b64:	2a0003f3 	mov	w19, w0
    5b68:	350000e0 	cbnz	w0, 5b84 <mbedtls_mpi_mul_mpi+0xe8>
    5b6c:	d37ef6ab 	lsl	x11, x21, #2
    5b70:	d100117c 	sub	x28, x11, #0x4
/home/xiang/rockpi4-android/optee_os/lib/libmbedtls/mbedtls/library/bignum.c:1534 (discriminator 1)
    5b74:	b50003d5 	cbnz	x21, 5bec <mbedtls_mpi_mul_mpi+0x150>
/home/xiang/rockpi4-android/optee_os/lib/libmbedtls/mbedtls/library/bignum.c:1541
    5b78:	340004fb 	cbz	w27, 5c14 <mbedtls_mpi_mul_mpi+0x178>
/home/xiang/rockpi4-android/optee_os/lib/libmbedtls/mbedtls/library/bignum.c:1542
    5b7c:	52800020 	mov	w0, #0x1                   	// #1
    5b80:	79000280 	strh	w0, [x20]
/home/xiang/rockpi4-android/optee_os/lib/libmbedtls/mbedtls/library/bignum.c:1548
    5b84:	aa1a03e0 	mov	x0, x26
    5b88:	97fffba6 	bl	4a20 <mbedtls_mpi_free>
    5b8c:	aa1903e0 	mov	x0, x25
    5b90:	97fffba4 	bl	4a20 <mbedtls_mpi_free>
/home/xiang/rockpi4-android/optee_os/lib/libmbedtls/mbedtls/library/bignum.c:1551
    5b94:	2a1303e0 	mov	w0, w19
    5b98:	a94153f3 	ldp	x19, x20, [sp,#16]
    5b9c:	a9425bf5 	ldp	x21, x22, [sp,#32]
    5ba0:	a94363f7 	ldp	x23, x24, [sp,#48]
    5ba4:	a9446bf9 	ldp	x25, x26, [sp,#64]
    5ba8:	a94573fb 	ldp	x27, x28, [sp,#80]
    5bac:	a8c97bfd 	ldp	x29, x30, [sp],#144
    5bb0:	d65f03c0 	ret
/home/xiang/rockpi4-android/optee_os/lib/libmbedtls/mbedtls/library/bignum.c:1520
    5bb4:	f9400ae1 	ldr	x1, [x23,#16]
    5bb8:	b8606821 	ldr	w1, [x1,x0]
    5bbc:	d1001000 	sub	x0, x0, #0x4
    5bc0:	35000061 	cbnz	w1, 5bcc <mbedtls_mpi_mul_mpi+0x130>
/home/xiang/rockpi4-android/optee_os/lib/libmbedtls/mbedtls/library/bignum.c:1519 (discriminator 2)
    5bc4:	d1000718 	sub	x24, x24, #0x1
    5bc8:	17ffffd8 	b	5b28 <mbedtls_mpi_mul_mpi+0x8c>
/home/xiang/rockpi4-android/optee_os/lib/libmbedtls/mbedtls/library/bignum.c:1509
    5bcc:	5280001b 	mov	w27, #0x0                   	// #0
    5bd0:	17ffffd8 	b	5b30 <mbedtls_mpi_mul_mpi+0x94>
/home/xiang/rockpi4-android/optee_os/lib/libmbedtls/mbedtls/library/bignum.c:1526
    5bd4:	f9400ac1 	ldr	x1, [x22,#16]
    5bd8:	b8606821 	ldr	w1, [x1,x0]
    5bdc:	d1001000 	sub	x0, x0, #0x4
    5be0:	35fffb21 	cbnz	w1, 5b44 <mbedtls_mpi_mul_mpi+0xa8>
/home/xiang/rockpi4-android/optee_os/lib/libmbedtls/mbedtls/library/bignum.c:1525 (discriminator 2)
    5be4:	d10006b5 	sub	x21, x21, #0x1
    5be8:	17ffffd5 	b	5b3c <mbedtls_mpi_mul_mpi+0xa0>
/home/xiang/rockpi4-android/optee_os/lib/libmbedtls/mbedtls/library/bignum.c:1535 (discriminator 2)
    5bec:	f9400ac0 	ldr	x0, [x22,#16]
/home/xiang/rockpi4-android/optee_os/lib/libmbedtls/mbedtls/library/bignum.c:1534 (discriminator 2)
    5bf0:	d10006b5 	sub	x21, x21, #0x1
/home/xiang/rockpi4-android/optee_os/lib/libmbedtls/mbedtls/library/bignum.c:1535 (discriminator 2)
    5bf4:	f9400ae1 	ldr	x1, [x23,#16]
    5bf8:	f9400a82 	ldr	x2, [x20,#16]
    5bfc:	b87c6803 	ldr	w3, [x0,x28]
    5c00:	8b1c0042 	add	x2, x2, x28
    5c04:	aa1803e0 	mov	x0, x24
    5c08:	d100139c 	sub	x28, x28, #0x4
    5c0c:	97fff982 	bl	4214 <mpi_mul_hlp>
    5c10:	17ffffd9 	b	5b74 <mbedtls_mpi_mul_mpi+0xd8>
/home/xiang/rockpi4-android/optee_os/lib/libmbedtls/mbedtls/library/bignum.c:1544
    5c14:	794002e0 	ldrh	w0, [x23]
    5c18:	52800013 	mov	w19, #0x0                   	// #0
    5c1c:	794002c1 	ldrh	w1, [x22]
    5c20:	1b017c00 	mul	w0, w0, w1
    5c24:	79000280 	strh	w0, [x20]
    5c28:	17ffffd7 	b	5b84 <mbedtls_mpi_mul_mpi+0xe8>

0000000000005c2c <mbedtls_mpi_mul_int>:
mbedtls_mpi_mul_int():
/home/xiang/rockpi4-android/optee_os/lib/libmbedtls/mbedtls/library/bignum.c:1557
    5c2c:	a9bc7bfd 	stp	x29, x30, [sp,#-64]!
    5c30:	910003fd 	mov	x29, sp
    5c34:	a90153f3 	stp	x19, x20, [sp,#16]
/home/xiang/rockpi4-android/optee_os/lib/libmbedtls/mbedtls/library/bignum.c:1562
    5c38:	f9400433 	ldr	x19, [x1,#8]
/home/xiang/rockpi4-android/optee_os/lib/libmbedtls/mbedtls/library/bignum.c:1557
    5c3c:	a9025bf5 	stp	x21, x22, [sp,#32]
    5c40:	f9001bf7 	str	x23, [sp,#48]
    5c44:	d37ef664 	lsl	x4, x19, #2
    5c48:	d1001084 	sub	x4, x4, #0x4
/home/xiang/rockpi4-android/optee_os/lib/libmbedtls/mbedtls/library/bignum.c:1563
    5c4c:	b40000b3 	cbz	x19, 5c60 <mbedtls_mpi_mul_int+0x34>
/home/xiang/rockpi4-android/optee_os/lib/libmbedtls/mbedtls/library/bignum.c:1563 (discriminator 1)
    5c50:	f9400823 	ldr	x3, [x1,#16]
    5c54:	b8646863 	ldr	w3, [x3,x4]
    5c58:	d1001084 	sub	x4, x4, #0x4
    5c5c:	34000143 	cbz	w3, 5c84 <mbedtls_mpi_mul_int+0x58>
/home/xiang/rockpi4-android/optee_os/lib/libmbedtls/mbedtls/library/bignum.c:1568
    5c60:	7100005f 	cmp	w2, #0x0
    5c64:	fa401a64 	ccmp	x19, #0x0, #0x4, ne
    5c68:	54000121 	b.ne	5c8c <mbedtls_mpi_mul_int+0x60>
/home/xiang/rockpi4-android/optee_os/lib/libmbedtls/mbedtls/library/bignum.c:1589
    5c6c:	a94153f3 	ldp	x19, x20, [sp,#16]
/home/xiang/rockpi4-android/optee_os/lib/libmbedtls/mbedtls/library/bignum.c:1570
    5c70:	52800001 	mov	w1, #0x0                   	// #0
/home/xiang/rockpi4-android/optee_os/lib/libmbedtls/mbedtls/library/bignum.c:1589
    5c74:	a9425bf5 	ldp	x21, x22, [sp,#32]
    5c78:	f9401bf7 	ldr	x23, [sp,#48]
    5c7c:	a8c47bfd 	ldp	x29, x30, [sp],#64
/home/xiang/rockpi4-android/optee_os/lib/libmbedtls/mbedtls/library/bignum.c:1570
    5c80:	17fffc77 	b	4e5c <mbedtls_mpi_lset>
/home/xiang/rockpi4-android/optee_os/lib/libmbedtls/mbedtls/library/bignum.c:1564
    5c84:	d1000673 	sub	x19, x19, #0x1
    5c88:	17fffff1 	b	5c4c <mbedtls_mpi_mul_int+0x20>
    5c8c:	2a0203f6 	mov	w22, w2
    5c90:	aa0103f4 	mov	x20, x1
    5c94:	aa0003f5 	mov	x21, x0
/home/xiang/rockpi4-android/optee_os/lib/libmbedtls/mbedtls/library/bignum.c:1583
    5c98:	91000661 	add	x1, x19, #0x1
    5c9c:	97fffb7c 	bl	4a8c <mbedtls_mpi_grow>
    5ca0:	2a0003f7 	mov	w23, w0
    5ca4:	35000160 	cbnz	w0, 5cd0 <mbedtls_mpi_mul_int+0xa4>
/home/xiang/rockpi4-android/optee_os/lib/libmbedtls/mbedtls/library/bignum.c:1584
    5ca8:	aa1403e1 	mov	x1, x20
    5cac:	aa1503e0 	mov	x0, x21
    5cb0:	97fffc1a 	bl	4d18 <mbedtls_mpi_copy>
    5cb4:	2a0003f7 	mov	w23, w0
    5cb8:	350000c0 	cbnz	w0, 5cd0 <mbedtls_mpi_mul_int+0xa4>
/home/xiang/rockpi4-android/optee_os/lib/libmbedtls/mbedtls/library/bignum.c:1585
    5cbc:	f9400a81 	ldr	x1, [x20,#16]
    5cc0:	510006c3 	sub	w3, w22, #0x1
    5cc4:	f9400aa2 	ldr	x2, [x21,#16]
    5cc8:	aa1303e0 	mov	x0, x19
    5ccc:	97fff952 	bl	4214 <mpi_mul_hlp>
/home/xiang/rockpi4-android/optee_os/lib/libmbedtls/mbedtls/library/bignum.c:1589
    5cd0:	2a1703e0 	mov	w0, w23
    5cd4:	f9401bf7 	ldr	x23, [sp,#48]
    5cd8:	a94153f3 	ldp	x19, x20, [sp,#16]
    5cdc:	a9425bf5 	ldp	x21, x22, [sp,#32]
    5ce0:	a8c47bfd 	ldp	x29, x30, [sp],#64
    5ce4:	d65f03c0 	ret

0000000000005ce8 <mbedtls_mpi_read_string>:
mbedtls_mpi_read_string():
/home/xiang/rockpi4-android/optee_os/lib/libmbedtls/mbedtls/library/bignum.c:467
    5ce8:	a9b87bfd 	stp	x29, x30, [sp,#-128]!
    5cec:	910003fd 	mov	x29, sp
    5cf0:	a90153f3 	stp	x19, x20, [sp,#16]
    5cf4:	aa0003f4 	mov	x20, x0
    5cf8:	a9025bf5 	stp	x21, x22, [sp,#32]
/home/xiang/rockpi4-android/optee_os/lib/libmbedtls/mbedtls/library/bignum.c:476
    5cfc:	51000820 	sub	w0, w1, #0x2
/home/xiang/rockpi4-android/optee_os/lib/libmbedtls/mbedtls/library/bignum.c:467
    5d00:	a90363f7 	stp	x23, x24, [sp,#48]
/home/xiang/rockpi4-android/optee_os/lib/libmbedtls/mbedtls/library/bignum.c:476
    5d04:	7100381f 	cmp	w0, #0xe
/home/xiang/rockpi4-android/optee_os/lib/libmbedtls/mbedtls/library/bignum.c:467
    5d08:	a9046bf9 	stp	x25, x26, [sp,#64]
    5d0c:	f9002bfb 	str	x27, [sp,#80]
/home/xiang/rockpi4-android/optee_os/lib/libmbedtls/mbedtls/library/bignum.c:476
    5d10:	54000149 	b.ls	5d38 <mbedtls_mpi_read_string+0x50>
/home/xiang/rockpi4-android/optee_os/lib/libmbedtls/mbedtls/library/bignum.c:477
    5d14:	12800073 	mov	w19, #0xfffffffc            	// #-4
/home/xiang/rockpi4-android/optee_os/lib/libmbedtls/mbedtls/library/bignum.c:531
    5d18:	2a1303e0 	mov	w0, w19
    5d1c:	f9402bfb 	ldr	x27, [sp,#80]
    5d20:	a94153f3 	ldp	x19, x20, [sp,#16]
    5d24:	a9425bf5 	ldp	x21, x22, [sp,#32]
    5d28:	a94363f7 	ldp	x23, x24, [sp,#48]
    5d2c:	a9446bf9 	ldp	x25, x26, [sp,#64]
    5d30:	a8c87bfd 	ldp	x29, x30, [sp],#128
    5d34:	d65f03c0 	ret
    5d38:	aa0203f6 	mov	x22, x2
/home/xiang/rockpi4-android/optee_os/lib/libmbedtls/mbedtls/library/bignum.c:479
    5d3c:	9101a3b7 	add	x23, x29, #0x68
    5d40:	aa1703e0 	mov	x0, x23
    5d44:	2a0103f9 	mov	w25, w1
    5d48:	97fffb2c 	bl	49f8 <mbedtls_mpi_init_mempool>
/home/xiang/rockpi4-android/optee_os/lib/libmbedtls/mbedtls/library/bignum.c:481
    5d4c:	394002c0 	ldrb	w0, [x22]
    5d50:	350000a0 	cbnz	w0, 5d64 <mbedtls_mpi_read_string+0x7c>
/home/xiang/rockpi4-android/optee_os/lib/libmbedtls/mbedtls/library/bignum.c:483
    5d54:	aa1403e0 	mov	x0, x20
/home/xiang/rockpi4-android/optee_os/lib/libmbedtls/mbedtls/library/bignum.c:484
    5d58:	52800013 	mov	w19, #0x0                   	// #0
/home/xiang/rockpi4-android/optee_os/lib/libmbedtls/mbedtls/library/bignum.c:483
    5d5c:	97fffb31 	bl	4a20 <mbedtls_mpi_free>
/home/xiang/rockpi4-android/optee_os/lib/libmbedtls/mbedtls/library/bignum.c:484
    5d60:	17ffffee 	b	5d18 <mbedtls_mpi_read_string+0x30>
/home/xiang/rockpi4-android/optee_os/lib/libmbedtls/mbedtls/library/bignum.c:487
    5d64:	7100b41f 	cmp	w0, #0x2d
    5d68:	540004a1 	b.ne	5dfc <mbedtls_mpi_read_string+0x114>
/home/xiang/rockpi4-android/optee_os/lib/libmbedtls/mbedtls/library/bignum.c:489
    5d6c:	910006d6 	add	x22, x22, #0x1
/home/xiang/rockpi4-android/optee_os/lib/libmbedtls/mbedtls/library/bignum.c:490
    5d70:	1280001a 	mov	w26, #0xffffffff            	// #-1
/home/xiang/rockpi4-android/optee_os/lib/libmbedtls/mbedtls/library/bignum.c:493
    5d74:	aa1603e0 	mov	x0, x22
    5d78:	94000ef6 	bl	9950 <strlen>
/home/xiang/rockpi4-android/optee_os/lib/libmbedtls/mbedtls/library/bignum.c:495
    5d7c:	7100433f 	cmp	w25, #0x10
/home/xiang/rockpi4-android/optee_os/lib/libmbedtls/mbedtls/library/bignum.c:493
    5d80:	aa0003f5 	mov	x21, x0
/home/xiang/rockpi4-android/optee_os/lib/libmbedtls/mbedtls/library/bignum.c:495
    5d84:	54000641 	b.ne	5e4c <mbedtls_mpi_read_string+0x164>
/home/xiang/rockpi4-android/optee_os/lib/libmbedtls/mbedtls/library/bignum.c:497
    5d88:	92f80000 	mov	x0, #0x3fffffffffffffff    	// #4611686018427387903
    5d8c:	eb0002bf 	cmp	x21, x0
    5d90:	54fffc28 	b.hi	5d14 <mbedtls_mpi_read_string+0x2c>
/home/xiang/rockpi4-android/optee_os/lib/libmbedtls/mbedtls/library/bignum.c:500
    5d94:	d37ef6a0 	lsl	x0, x21, #2
    5d98:	f27e081f 	tst	x0, #0x1c
    5d9c:	d345fc01 	lsr	x1, x0, #5
/home/xiang/rockpi4-android/optee_os/lib/libmbedtls/mbedtls/library/bignum.c:502
    5da0:	9a810421 	cinc	x1, x1, ne
    5da4:	aa1403e0 	mov	x0, x20
    5da8:	97fffb39 	bl	4a8c <mbedtls_mpi_grow>
    5dac:	2a0003f3 	mov	w19, w0
    5db0:	35000200 	cbnz	w0, 5df0 <mbedtls_mpi_read_string+0x108>
/home/xiang/rockpi4-android/optee_os/lib/libmbedtls/mbedtls/library/bignum.c:503
    5db4:	52800001 	mov	w1, #0x0                   	// #0
    5db8:	aa1403e0 	mov	x0, x20
    5dbc:	97fffc28 	bl	4e5c <mbedtls_mpi_lset>
    5dc0:	2a0003f3 	mov	w19, w0
    5dc4:	35000160 	cbnz	w0, 5df0 <mbedtls_mpi_read_string+0x108>
/home/xiang/rockpi4-android/optee_os/lib/libmbedtls/mbedtls/library/bignum.c:507 (discriminator 1)
    5dc8:	910193b9 	add	x25, x29, #0x64
    5dcc:	d2800018 	mov	x24, #0x0                   	// #0
/home/xiang/rockpi4-android/optee_os/lib/libmbedtls/mbedtls/library/bignum.c:505 (discriminator 1)
    5dd0:	b50001b5 	cbnz	x21, 5e04 <mbedtls_mpi_read_string+0x11c>
/home/xiang/rockpi4-android/optee_os/lib/libmbedtls/mbedtls/library/bignum.c:523
    5dd4:	3100075f 	cmn	w26, #0x1
    5dd8:	540000a1 	b.ne	5dec <mbedtls_mpi_read_string+0x104>
/home/xiang/rockpi4-android/optee_os/lib/libmbedtls/mbedtls/library/bignum.c:523 (discriminator 1)
    5ddc:	aa1403e0 	mov	x0, x20
    5de0:	97fffc7d 	bl	4fd4 <mbedtls_mpi_bitlen>
    5de4:	b4000040 	cbz	x0, 5dec <mbedtls_mpi_read_string+0x104>
/home/xiang/rockpi4-android/optee_os/lib/libmbedtls/mbedtls/library/bignum.c:524
    5de8:	7900029a 	strh	w26, [x20]
    5dec:	52800013 	mov	w19, #0x0                   	// #0
/home/xiang/rockpi4-android/optee_os/lib/libmbedtls/mbedtls/library/bignum.c:528
    5df0:	aa1703e0 	mov	x0, x23
    5df4:	97fffb0b 	bl	4a20 <mbedtls_mpi_free>
/home/xiang/rockpi4-android/optee_os/lib/libmbedtls/mbedtls/library/bignum.c:530
    5df8:	17ffffc8 	b	5d18 <mbedtls_mpi_read_string+0x30>
/home/xiang/rockpi4-android/optee_os/lib/libmbedtls/mbedtls/library/bignum.c:470
    5dfc:	5280003a 	mov	w26, #0x1                   	// #1
    5e00:	17ffffdd 	b	5d74 <mbedtls_mpi_read_string+0x8c>
/home/xiang/rockpi4-android/optee_os/lib/libmbedtls/mbedtls/library/bignum.c:507
    5e04:	d10006b5 	sub	x21, x21, #0x1
    5e08:	52800201 	mov	w1, #0x10                  	// #16
    5e0c:	aa1903e0 	mov	x0, x25
    5e10:	38756ac2 	ldrb	w2, [x22,x21]
    5e14:	97fff8e8 	bl	41b4 <mpi_get_digit>
    5e18:	2a0003f3 	mov	w19, w0
    5e1c:	35fffea0 	cbnz	w0, 5df0 <mbedtls_mpi_read_string+0x108>
/home/xiang/rockpi4-android/optee_os/lib/libmbedtls/mbedtls/library/bignum.c:508 (discriminator 2)
    5e20:	d343ff00 	lsr	x0, x24, #3
    5e24:	f9400a83 	ldr	x3, [x20,#16]
    5e28:	b94067a1 	ldr	w1, [x29,#100]
    5e2c:	d37ef400 	lsl	x0, x0, #2
    5e30:	531e0b02 	ubfiz	w2, w24, #2, #3
/home/xiang/rockpi4-android/optee_os/lib/libmbedtls/mbedtls/library/bignum.c:505 (discriminator 2)
    5e34:	91000718 	add	x24, x24, #0x1
/home/xiang/rockpi4-android/optee_os/lib/libmbedtls/mbedtls/library/bignum.c:508 (discriminator 2)
    5e38:	1ac22022 	lsl	w2, w1, w2
    5e3c:	b8606861 	ldr	w1, [x3,x0]
    5e40:	2a020021 	orr	w1, w1, w2
    5e44:	b8206861 	str	w1, [x3,x0]
    5e48:	17ffffe2 	b	5dd0 <mbedtls_mpi_read_string+0xe8>
/home/xiang/rockpi4-android/optee_os/lib/libmbedtls/mbedtls/library/bignum.c:513
    5e4c:	52800001 	mov	w1, #0x0                   	// #0
    5e50:	aa1403e0 	mov	x0, x20
    5e54:	97fffc02 	bl	4e5c <mbedtls_mpi_lset>
    5e58:	2a0003f3 	mov	w19, w0
    5e5c:	35fffca0 	cbnz	w0, 5df0 <mbedtls_mpi_read_string+0x108>
/home/xiang/rockpi4-android/optee_os/lib/libmbedtls/mbedtls/library/bignum.c:517 (discriminator 1)
    5e60:	910193bb 	add	x27, x29, #0x64
    5e64:	d2800018 	mov	x24, #0x0                   	// #0
/home/xiang/rockpi4-android/optee_os/lib/libmbedtls/mbedtls/library/bignum.c:515 (discriminator 1)
    5e68:	eb15031f 	cmp	x24, x21
    5e6c:	54fffb40 	b.eq	5dd4 <mbedtls_mpi_read_string+0xec>
/home/xiang/rockpi4-android/optee_os/lib/libmbedtls/mbedtls/library/bignum.c:517
    5e70:	38786ac2 	ldrb	w2, [x22,x24]
    5e74:	2a1903e1 	mov	w1, w25
    5e78:	aa1b03e0 	mov	x0, x27
    5e7c:	97fff8ce 	bl	41b4 <mpi_get_digit>
    5e80:	2a0003f3 	mov	w19, w0
    5e84:	35fffb60 	cbnz	w0, 5df0 <mbedtls_mpi_read_string+0x108>
/home/xiang/rockpi4-android/optee_os/lib/libmbedtls/mbedtls/library/bignum.c:518
    5e88:	2a1903e2 	mov	w2, w25
    5e8c:	aa1403e1 	mov	x1, x20
    5e90:	aa1703e0 	mov	x0, x23
    5e94:	97ffff66 	bl	5c2c <mbedtls_mpi_mul_int>
    5e98:	2a0003f3 	mov	w19, w0
    5e9c:	35fffaa0 	cbnz	w0, 5df0 <mbedtls_mpi_read_string+0x108>
/home/xiang/rockpi4-android/optee_os/lib/libmbedtls/mbedtls/library/bignum.c:519
    5ea0:	b94067a2 	ldr	w2, [x29,#100]
    5ea4:	aa1703e1 	mov	x1, x23
    5ea8:	aa1403e0 	mov	x0, x20
    5eac:	97fffedc 	bl	5a1c <mbedtls_mpi_add_int>
    5eb0:	2a0003f3 	mov	w19, w0
    5eb4:	35fff9e0 	cbnz	w0, 5df0 <mbedtls_mpi_read_string+0x108>
/home/xiang/rockpi4-android/optee_os/lib/libmbedtls/mbedtls/library/bignum.c:515 (discriminator 2)
    5eb8:	91000718 	add	x24, x24, #0x1
    5ebc:	17ffffeb 	b	5e68 <mbedtls_mpi_read_string+0x180>

0000000000005ec0 <mbedtls_mpi_div_mpi>:
mbedtls_mpi_div_mpi():
/home/xiang/rockpi4-android/optee_os/lib/libmbedtls/mbedtls/library/bignum.c:1692
    5ec0:	a9ad7bfd 	stp	x29, x30, [sp,#-304]!
    5ec4:	910003fd 	mov	x29, sp
    5ec8:	a90363f7 	stp	x23, x24, [sp,#48]
    5ecc:	aa0203f8 	mov	x24, x2
    5ed0:	a9046bf9 	stp	x25, x26, [sp,#64]
    5ed4:	aa0103f9 	mov	x25, x1
    5ed8:	a90573fb 	stp	x27, x28, [sp,#80]
/home/xiang/rockpi4-android/optee_os/lib/libmbedtls/mbedtls/library/bignum.c:1700
    5edc:	52800001 	mov	w1, #0x0                   	// #0
/home/xiang/rockpi4-android/optee_os/lib/libmbedtls/mbedtls/library/bignum.c:1692
    5ee0:	a90153f3 	stp	x19, x20, [sp,#16]
    5ee4:	aa0003fb 	mov	x27, x0
    5ee8:	a9025bf5 	stp	x21, x22, [sp,#32]
/home/xiang/rockpi4-android/optee_os/lib/libmbedtls/mbedtls/library/bignum.c:1700
    5eec:	aa0303e0 	mov	x0, x3
/home/xiang/rockpi4-android/optee_os/lib/libmbedtls/mbedtls/library/bignum.c:1692
    5ef0:	f9003fa3 	str	x3, [x29,#120]
/home/xiang/rockpi4-android/optee_os/lib/libmbedtls/mbedtls/library/bignum.c:1700
    5ef4:	97fffdcd 	bl	5628 <mbedtls_mpi_cmp_int>
    5ef8:	34002620 	cbz	w0, 63bc <mbedtls_mpi_div_mpi+0x4fc>
/home/xiang/rockpi4-android/optee_os/lib/libmbedtls/mbedtls/library/bignum.c:1703
    5efc:	9102e3b3 	add	x19, x29, #0xb8
    5f00:	910343b7 	add	x23, x29, #0xd0
    5f04:	aa1303e0 	mov	x0, x19
    5f08:	97fffabc 	bl	49f8 <mbedtls_mpi_init_mempool>
    5f0c:	aa1703e0 	mov	x0, x23
    5f10:	97fffaba 	bl	49f8 <mbedtls_mpi_init_mempool>
/home/xiang/rockpi4-android/optee_os/lib/libmbedtls/mbedtls/library/bignum.c:1704
    5f14:	9103a3a0 	add	x0, x29, #0xe8
    5f18:	910403b5 	add	x21, x29, #0x100
    5f1c:	f9004fa0 	str	x0, [x29,#152]
    5f20:	97fffab6 	bl	49f8 <mbedtls_mpi_init_mempool>
    5f24:	aa1503e0 	mov	x0, x21
    5f28:	97fffab4 	bl	49f8 <mbedtls_mpi_init_mempool>
/home/xiang/rockpi4-android/optee_os/lib/libmbedtls/mbedtls/library/bignum.c:1716
    5f2c:	f9403fa1 	ldr	x1, [x29,#120]
/home/xiang/rockpi4-android/optee_os/lib/libmbedtls/mbedtls/library/bignum.c:1713
    5f30:	d2800060 	mov	x0, #0x3                   	// #3
    5f34:	f90093a0 	str	x0, [x29,#288]
/home/xiang/rockpi4-android/optee_os/lib/libmbedtls/mbedtls/library/bignum.c:1714
    5f38:	9102a3a0 	add	x0, x29, #0xa8
/home/xiang/rockpi4-android/optee_os/lib/libmbedtls/mbedtls/library/bignum.c:1712
    5f3c:	52800034 	mov	w20, #0x1                   	// #1
/home/xiang/rockpi4-android/optee_os/lib/libmbedtls/mbedtls/library/bignum.c:1714
    5f40:	f90037a0 	str	x0, [x29,#104]
    5f44:	f90097a0 	str	x0, [x29,#296]
/home/xiang/rockpi4-android/optee_os/lib/libmbedtls/mbedtls/library/bignum.c:1716
    5f48:	aa1803e0 	mov	x0, x24
/home/xiang/rockpi4-android/optee_os/lib/libmbedtls/mbedtls/library/bignum.c:1712
    5f4c:	790233b4 	strh	w20, [x29,#280]
/home/xiang/rockpi4-android/optee_os/lib/libmbedtls/mbedtls/library/bignum.c:1716
    5f50:	97fffd4e 	bl	5488 <mbedtls_mpi_cmp_abs>
    5f54:	36f80460 	tbz	w0, #31, 5fe0 <mbedtls_mpi_div_mpi+0x120>
/home/xiang/rockpi4-android/optee_os/lib/libmbedtls/mbedtls/library/bignum.c:1718
    5f58:	b500017b 	cbnz	x27, 5f84 <mbedtls_mpi_div_mpi+0xc4>
/home/xiang/rockpi4-android/optee_os/lib/libmbedtls/mbedtls/library/bignum.c:1719
    5f5c:	b5000379 	cbnz	x25, 5fc8 <mbedtls_mpi_div_mpi+0x108>
/home/xiang/rockpi4-android/optee_os/lib/libmbedtls/mbedtls/library/bignum.c:1720
    5f60:	5280001a 	mov	w26, #0x0                   	// #0
/home/xiang/rockpi4-android/optee_os/lib/libmbedtls/mbedtls/library/bignum.c:1813
    5f64:	2a1a03e0 	mov	w0, w26
    5f68:	a94153f3 	ldp	x19, x20, [sp,#16]
    5f6c:	a9425bf5 	ldp	x21, x22, [sp,#32]
    5f70:	a94363f7 	ldp	x23, x24, [sp,#48]
    5f74:	a9446bf9 	ldp	x25, x26, [sp,#64]
    5f78:	a94573fb 	ldp	x27, x28, [sp,#80]
    5f7c:	a8d37bfd 	ldp	x29, x30, [sp],#304
    5f80:	d65f03c0 	ret
/home/xiang/rockpi4-android/optee_os/lib/libmbedtls/mbedtls/library/bignum.c:1718 (discriminator 1)
    5f84:	52800001 	mov	w1, #0x0                   	// #0
    5f88:	aa1b03e0 	mov	x0, x27
    5f8c:	97fffbb4 	bl	4e5c <mbedtls_mpi_lset>
    5f90:	2a0003fa 	mov	w26, w0
    5f94:	34fffe40 	cbz	w0, 5f5c <mbedtls_mpi_div_mpi+0x9c>
/home/xiang/rockpi4-android/optee_os/lib/libmbedtls/mbedtls/library/bignum.c:1808
    5f98:	aa1303e0 	mov	x0, x19
    5f9c:	97fffaa1 	bl	4a20 <mbedtls_mpi_free>
    5fa0:	aa1703e0 	mov	x0, x23
    5fa4:	97fffa9f 	bl	4a20 <mbedtls_mpi_free>
    5fa8:	f9404fa0 	ldr	x0, [x29,#152]
    5fac:	97fffa9d 	bl	4a20 <mbedtls_mpi_free>
/home/xiang/rockpi4-android/optee_os/lib/libmbedtls/mbedtls/library/bignum.c:1809
    5fb0:	aa1503e0 	mov	x0, x21
    5fb4:	97fffa9b 	bl	4a20 <mbedtls_mpi_free>
/home/xiang/rockpi4-android/optee_os/lib/libmbedtls/mbedtls/library/bignum.c:1810
    5fb8:	f94037a0 	ldr	x0, [x29,#104]
    5fbc:	d2800181 	mov	x1, #0xc                   	// #12
    5fc0:	94000a47 	bl	88dc <mbedtls_platform_zeroize>
/home/xiang/rockpi4-android/optee_os/lib/libmbedtls/mbedtls/library/bignum.c:1812
    5fc4:	17ffffe8 	b	5f64 <mbedtls_mpi_div_mpi+0xa4>
/home/xiang/rockpi4-android/optee_os/lib/libmbedtls/mbedtls/library/bignum.c:1719 (discriminator 1)
    5fc8:	aa1803e1 	mov	x1, x24
    5fcc:	aa1903e0 	mov	x0, x25
    5fd0:	97fffb52 	bl	4d18 <mbedtls_mpi_copy>
    5fd4:	2a0003fa 	mov	w26, w0
    5fd8:	35fffe00 	cbnz	w0, 5f98 <mbedtls_mpi_div_mpi+0xd8>
    5fdc:	17ffffe1 	b	5f60 <mbedtls_mpi_div_mpi+0xa0>
/home/xiang/rockpi4-android/optee_os/lib/libmbedtls/mbedtls/library/bignum.c:1723
    5fe0:	aa1803e1 	mov	x1, x24
    5fe4:	aa1303e0 	mov	x0, x19
    5fe8:	97fffb4c 	bl	4d18 <mbedtls_mpi_copy>
    5fec:	2a0003fa 	mov	w26, w0
    5ff0:	35fffd40 	cbnz	w0, 5f98 <mbedtls_mpi_div_mpi+0xd8>
/home/xiang/rockpi4-android/optee_os/lib/libmbedtls/mbedtls/library/bignum.c:1724
    5ff4:	f9403fa1 	ldr	x1, [x29,#120]
    5ff8:	aa1703e0 	mov	x0, x23
    5ffc:	97fffb47 	bl	4d18 <mbedtls_mpi_copy>
    6000:	2a0003fa 	mov	w26, w0
    6004:	35fffca0 	cbnz	w0, 5f98 <mbedtls_mpi_div_mpi+0xd8>
/home/xiang/rockpi4-android/optee_os/lib/libmbedtls/mbedtls/library/bignum.c:1727
    6008:	f9404fa0 	ldr	x0, [x29,#152]
    600c:	f9400701 	ldr	x1, [x24,#8]
/home/xiang/rockpi4-android/optee_os/lib/libmbedtls/mbedtls/library/bignum.c:1725
    6010:	7901a3b4 	strh	w20, [x29,#208]
    6014:	790173b4 	strh	w20, [x29,#184]
/home/xiang/rockpi4-android/optee_os/lib/libmbedtls/mbedtls/library/bignum.c:1727
    6018:	91000821 	add	x1, x1, #0x2
    601c:	97fffa9c 	bl	4a8c <mbedtls_mpi_grow>
    6020:	2a0003fa 	mov	w26, w0
    6024:	35fffba0 	cbnz	w0, 5f98 <mbedtls_mpi_div_mpi+0xd8>
/home/xiang/rockpi4-android/optee_os/lib/libmbedtls/mbedtls/library/bignum.c:1728
    6028:	f9404fa0 	ldr	x0, [x29,#152]
    602c:	52800001 	mov	w1, #0x0                   	// #0
    6030:	97fffb8b 	bl	4e5c <mbedtls_mpi_lset>
    6034:	2a0003fa 	mov	w26, w0
    6038:	35fffb00 	cbnz	w0, 5f98 <mbedtls_mpi_div_mpi+0xd8>
/home/xiang/rockpi4-android/optee_os/lib/libmbedtls/mbedtls/library/bignum.c:1729
    603c:	f9400701 	ldr	x1, [x24,#8]
    6040:	aa1503e0 	mov	x0, x21
    6044:	91000821 	add	x1, x1, #0x2
    6048:	97fffa91 	bl	4a8c <mbedtls_mpi_grow>
    604c:	2a0003fa 	mov	w26, w0
    6050:	35fffa40 	cbnz	w0, 5f98 <mbedtls_mpi_div_mpi+0xd8>
/home/xiang/rockpi4-android/optee_os/lib/libmbedtls/mbedtls/library/bignum.c:1731
    6054:	aa1703e0 	mov	x0, x23
    6058:	97fffbdf 	bl	4fd4 <mbedtls_mpi_bitlen>
    605c:	92401000 	and	x0, x0, #0x1f
/home/xiang/rockpi4-android/optee_os/lib/libmbedtls/mbedtls/library/bignum.c:1732
    6060:	f1007c1f 	cmp	x0, #0x1f
    6064:	54000a80 	b.eq	61b4 <mbedtls_mpi_div_mpi+0x2f4>
/home/xiang/rockpi4-android/optee_os/lib/libmbedtls/mbedtls/library/bignum.c:1734
    6068:	d28003e1 	mov	x1, #0x1f                  	// #31
    606c:	cb000020 	sub	x0, x1, x0
/home/xiang/rockpi4-android/optee_os/lib/libmbedtls/mbedtls/library/bignum.c:1735
    6070:	aa0003e1 	mov	x1, x0
/home/xiang/rockpi4-android/optee_os/lib/libmbedtls/mbedtls/library/bignum.c:1734
    6074:	f9004ba0 	str	x0, [x29,#144]
/home/xiang/rockpi4-android/optee_os/lib/libmbedtls/mbedtls/library/bignum.c:1735
    6078:	aa1303e0 	mov	x0, x19
    607c:	97fffc94 	bl	52cc <mbedtls_mpi_shift_l>
    6080:	2a0003fa 	mov	w26, w0
    6084:	35fff8a0 	cbnz	w0, 5f98 <mbedtls_mpi_div_mpi+0xd8>
/home/xiang/rockpi4-android/optee_os/lib/libmbedtls/mbedtls/library/bignum.c:1736
    6088:	f9404ba1 	ldr	x1, [x29,#144]
    608c:	aa1703e0 	mov	x0, x23
    6090:	97fffc8f 	bl	52cc <mbedtls_mpi_shift_l>
    6094:	2a0003fa 	mov	w26, w0
    6098:	35fff800 	cbnz	w0, 5f98 <mbedtls_mpi_div_mpi+0xd8>
/home/xiang/rockpi4-android/optee_os/lib/libmbedtls/mbedtls/library/bignum.c:1741
    609c:	f9406fa0 	ldr	x0, [x29,#216]
/home/xiang/rockpi4-android/optee_os/lib/libmbedtls/mbedtls/library/bignum.c:1740
    60a0:	f94063b6 	ldr	x22, [x29,#192]
/home/xiang/rockpi4-android/optee_os/lib/libmbedtls/mbedtls/library/bignum.c:1741
    60a4:	f90043a0 	str	x0, [x29,#128]
    60a8:	d1000400 	sub	x0, x0, #0x1
/home/xiang/rockpi4-android/optee_os/lib/libmbedtls/mbedtls/library/bignum.c:1740
    60ac:	d10006dc 	sub	x28, x22, #0x1
/home/xiang/rockpi4-android/optee_os/lib/libmbedtls/mbedtls/library/bignum.c:1741
    60b0:	f90047a0 	str	x0, [x29,#136]
/home/xiang/rockpi4-android/optee_os/lib/libmbedtls/mbedtls/library/bignum.c:1742
    60b4:	cb000394 	sub	x20, x28, x0
    60b8:	d37bea80 	lsl	x0, x20, #5
    60bc:	f9003ba0 	str	x0, [x29,#112]
    60c0:	aa0003e1 	mov	x1, x0
    60c4:	aa1703e0 	mov	x0, x23
    60c8:	97fffc81 	bl	52cc <mbedtls_mpi_shift_l>
    60cc:	2a0003fa 	mov	w26, w0
    60d0:	35fff640 	cbnz	w0, 5f98 <mbedtls_mpi_div_mpi+0xd8>
/home/xiang/rockpi4-android/optee_os/lib/libmbedtls/mbedtls/library/bignum.c:1746
    60d4:	d37ef694 	lsl	x20, x20, #2
/home/xiang/rockpi4-android/optee_os/lib/libmbedtls/mbedtls/library/bignum.c:1744
    60d8:	aa1703e1 	mov	x1, x23
    60dc:	aa1303e0 	mov	x0, x19
    60e0:	97fffd16 	bl	5538 <mbedtls_mpi_cmp_mpi>
    60e4:	36f806c0 	tbz	w0, #31, 61bc <mbedtls_mpi_div_mpi+0x2fc>
/home/xiang/rockpi4-android/optee_os/lib/libmbedtls/mbedtls/library/bignum.c:1749
    60e8:	f9403ba1 	ldr	x1, [x29,#112]
    60ec:	aa1703e0 	mov	x0, x23
    60f0:	97fffcb7 	bl	53cc <mbedtls_mpi_shift_r>
    60f4:	2a0003fa 	mov	w26, w0
    60f8:	35fff500 	cbnz	w0, 5f98 <mbedtls_mpi_div_mpi+0xd8>
/home/xiang/rockpi4-android/optee_os/lib/libmbedtls/mbedtls/library/bignum.c:1753
    60fc:	f94047a0 	ldr	x0, [x29,#136]
    6100:	d37ef400 	lsl	x0, x0, #2
    6104:	f9003ba0 	str	x0, [x29,#112]
    6108:	f94043a0 	ldr	x0, [x29,#128]
    610c:	cb0002c0 	sub	x0, x22, x0
    6110:	d37ef6d6 	lsl	x22, x22, #2
    6114:	d37ef414 	lsl	x20, x0, #2
    6118:	d37be800 	lsl	x0, x0, #5
    611c:	d1008000 	sub	x0, x0, #0x20
    6120:	d1001294 	sub	x20, x20, #0x4
    6124:	d10022d6 	sub	x22, x22, #0x8
    6128:	f90043a0 	str	x0, [x29,#128]
/home/xiang/rockpi4-android/optee_os/lib/libmbedtls/mbedtls/library/bignum.c:1775
    612c:	910463a0 	add	x0, x29, #0x118
    6130:	f90033a0 	str	x0, [x29,#96]
/home/xiang/rockpi4-android/optee_os/lib/libmbedtls/mbedtls/library/bignum.c:1751 (discriminator 1)
    6134:	f94047a0 	ldr	x0, [x29,#136]
    6138:	eb00039f 	cmp	x28, x0
    613c:	54000568 	b.hi	61e8 <mbedtls_mpi_div_mpi+0x328>
/home/xiang/rockpi4-android/optee_os/lib/libmbedtls/mbedtls/library/bignum.c:1790
    6140:	b400015b 	cbz	x27, 6168 <mbedtls_mpi_div_mpi+0x2a8>
/home/xiang/rockpi4-android/optee_os/lib/libmbedtls/mbedtls/library/bignum.c:1792
    6144:	f9404fa1 	ldr	x1, [x29,#152]
    6148:	aa1b03e0 	mov	x0, x27
    614c:	97fffaf3 	bl	4d18 <mbedtls_mpi_copy>
    6150:	35001320 	cbnz	w0, 63b4 <mbedtls_mpi_div_mpi+0x4f4>
/home/xiang/rockpi4-android/optee_os/lib/libmbedtls/mbedtls/library/bignum.c:1793
    6154:	f9403fa1 	ldr	x1, [x29,#120]
    6158:	79400300 	ldrh	w0, [x24]
    615c:	79400021 	ldrh	w1, [x1]
    6160:	1b017c00 	mul	w0, w0, w1
    6164:	79000360 	strh	w0, [x27]
/home/xiang/rockpi4-android/optee_os/lib/libmbedtls/mbedtls/library/bignum.c:1796
    6168:	b4fff199 	cbz	x25, 5f98 <mbedtls_mpi_div_mpi+0xd8>
/home/xiang/rockpi4-android/optee_os/lib/libmbedtls/mbedtls/library/bignum.c:1798
    616c:	f9404ba1 	ldr	x1, [x29,#144]
    6170:	aa1303e0 	mov	x0, x19
    6174:	97fffc96 	bl	53cc <mbedtls_mpi_shift_r>
    6178:	350011e0 	cbnz	w0, 63b4 <mbedtls_mpi_div_mpi+0x4f4>
/home/xiang/rockpi4-android/optee_os/lib/libmbedtls/mbedtls/library/bignum.c:1799
    617c:	79400300 	ldrh	w0, [x24]
/home/xiang/rockpi4-android/optee_os/lib/libmbedtls/mbedtls/library/bignum.c:1800
    6180:	aa1303e1 	mov	x1, x19
/home/xiang/rockpi4-android/optee_os/lib/libmbedtls/mbedtls/library/bignum.c:1799
    6184:	790173a0 	strh	w0, [x29,#184]
/home/xiang/rockpi4-android/optee_os/lib/libmbedtls/mbedtls/library/bignum.c:1800
    6188:	aa1903e0 	mov	x0, x25
    618c:	97fffae3 	bl	4d18 <mbedtls_mpi_copy>
    6190:	35001120 	cbnz	w0, 63b4 <mbedtls_mpi_div_mpi+0x4f4>
/home/xiang/rockpi4-android/optee_os/lib/libmbedtls/mbedtls/library/bignum.c:1802
    6194:	52800001 	mov	w1, #0x0                   	// #0
    6198:	aa1903e0 	mov	x0, x25
    619c:	97fffd23 	bl	5628 <mbedtls_mpi_cmp_int>
    61a0:	35ffefc0 	cbnz	w0, 5f98 <mbedtls_mpi_div_mpi+0xd8>
/home/xiang/rockpi4-android/optee_os/lib/libmbedtls/mbedtls/library/bignum.c:1803
    61a4:	52800020 	mov	w0, #0x1                   	// #1
    61a8:	5280001a 	mov	w26, #0x0                   	// #0
    61ac:	79000320 	strh	w0, [x25]
    61b0:	17ffff7a 	b	5f98 <mbedtls_mpi_div_mpi+0xd8>
/home/xiang/rockpi4-android/optee_os/lib/libmbedtls/mbedtls/library/bignum.c:1738
    61b4:	f9004bbf 	str	xzr, [x29,#144]
    61b8:	17ffffb9 	b	609c <mbedtls_mpi_div_mpi+0x1dc>
/home/xiang/rockpi4-android/optee_os/lib/libmbedtls/mbedtls/library/bignum.c:1746
    61bc:	f9407fa1 	ldr	x1, [x29,#248]
/home/xiang/rockpi4-android/optee_os/lib/libmbedtls/mbedtls/library/bignum.c:1747
    61c0:	aa1703e2 	mov	x2, x23
/home/xiang/rockpi4-android/optee_os/lib/libmbedtls/mbedtls/library/bignum.c:1746
    61c4:	b8746820 	ldr	w0, [x1,x20]
    61c8:	11000400 	add	w0, w0, #0x1
    61cc:	b8346820 	str	w0, [x1,x20]
/home/xiang/rockpi4-android/optee_os/lib/libmbedtls/mbedtls/library/bignum.c:1747
    61d0:	aa1303e1 	mov	x1, x19
    61d4:	aa1303e0 	mov	x0, x19
    61d8:	97fffdee 	bl	5990 <mbedtls_mpi_sub_mpi>
    61dc:	2a0003fa 	mov	w26, w0
    61e0:	34fff7c0 	cbz	w0, 60d8 <mbedtls_mpi_div_mpi+0x218>
    61e4:	17ffff6d 	b	5f98 <mbedtls_mpi_div_mpi+0xd8>
/home/xiang/rockpi4-android/optee_os/lib/libmbedtls/mbedtls/library/bignum.c:1753
    61e8:	f9403ba3 	ldr	x3, [x29,#112]
    61ec:	910012c6 	add	x6, x22, #0x4
    61f0:	f94067a2 	ldr	x2, [x29,#200]
    61f4:	f94073a0 	ldr	x0, [x29,#224]
    61f8:	f9407fa5 	ldr	x5, [x29,#248]
    61fc:	b8666841 	ldr	w1, [x2,x6]
    6200:	b8636804 	ldr	w4, [x0,x3]
    6204:	6b04003f 	cmp	w1, w4
    6208:	54000b23 	b.cc	636c <mbedtls_mpi_div_mpi+0x4ac>
/home/xiang/rockpi4-android/optee_os/lib/libmbedtls/mbedtls/library/bignum.c:1754
    620c:	12800000 	mov	w0, #0xffffffff            	// #-1
    6210:	b83468a0 	str	w0, [x5,x20]
/home/xiang/rockpi4-android/optee_os/lib/libmbedtls/mbedtls/library/bignum.c:1761
    6214:	f100079f 	cmp	x28, #0x1
    6218:	f94097a0 	ldr	x0, [x29,#296]
    621c:	54000c40 	b.eq	63a4 <mbedtls_mpi_div_mpi+0x4e4>
/home/xiang/rockpi4-android/optee_os/lib/libmbedtls/mbedtls/library/bignum.c:1761 (discriminator 1)
    6220:	8b160041 	add	x1, x2, x22
    6224:	b85fc021 	ldur	w1, [x1,#-4]
/home/xiang/rockpi4-android/optee_os/lib/libmbedtls/mbedtls/library/bignum.c:1761 (discriminator 4)
    6228:	b9000001 	str	w1, [x0]
/home/xiang/rockpi4-android/optee_os/lib/libmbedtls/mbedtls/library/bignum.c:1762 (discriminator 4)
    622c:	b8766841 	ldr	w1, [x2,x22]
    6230:	b9000401 	str	w1, [x0,#4]
/home/xiang/rockpi4-android/optee_os/lib/libmbedtls/mbedtls/library/bignum.c:1763 (discriminator 4)
    6234:	b8666841 	ldr	w1, [x2,x6]
    6238:	b9000801 	str	w1, [x0,#8]
/home/xiang/rockpi4-android/optee_os/lib/libmbedtls/mbedtls/library/bignum.c:1765 (discriminator 4)
    623c:	b87468a0 	ldr	w0, [x5,x20]
    6240:	11000400 	add	w0, w0, #0x1
    6244:	b83468a0 	str	w0, [x5,x20]
/home/xiang/rockpi4-android/optee_os/lib/libmbedtls/mbedtls/library/bignum.c:1768
    6248:	f9407fa1 	ldr	x1, [x29,#248]
    624c:	b8746820 	ldr	w0, [x1,x20]
    6250:	51000400 	sub	w0, w0, #0x1
    6254:	b8346820 	str	w0, [x1,x20]
/home/xiang/rockpi4-android/optee_os/lib/libmbedtls/mbedtls/library/bignum.c:1770
    6258:	52800001 	mov	w1, #0x0                   	// #0
    625c:	aa1503e0 	mov	x0, x21
    6260:	97fffaff 	bl	4e5c <mbedtls_mpi_lset>
    6264:	35000a80 	cbnz	w0, 63b4 <mbedtls_mpi_div_mpi+0x4f4>
/home/xiang/rockpi4-android/optee_os/lib/libmbedtls/mbedtls/library/bignum.c:1771
    6268:	f94047a2 	ldr	x2, [x29,#136]
    626c:	f94073a1 	ldr	x1, [x29,#224]
    6270:	f9408ba0 	ldr	x0, [x29,#272]
    6274:	b40009c2 	cbz	x2, 63ac <mbedtls_mpi_div_mpi+0x4ec>
/home/xiang/rockpi4-android/optee_os/lib/libmbedtls/mbedtls/library/bignum.c:1771 (discriminator 1)
    6278:	f9403ba2 	ldr	x2, [x29,#112]
    627c:	8b020022 	add	x2, x1, x2
    6280:	b85fc042 	ldur	w2, [x2,#-4]
/home/xiang/rockpi4-android/optee_os/lib/libmbedtls/mbedtls/library/bignum.c:1771 (discriminator 4)
    6284:	b9000002 	str	w2, [x0]
/home/xiang/rockpi4-android/optee_os/lib/libmbedtls/mbedtls/library/bignum.c:1772 (discriminator 4)
    6288:	f9403ba2 	ldr	x2, [x29,#112]
    628c:	b8626821 	ldr	w1, [x1,x2]
    6290:	b9000401 	str	w1, [x0,#4]
/home/xiang/rockpi4-android/optee_os/lib/libmbedtls/mbedtls/library/bignum.c:1773 (discriminator 4)
    6294:	aa1503e1 	mov	x1, x21
    6298:	f9407fa0 	ldr	x0, [x29,#248]
    629c:	b8746802 	ldr	w2, [x0,x20]
    62a0:	aa1503e0 	mov	x0, x21
    62a4:	97fffe62 	bl	5c2c <mbedtls_mpi_mul_int>
    62a8:	35000860 	cbnz	w0, 63b4 <mbedtls_mpi_div_mpi+0x4f4>
/home/xiang/rockpi4-android/optee_os/lib/libmbedtls/mbedtls/library/bignum.c:1775
    62ac:	f94033a1 	ldr	x1, [x29,#96]
    62b0:	aa1503e0 	mov	x0, x21
    62b4:	97fffca1 	bl	5538 <mbedtls_mpi_cmp_mpi>
    62b8:	7100001f 	cmp	w0, #0x0
    62bc:	54fffc6c 	b.gt	6248 <mbedtls_mpi_div_mpi+0x388>
/home/xiang/rockpi4-android/optee_os/lib/libmbedtls/mbedtls/library/bignum.c:1777
    62c0:	f9407fa0 	ldr	x0, [x29,#248]
    62c4:	aa1703e1 	mov	x1, x23
    62c8:	b8746802 	ldr	w2, [x0,x20]
    62cc:	aa1503e0 	mov	x0, x21
    62d0:	97fffe57 	bl	5c2c <mbedtls_mpi_mul_int>
    62d4:	35000700 	cbnz	w0, 63b4 <mbedtls_mpi_div_mpi+0x4f4>
/home/xiang/rockpi4-android/optee_os/lib/libmbedtls/mbedtls/library/bignum.c:1778
    62d8:	f94043a1 	ldr	x1, [x29,#128]
    62dc:	aa1503e0 	mov	x0, x21
    62e0:	97fffbfb 	bl	52cc <mbedtls_mpi_shift_l>
    62e4:	35000680 	cbnz	w0, 63b4 <mbedtls_mpi_div_mpi+0x4f4>
/home/xiang/rockpi4-android/optee_os/lib/libmbedtls/mbedtls/library/bignum.c:1779
    62e8:	aa1503e2 	mov	x2, x21
    62ec:	aa1303e1 	mov	x1, x19
    62f0:	aa1303e0 	mov	x0, x19
    62f4:	97fffda7 	bl	5990 <mbedtls_mpi_sub_mpi>
    62f8:	350005e0 	cbnz	w0, 63b4 <mbedtls_mpi_div_mpi+0x4f4>
/home/xiang/rockpi4-android/optee_os/lib/libmbedtls/mbedtls/library/bignum.c:1781
    62fc:	52800001 	mov	w1, #0x0                   	// #0
    6300:	aa1303e0 	mov	x0, x19
    6304:	97fffcc9 	bl	5628 <mbedtls_mpi_cmp_int>
    6308:	36f80240 	tbz	w0, #31, 6350 <mbedtls_mpi_div_mpi+0x490>
/home/xiang/rockpi4-android/optee_os/lib/libmbedtls/mbedtls/library/bignum.c:1783
    630c:	aa1703e1 	mov	x1, x23
    6310:	aa1503e0 	mov	x0, x21
    6314:	97fffa81 	bl	4d18 <mbedtls_mpi_copy>
    6318:	350004e0 	cbnz	w0, 63b4 <mbedtls_mpi_div_mpi+0x4f4>
/home/xiang/rockpi4-android/optee_os/lib/libmbedtls/mbedtls/library/bignum.c:1784
    631c:	f94043a1 	ldr	x1, [x29,#128]
    6320:	aa1503e0 	mov	x0, x21
    6324:	97fffbea 	bl	52cc <mbedtls_mpi_shift_l>
    6328:	35000460 	cbnz	w0, 63b4 <mbedtls_mpi_div_mpi+0x4f4>
/home/xiang/rockpi4-android/optee_os/lib/libmbedtls/mbedtls/library/bignum.c:1785
    632c:	aa1503e2 	mov	x2, x21
    6330:	aa1303e1 	mov	x1, x19
    6334:	aa1303e0 	mov	x0, x19
    6338:	97fffd74 	bl	5908 <mbedtls_mpi_add_mpi>
    633c:	350003c0 	cbnz	w0, 63b4 <mbedtls_mpi_div_mpi+0x4f4>
/home/xiang/rockpi4-android/optee_os/lib/libmbedtls/mbedtls/library/bignum.c:1786
    6340:	f9407fa1 	ldr	x1, [x29,#248]
    6344:	b8746820 	ldr	w0, [x1,x20]
    6348:	51000400 	sub	w0, w0, #0x1
    634c:	b8346820 	str	w0, [x1,x20]
    6350:	f94043a0 	ldr	x0, [x29,#128]
/home/xiang/rockpi4-android/optee_os/lib/libmbedtls/mbedtls/library/bignum.c:1751 (discriminator 2)
    6354:	d100079c 	sub	x28, x28, #0x1
    6358:	d1001294 	sub	x20, x20, #0x4
    635c:	d10012d6 	sub	x22, x22, #0x4
    6360:	d1008000 	sub	x0, x0, #0x20
    6364:	f90043a0 	str	x0, [x29,#128]
    6368:	17ffff73 	b	6134 <mbedtls_mpi_div_mpi+0x274>
/home/xiang/rockpi4-android/optee_os/lib/libmbedtls/mbedtls/library/bignum.c:1757
    636c:	8b1400a7 	add	x7, x5, x20
    6370:	b8766840 	ldr	w0, [x2,x22]
mbedtls_int_div_int():
/home/xiang/rockpi4-android/optee_os/lib/libmbedtls/mbedtls/library/bignum.c:1611
    6374:	34000144 	cbz	w4, 639c <mbedtls_mpi_div_mpi+0x4dc>
/home/xiang/rockpi4-android/optee_os/lib/libmbedtls/mbedtls/library/bignum.c:1620
    6378:	2a0003e0 	mov	w0, w0
/home/xiang/rockpi4-android/optee_os/lib/libmbedtls/mbedtls/library/bignum.c:1621
    637c:	2a0403e4 	mov	w4, w4
/home/xiang/rockpi4-android/optee_os/lib/libmbedtls/mbedtls/library/bignum.c:1620
    6380:	aa018000 	orr	x0, x0, x1, lsl #32
    6384:	b2407fe1 	mov	x1, #0xffffffff            	// #4294967295
/home/xiang/rockpi4-android/optee_os/lib/libmbedtls/mbedtls/library/bignum.c:1621
    6388:	9ac40800 	udiv	x0, x0, x4
    638c:	eb01001f 	cmp	x0, x1
    6390:	9a819000 	csel	x0, x0, x1, ls
mbedtls_mpi_div_mpi():
/home/xiang/rockpi4-android/optee_os/lib/libmbedtls/mbedtls/library/bignum.c:1757
    6394:	b90000e0 	str	w0, [x7]
    6398:	17ffff9f 	b	6214 <mbedtls_mpi_div_mpi+0x354>
mbedtls_int_div_int():
/home/xiang/rockpi4-android/optee_os/lib/libmbedtls/mbedtls/library/bignum.c:1611
    639c:	b2407fe0 	mov	x0, #0xffffffff            	// #4294967295
    63a0:	17fffffd 	b	6394 <mbedtls_mpi_div_mpi+0x4d4>
mbedtls_mpi_div_mpi():
/home/xiang/rockpi4-android/optee_os/lib/libmbedtls/mbedtls/library/bignum.c:1761
    63a4:	52800001 	mov	w1, #0x0                   	// #0
    63a8:	17ffffa0 	b	6228 <mbedtls_mpi_div_mpi+0x368>
/home/xiang/rockpi4-android/optee_os/lib/libmbedtls/mbedtls/library/bignum.c:1771
    63ac:	52800002 	mov	w2, #0x0                   	// #0
    63b0:	17ffffb5 	b	6284 <mbedtls_mpi_div_mpi+0x3c4>
    63b4:	2a0003fa 	mov	w26, w0
    63b8:	17fffef8 	b	5f98 <mbedtls_mpi_div_mpi+0xd8>
/home/xiang/rockpi4-android/optee_os/lib/libmbedtls/mbedtls/library/bignum.c:1701
    63bc:	1280017a 	mov	w26, #0xfffffff4            	// #-12
    63c0:	17fffee9 	b	5f64 <mbedtls_mpi_div_mpi+0xa4>

00000000000063c4 <mbedtls_mpi_div_int>:
mbedtls_mpi_div_int():
/home/xiang/rockpi4-android/optee_os/lib/libmbedtls/mbedtls/library/bignum.c:1821
    63c4:	a9bd7bfd 	stp	x29, x30, [sp,#-48]!
/home/xiang/rockpi4-android/optee_os/lib/libmbedtls/mbedtls/library/bignum.c:1826
    63c8:	7100007f 	cmp	w3, #0x0
    63cc:	5a83a464 	cneg	w4, w3, lt
/home/xiang/rockpi4-android/optee_os/lib/libmbedtls/mbedtls/library/bignum.c:1828
    63d0:	d2800023 	mov	x3, #0x1                   	// #1
/home/xiang/rockpi4-android/optee_os/lib/libmbedtls/mbedtls/library/bignum.c:1821
    63d4:	910003fd 	mov	x29, sp
/home/xiang/rockpi4-android/optee_os/lib/libmbedtls/mbedtls/library/bignum.c:1826
    63d8:	b90013a4 	str	w4, [x29,#16]
/home/xiang/rockpi4-android/optee_os/lib/libmbedtls/mbedtls/library/bignum.c:1827
    63dc:	52800024 	mov	w4, #0x1                   	// #1
    63e0:	5a84a484 	cneg	w4, w4, lt
/home/xiang/rockpi4-android/optee_os/lib/libmbedtls/mbedtls/library/bignum.c:1828
    63e4:	f90013a3 	str	x3, [x29,#32]
/home/xiang/rockpi4-android/optee_os/lib/libmbedtls/mbedtls/library/bignum.c:1829
    63e8:	910043a3 	add	x3, x29, #0x10
/home/xiang/rockpi4-android/optee_os/lib/libmbedtls/mbedtls/library/bignum.c:1827
    63ec:	790033a4 	strh	w4, [x29,#24]
/home/xiang/rockpi4-android/optee_os/lib/libmbedtls/mbedtls/library/bignum.c:1829
    63f0:	f90017a3 	str	x3, [x29,#40]
/home/xiang/rockpi4-android/optee_os/lib/libmbedtls/mbedtls/library/bignum.c:1831
    63f4:	910063a3 	add	x3, x29, #0x18
    63f8:	97fffeb2 	bl	5ec0 <mbedtls_mpi_div_mpi>
/home/xiang/rockpi4-android/optee_os/lib/libmbedtls/mbedtls/library/bignum.c:1832
    63fc:	a8c37bfd 	ldp	x29, x30, [sp],#48
    6400:	d65f03c0 	ret

0000000000006404 <mbedtls_mpi_mod_mpi>:
mbedtls_mpi_mod_mpi():
/home/xiang/rockpi4-android/optee_os/lib/libmbedtls/mbedtls/library/bignum.c:1838
    6404:	a9bd7bfd 	stp	x29, x30, [sp,#-48]!
    6408:	910003fd 	mov	x29, sp
    640c:	a90153f3 	stp	x19, x20, [sp,#16]
    6410:	aa0003f3 	mov	x19, x0
    6414:	f90013f5 	str	x21, [sp,#32]
    6418:	aa0103f4 	mov	x20, x1
/home/xiang/rockpi4-android/optee_os/lib/libmbedtls/mbedtls/library/bignum.c:1844
    641c:	aa0203e0 	mov	x0, x2
    6420:	52800001 	mov	w1, #0x0                   	// #0
/home/xiang/rockpi4-android/optee_os/lib/libmbedtls/mbedtls/library/bignum.c:1838
    6424:	aa0203f5 	mov	x21, x2
/home/xiang/rockpi4-android/optee_os/lib/libmbedtls/mbedtls/library/bignum.c:1844
    6428:	97fffc80 	bl	5628 <mbedtls_mpi_cmp_int>
    642c:	37f80420 	tbnz	w0, #31, 64b0 <mbedtls_mpi_mod_mpi+0xac>
/home/xiang/rockpi4-android/optee_os/lib/libmbedtls/mbedtls/library/bignum.c:1847
    6430:	aa1403e2 	mov	x2, x20
    6434:	aa1503e3 	mov	x3, x21
    6438:	aa1303e1 	mov	x1, x19
    643c:	d2800000 	mov	x0, #0x0                   	// #0
    6440:	97fffea0 	bl	5ec0 <mbedtls_mpi_div_mpi>
    6444:	2a0003f4 	mov	w20, w0
    6448:	34000160 	cbz	w0, 6474 <mbedtls_mpi_mod_mpi+0x70>
/home/xiang/rockpi4-android/optee_os/lib/libmbedtls/mbedtls/library/bignum.c:1858
    644c:	2a1403e0 	mov	w0, w20
    6450:	f94013f5 	ldr	x21, [sp,#32]
    6454:	a94153f3 	ldp	x19, x20, [sp,#16]
    6458:	a8c37bfd 	ldp	x29, x30, [sp],#48
    645c:	d65f03c0 	ret
/home/xiang/rockpi4-android/optee_os/lib/libmbedtls/mbedtls/library/bignum.c:1850
    6460:	aa1503e2 	mov	x2, x21
    6464:	aa1303e1 	mov	x1, x19
    6468:	aa1303e0 	mov	x0, x19
    646c:	97fffd27 	bl	5908 <mbedtls_mpi_add_mpi>
    6470:	350001c0 	cbnz	w0, 64a8 <mbedtls_mpi_mod_mpi+0xa4>
/home/xiang/rockpi4-android/optee_os/lib/libmbedtls/mbedtls/library/bignum.c:1849
    6474:	52800001 	mov	w1, #0x0                   	// #0
    6478:	aa1303e0 	mov	x0, x19
    647c:	97fffc6b 	bl	5628 <mbedtls_mpi_cmp_int>
    6480:	37ffff00 	tbnz	w0, #31, 6460 <mbedtls_mpi_mod_mpi+0x5c>
/home/xiang/rockpi4-android/optee_os/lib/libmbedtls/mbedtls/library/bignum.c:1852
    6484:	aa1503e1 	mov	x1, x21
    6488:	aa1303e0 	mov	x0, x19
    648c:	97fffc2b 	bl	5538 <mbedtls_mpi_cmp_mpi>
    6490:	37fffde0 	tbnz	w0, #31, 644c <mbedtls_mpi_mod_mpi+0x48>
/home/xiang/rockpi4-android/optee_os/lib/libmbedtls/mbedtls/library/bignum.c:1853
    6494:	aa1503e2 	mov	x2, x21
    6498:	aa1303e1 	mov	x1, x19
    649c:	aa1303e0 	mov	x0, x19
    64a0:	97fffd3c 	bl	5990 <mbedtls_mpi_sub_mpi>
    64a4:	34ffff00 	cbz	w0, 6484 <mbedtls_mpi_mod_mpi+0x80>
    64a8:	2a0003f4 	mov	w20, w0
    64ac:	17ffffe8 	b	644c <mbedtls_mpi_mod_mpi+0x48>
/home/xiang/rockpi4-android/optee_os/lib/libmbedtls/mbedtls/library/bignum.c:1845
    64b0:	12800134 	mov	w20, #0xfffffff6            	// #-10
    64b4:	17ffffe6 	b	644c <mbedtls_mpi_mod_mpi+0x48>

00000000000064b8 <mbedtls_mpi_mod_int>:
mbedtls_mpi_mod_int():
/home/xiang/rockpi4-android/optee_os/lib/libmbedtls/mbedtls/library/bignum.c:1870
    64b8:	7100005f 	cmp	w2, #0x0
    64bc:	54000460 	b.eq	6548 <mbedtls_mpi_mod_int+0x90>
/home/xiang/rockpi4-android/optee_os/lib/libmbedtls/mbedtls/library/bignum.c:1873
    64c0:	5400048b 	b.lt	6550 <mbedtls_mpi_mod_int+0x98>
/home/xiang/rockpi4-android/optee_os/lib/libmbedtls/mbedtls/library/bignum.c:1879
    64c4:	7100045f 	cmp	w2, #0x1
    64c8:	54000060 	b.eq	64d4 <mbedtls_mpi_mod_int+0x1c>
/home/xiang/rockpi4-android/optee_os/lib/libmbedtls/mbedtls/library/bignum.c:1879 (discriminator 1)
    64cc:	f9400424 	ldr	x4, [x1,#8]
    64d0:	b5000084 	cbnz	x4, 64e0 <mbedtls_mpi_mod_int+0x28>
/home/xiang/rockpi4-android/optee_os/lib/libmbedtls/mbedtls/library/bignum.c:1881
    64d4:	b900001f 	str	wzr, [x0]
/home/xiang/rockpi4-android/optee_os/lib/libmbedtls/mbedtls/library/bignum.c:1916
    64d8:	52800000 	mov	w0, #0x0                   	// #0
    64dc:	d65f03c0 	ret
/home/xiang/rockpi4-android/optee_os/lib/libmbedtls/mbedtls/library/bignum.c:1885
    64e0:	7100085f 	cmp	w2, #0x2
    64e4:	f9400827 	ldr	x7, [x1,#16]
    64e8:	540000a1 	b.ne	64fc <mbedtls_mpi_mod_int+0x44>
/home/xiang/rockpi4-android/optee_os/lib/libmbedtls/mbedtls/library/bignum.c:1887
    64ec:	b94000e1 	ldr	w1, [x7]
    64f0:	12000021 	and	w1, w1, #0x1
    64f4:	b9000001 	str	w1, [x0]
    64f8:	17fffff8 	b	64d8 <mbedtls_mpi_mod_int+0x20>
    64fc:	8b0408e4 	add	x4, x7, x4, lsl #2
/home/xiang/rockpi4-android/optee_os/lib/libmbedtls/mbedtls/library/bignum.c:1896
    6500:	52800003 	mov	w3, #0x0                   	// #0
/home/xiang/rockpi4-android/optee_os/lib/libmbedtls/mbedtls/library/bignum.c:1896 (discriminator 3)
    6504:	b85fcc86 	ldr	w6, [x4,#-4]!
/home/xiang/rockpi4-android/optee_os/lib/libmbedtls/mbedtls/library/bignum.c:1894 (discriminator 3)
    6508:	eb0400ff 	cmp	x7, x4
/home/xiang/rockpi4-android/optee_os/lib/libmbedtls/mbedtls/library/bignum.c:1897 (discriminator 3)
    650c:	13864063 	extr	w3, w3, w6, #16
/home/xiang/rockpi4-android/optee_os/lib/libmbedtls/mbedtls/library/bignum.c:1902 (discriminator 3)
    6510:	1ac20865 	udiv	w5, w3, w2
    6514:	1b028ca3 	msub	w3, w5, w2, w3
    6518:	12003cc5 	and	w5, w6, #0xffff
    651c:	2a0340a5 	orr	w5, w5, w3, lsl #16
    6520:	1ac208a3 	udiv	w3, w5, w2
    6524:	1b029463 	msub	w3, w3, w2, w5
/home/xiang/rockpi4-android/optee_os/lib/libmbedtls/mbedtls/library/bignum.c:1894 (discriminator 3)
    6528:	54fffee1 	b.ne	6504 <mbedtls_mpi_mod_int+0x4c>
/home/xiang/rockpi4-android/optee_os/lib/libmbedtls/mbedtls/library/bignum.c:1911
    652c:	79c00021 	ldrsh	w1, [x1]
    6530:	36f80081 	tbz	w1, #31, 6540 <mbedtls_mpi_mod_int+0x88>
/home/xiang/rockpi4-android/optee_os/lib/libmbedtls/mbedtls/library/bignum.c:1912 (discriminator 1)
    6534:	4b030042 	sub	w2, w2, w3
    6538:	7100007f 	cmp	w3, #0x0
    653c:	1a831043 	csel	w3, w2, w3, ne
/home/xiang/rockpi4-android/optee_os/lib/libmbedtls/mbedtls/library/bignum.c:1914
    6540:	b9000003 	str	w3, [x0]
    6544:	17ffffe5 	b	64d8 <mbedtls_mpi_mod_int+0x20>
/home/xiang/rockpi4-android/optee_os/lib/libmbedtls/mbedtls/library/bignum.c:1871
    6548:	12800160 	mov	w0, #0xfffffff4            	// #-12
    654c:	d65f03c0 	ret
/home/xiang/rockpi4-android/optee_os/lib/libmbedtls/mbedtls/library/bignum.c:1874
    6550:	12800120 	mov	w0, #0xfffffff6            	// #-10
/home/xiang/rockpi4-android/optee_os/lib/libmbedtls/mbedtls/library/bignum.c:1917
    6554:	d65f03c0 	ret

0000000000006558 <mbedtls_mpi_write_string>:
mbedtls_mpi_write_string():
/home/xiang/rockpi4-android/optee_os/lib/libmbedtls/mbedtls/library/bignum.c:577
    6558:	a9b87bfd 	stp	x29, x30, [sp,#-128]!
    655c:	910003fd 	mov	x29, sp
    6560:	a9025bf5 	stp	x21, x22, [sp,#32]
    6564:	2a0103f5 	mov	w21, w1
    6568:	a90153f3 	stp	x19, x20, [sp,#16]
/home/xiang/rockpi4-android/optee_os/lib/libmbedtls/mbedtls/library/bignum.c:586
    656c:	51000821 	sub	w1, w1, #0x2
/home/xiang/rockpi4-android/optee_os/lib/libmbedtls/mbedtls/library/bignum.c:577
    6570:	a90363f7 	stp	x23, x24, [sp,#48]
/home/xiang/rockpi4-android/optee_os/lib/libmbedtls/mbedtls/library/bignum.c:586
    6574:	7100383f 	cmp	w1, #0xe
/home/xiang/rockpi4-android/optee_os/lib/libmbedtls/mbedtls/library/bignum.c:577
    6578:	a9046bf9 	stp	x25, x26, [sp,#64]
    657c:	a90573fb 	stp	x27, x28, [sp,#80]
/home/xiang/rockpi4-android/optee_os/lib/libmbedtls/mbedtls/library/bignum.c:586
    6580:	540010e8 	b.hi	679c <mbedtls_mpi_write_string+0x244>
    6584:	aa0003f4 	mov	x20, x0
    6588:	aa0203f7 	mov	x23, x2
    658c:	aa0303f8 	mov	x24, x3
    6590:	aa0403f6 	mov	x22, x4
/home/xiang/rockpi4-android/optee_os/lib/libmbedtls/mbedtls/library/bignum.c:589
    6594:	97fffa90 	bl	4fd4 <mbedtls_mpi_bitlen>
/home/xiang/rockpi4-android/optee_os/lib/libmbedtls/mbedtls/library/bignum.c:590
    6598:	71000ebf 	cmp	w21, #0x3
    659c:	540000ad 	b.le	65b0 <mbedtls_mpi_write_string+0x58>
/home/xiang/rockpi4-android/optee_os/lib/libmbedtls/mbedtls/library/bignum.c:590 (discriminator 1)
    65a0:	d341fc01 	lsr	x1, x0, #1
    65a4:	710042bf 	cmp	w21, #0x10
    65a8:	d342fc00 	lsr	x0, x0, #2
    65ac:	9a810000 	csel	x0, x0, x1, eq
/home/xiang/rockpi4-android/optee_os/lib/libmbedtls/mbedtls/library/bignum.c:601
    65b0:	91001000 	add	x0, x0, #0x4
    65b4:	927ff800 	and	x0, x0, #0xfffffffffffffffe
/home/xiang/rockpi4-android/optee_os/lib/libmbedtls/mbedtls/library/bignum.c:604
    65b8:	eb18001f 	cmp	x0, x24
    65bc:	54000169 	b.ls	65e8 <mbedtls_mpi_write_string+0x90>
/home/xiang/rockpi4-android/optee_os/lib/libmbedtls/mbedtls/library/bignum.c:607
    65c0:	128000f4 	mov	w20, #0xfffffff8            	// #-8
/home/xiang/rockpi4-android/optee_os/lib/libmbedtls/mbedtls/library/bignum.c:606
    65c4:	f90002c0 	str	x0, [x22]
/home/xiang/rockpi4-android/optee_os/lib/libmbedtls/mbedtls/library/bignum.c:657
    65c8:	2a1403e0 	mov	w0, w20
    65cc:	a94153f3 	ldp	x19, x20, [sp,#16]
    65d0:	a9425bf5 	ldp	x21, x22, [sp,#32]
    65d4:	a94363f7 	ldp	x23, x24, [sp,#48]
    65d8:	a9446bf9 	ldp	x25, x26, [sp,#64]
    65dc:	a94573fb 	ldp	x27, x28, [sp,#80]
    65e0:	a8c87bfd 	ldp	x29, x30, [sp],#128
    65e4:	d65f03c0 	ret
/home/xiang/rockpi4-android/optee_os/lib/libmbedtls/mbedtls/library/bignum.c:611
    65e8:	9101a3ba 	add	x26, x29, #0x68
    65ec:	aa1a03e0 	mov	x0, x26
    65f0:	97fff902 	bl	49f8 <mbedtls_mpi_init_mempool>
/home/xiang/rockpi4-android/optee_os/lib/libmbedtls/mbedtls/library/bignum.c:613
    65f4:	79c00280 	ldrsh	w0, [x20]
    65f8:	3100041f 	cmn	w0, #0x1
    65fc:	540002e1 	b.ne	6658 <mbedtls_mpi_write_string+0x100>
/home/xiang/rockpi4-android/optee_os/lib/libmbedtls/mbedtls/library/bignum.c:615
    6600:	910006f3 	add	x19, x23, #0x1
/home/xiang/rockpi4-android/optee_os/lib/libmbedtls/mbedtls/library/bignum.c:616
    6604:	d1000718 	sub	x24, x24, #0x1
/home/xiang/rockpi4-android/optee_os/lib/libmbedtls/mbedtls/library/bignum.c:615
    6608:	528005a0 	mov	w0, #0x2d                  	// #45
    660c:	390002e0 	strb	w0, [x23]
/home/xiang/rockpi4-android/optee_os/lib/libmbedtls/mbedtls/library/bignum.c:619
    6610:	710042bf 	cmp	w21, #0x10
    6614:	54000621 	b.ne	66d8 <mbedtls_mpi_write_string+0x180>
/home/xiang/rockpi4-android/optee_os/lib/libmbedtls/mbedtls/library/bignum.c:624
    6618:	f9400680 	ldr	x0, [x20,#8]
/home/xiang/rockpi4-android/optee_os/lib/libmbedtls/mbedtls/library/bignum.c:633
    661c:	b0000024 	adrp	x4, b000 <small_prime+0x140>
    6620:	9117dc84 	add	x4, x4, #0x5f7
/home/xiang/rockpi4-android/optee_os/lib/libmbedtls/mbedtls/library/bignum.c:624
    6624:	d2800002 	mov	x2, #0x0                   	// #0
    6628:	91001003 	add	x3, x0, #0x4
    662c:	d37ef400 	lsl	x0, x0, #2
    6630:	d1001000 	sub	x0, x0, #0x4
/home/xiang/rockpi4-android/optee_os/lib/libmbedtls/mbedtls/library/bignum.c:624 (discriminator 1)
    6634:	f100107f 	cmp	x3, #0x4
    6638:	54000141 	b.ne	6660 <mbedtls_mpi_write_string+0x108>
/home/xiang/rockpi4-android/optee_os/lib/libmbedtls/mbedtls/library/bignum.c:649
    663c:	3800167f 	strb	wzr, [x19],#1
/home/xiang/rockpi4-android/optee_os/lib/libmbedtls/mbedtls/library/bignum.c:650
    6640:	52800014 	mov	w20, #0x0                   	// #0
    6644:	cb170273 	sub	x19, x19, x23
    6648:	f90002d3 	str	x19, [x22]
/home/xiang/rockpi4-android/optee_os/lib/libmbedtls/mbedtls/library/bignum.c:654
    664c:	aa1a03e0 	mov	x0, x26
    6650:	97fff8f4 	bl	4a20 <mbedtls_mpi_free>
/home/xiang/rockpi4-android/optee_os/lib/libmbedtls/mbedtls/library/bignum.c:656
    6654:	17ffffdd 	b	65c8 <mbedtls_mpi_write_string+0x70>
    6658:	aa1703f3 	mov	x19, x23
    665c:	17ffffed 	b	6610 <mbedtls_mpi_write_string+0xb8>
    6660:	aa0303e6 	mov	x6, x3
    6664:	52800305 	mov	w5, #0x18                  	// #24
/home/xiang/rockpi4-android/optee_os/lib/libmbedtls/mbedtls/library/bignum.c:628
    6668:	f9400a81 	ldr	x1, [x20,#16]
/home/xiang/rockpi4-android/optee_os/lib/libmbedtls/mbedtls/library/bignum.c:630
    666c:	52000042 	eor	w2, w2, #0x1
/home/xiang/rockpi4-android/optee_os/lib/libmbedtls/mbedtls/library/bignum.c:628
    6670:	b8606821 	ldr	w1, [x1,x0]
    6674:	1ac52421 	lsr	w1, w1, w5
/home/xiang/rockpi4-android/optee_os/lib/libmbedtls/mbedtls/library/bignum.c:630
    6678:	72001c27 	ands	w7, w1, #0xff
    667c:	1a9f17e8 	cset	w8, eq
    6680:	6a02011f 	tst	w8, w2
    6684:	54000060 	b.eq	6690 <mbedtls_mpi_write_string+0x138>
/home/xiang/rockpi4-android/optee_os/lib/libmbedtls/mbedtls/library/bignum.c:630 (discriminator 1)
    6688:	f10008df 	cmp	x6, #0x2
    668c:	54000221 	b.ne	66d0 <mbedtls_mpi_write_string+0x178>
/home/xiang/rockpi4-android/optee_os/lib/libmbedtls/mbedtls/library/bignum.c:633
    6690:	d3441ce2 	ubfx	x2, x7, #4, #4
/home/xiang/rockpi4-android/optee_os/lib/libmbedtls/mbedtls/library/bignum.c:634
    6694:	92400c21 	and	x1, x1, #0xf
/home/xiang/rockpi4-android/optee_os/lib/libmbedtls/mbedtls/library/bignum.c:633
    6698:	38626887 	ldrb	w7, [x4,x2]
    669c:	aa1303e2 	mov	x2, x19
/home/xiang/rockpi4-android/optee_os/lib/libmbedtls/mbedtls/library/bignum.c:634
    66a0:	38616881 	ldrb	w1, [x4,x1]
/home/xiang/rockpi4-android/optee_os/lib/libmbedtls/mbedtls/library/bignum.c:633
    66a4:	38002447 	strb	w7, [x2],#2
/home/xiang/rockpi4-android/optee_os/lib/libmbedtls/mbedtls/library/bignum.c:634
    66a8:	39000661 	strb	w1, [x19,#1]
    66ac:	aa0203f3 	mov	x19, x2
/home/xiang/rockpi4-android/optee_os/lib/libmbedtls/mbedtls/library/bignum.c:635
    66b0:	d2800022 	mov	x2, #0x1                   	// #1
    66b4:	510020a5 	sub	w5, w5, #0x8
    66b8:	d10004c6 	sub	x6, x6, #0x1
/home/xiang/rockpi4-android/optee_os/lib/libmbedtls/mbedtls/library/bignum.c:626 (discriminator 2)
    66bc:	310020bf 	cmn	w5, #0x8
    66c0:	54fffd41 	b.ne	6668 <mbedtls_mpi_write_string+0x110>
    66c4:	d1000463 	sub	x3, x3, #0x1
    66c8:	d1001000 	sub	x0, x0, #0x4
    66cc:	17ffffda 	b	6634 <mbedtls_mpi_write_string+0xdc>
    66d0:	d2800002 	mov	x2, #0x0                   	// #0
    66d4:	17fffff8 	b	66b4 <mbedtls_mpi_write_string+0x15c>
/home/xiang/rockpi4-android/optee_os/lib/libmbedtls/mbedtls/library/bignum.c:641
    66d8:	aa1403e1 	mov	x1, x20
    66dc:	aa1a03e0 	mov	x0, x26
    66e0:	97fff98e 	bl	4d18 <mbedtls_mpi_copy>
    66e4:	2a0003f4 	mov	w20, w0
    66e8:	35fffb20 	cbnz	w0, 664c <mbedtls_mpi_write_string+0xf4>
/home/xiang/rockpi4-android/optee_os/lib/libmbedtls/mbedtls/library/bignum.c:643
    66ec:	79c0d3a0 	ldrsh	w0, [x29,#104]
    66f0:	3100041f 	cmn	w0, #0x1
    66f4:	54000061 	b.ne	6700 <mbedtls_mpi_write_string+0x1a8>
/home/xiang/rockpi4-android/optee_os/lib/libmbedtls/mbedtls/library/bignum.c:644
    66f8:	52800020 	mov	w0, #0x1                   	// #1
    66fc:	7900d3a0 	strh	w0, [x29,#104]
    6700:	d1000719 	sub	x25, x24, #0x1
mpi_write_hlp():
/home/xiang/rockpi4-android/optee_os/lib/libmbedtls/mbedtls/library/bignum.c:551
    6704:	910193bc 	add	x28, x29, #0x64
    6708:	8b190279 	add	x25, x19, x25
/home/xiang/rockpi4-android/optee_os/lib/libmbedtls/mbedtls/library/bignum.c:541
    670c:	d280001b 	mov	x27, #0x0                   	// #0
/home/xiang/rockpi4-android/optee_os/lib/libmbedtls/mbedtls/library/bignum.c:546
    6710:	eb1b031f 	cmp	x24, x27
    6714:	54000480 	b.eq	67a4 <mbedtls_mpi_write_string+0x24c>
/home/xiang/rockpi4-android/optee_os/lib/libmbedtls/mbedtls/library/bignum.c:551
    6718:	2a1503e2 	mov	w2, w21
    671c:	aa1a03e1 	mov	x1, x26
    6720:	aa1c03e0 	mov	x0, x28
    6724:	97ffff65 	bl	64b8 <mbedtls_mpi_mod_int>
    6728:	2a0003f4 	mov	w20, w0
    672c:	35fff900 	cbnz	w0, 664c <mbedtls_mpi_write_string+0xf4>
/home/xiang/rockpi4-android/optee_os/lib/libmbedtls/mbedtls/library/bignum.c:552
    6730:	2a1503e3 	mov	w3, w21
    6734:	aa1a03e2 	mov	x2, x26
    6738:	d2800001 	mov	x1, #0x0                   	// #0
    673c:	aa1a03e0 	mov	x0, x26
    6740:	97ffff21 	bl	63c4 <mbedtls_mpi_div_int>
    6744:	2a0003f4 	mov	w20, w0
    6748:	35fff820 	cbnz	w0, 664c <mbedtls_mpi_write_string+0xf4>
/home/xiang/rockpi4-android/optee_os/lib/libmbedtls/mbedtls/library/bignum.c:556
    674c:	b94067a0 	ldr	w0, [x29,#100]
/home/xiang/rockpi4-android/optee_os/lib/libmbedtls/mbedtls/library/bignum.c:557
    6750:	aa1903f4 	mov	x20, x25
/home/xiang/rockpi4-android/optee_os/lib/libmbedtls/mbedtls/library/bignum.c:556
    6754:	7100241f 	cmp	w0, #0x9
    6758:	540001e8 	b.hi	6794 <mbedtls_mpi_write_string+0x23c>
/home/xiang/rockpi4-android/optee_os/lib/libmbedtls/mbedtls/library/bignum.c:557
    675c:	1100c000 	add	w0, w0, #0x30
/home/xiang/rockpi4-android/optee_os/lib/libmbedtls/mbedtls/library/bignum.c:559
    6760:	39000320 	strb	w0, [x25]
/home/xiang/rockpi4-android/optee_os/lib/libmbedtls/mbedtls/library/bignum.c:562
    6764:	52800001 	mov	w1, #0x0                   	// #0
    6768:	aa1a03e0 	mov	x0, x26
/home/xiang/rockpi4-android/optee_os/lib/libmbedtls/mbedtls/library/bignum.c:561
    676c:	9100077b 	add	x27, x27, #0x1
/home/xiang/rockpi4-android/optee_os/lib/libmbedtls/mbedtls/library/bignum.c:562
    6770:	97fffbae 	bl	5628 <mbedtls_mpi_cmp_int>
    6774:	d1000739 	sub	x25, x25, #0x1
    6778:	35fffcc0 	cbnz	w0, 6710 <mbedtls_mpi_write_string+0x1b8>
/home/xiang/rockpi4-android/optee_os/lib/libmbedtls/mbedtls/library/bignum.c:564
    677c:	aa1303e0 	mov	x0, x19
    6780:	aa1b03e2 	mov	x2, x27
    6784:	aa1403e1 	mov	x1, x20
/home/xiang/rockpi4-android/optee_os/lib/libmbedtls/mbedtls/library/bignum.c:565
    6788:	8b1b0273 	add	x19, x19, x27
/home/xiang/rockpi4-android/optee_os/lib/libmbedtls/mbedtls/library/bignum.c:564
    678c:	94000c4b 	bl	98b8 <memmove>
    6790:	17ffffab 	b	663c <mbedtls_mpi_write_string+0xe4>
/home/xiang/rockpi4-android/optee_os/lib/libmbedtls/mbedtls/library/bignum.c:559
    6794:	1100dc00 	add	w0, w0, #0x37
    6798:	17fffff2 	b	6760 <mbedtls_mpi_write_string+0x208>
mbedtls_mpi_write_string():
/home/xiang/rockpi4-android/optee_os/lib/libmbedtls/mbedtls/library/bignum.c:587
    679c:	12800074 	mov	w20, #0xfffffffc            	// #-4
    67a0:	17ffff8a 	b	65c8 <mbedtls_mpi_write_string+0x70>
mpi_write_hlp():
/home/xiang/rockpi4-android/optee_os/lib/libmbedtls/mbedtls/library/bignum.c:548
    67a4:	128000f4 	mov	w20, #0xfffffff8            	// #-8
    67a8:	17ffffa9 	b	664c <mbedtls_mpi_write_string+0xf4>

00000000000067ac <mpi_check_small_factors>:
mpi_check_small_factors():
/home/xiang/rockpi4-android/optee_os/lib/libmbedtls/mbedtls/library/bignum.c:2704
    67ac:	f9400801 	ldr	x1, [x0,#16]
    67b0:	b9400021 	ldr	w1, [x1]
    67b4:	360004c1 	tbz	w1, #0, 684c <mpi_check_small_factors+0xa0>
/home/xiang/rockpi4-android/optee_os/lib/libmbedtls/mbedtls/library/bignum.c:2699 (discriminator 1)
    67b8:	a9bb7bfd 	stp	x29, x30, [sp,#-80]!
    67bc:	910003fd 	mov	x29, sp
    67c0:	a9025bf5 	stp	x21, x22, [sp,#32]
/home/xiang/rockpi4-android/optee_os/lib/libmbedtls/mbedtls/library/bignum.c:2707 (discriminator 1)
    67c4:	90000035 	adrp	x21, a000 <kprintf.constprop.0+0x540>
/home/xiang/rockpi4-android/optee_os/lib/libmbedtls/mbedtls/library/bignum.c:2699 (discriminator 1)
    67c8:	a90153f3 	stp	x19, x20, [sp,#16]
/home/xiang/rockpi4-android/optee_os/lib/libmbedtls/mbedtls/library/bignum.c:2707 (discriminator 1)
    67cc:	913b02b5 	add	x21, x21, #0xec0
/home/xiang/rockpi4-android/optee_os/lib/libmbedtls/mbedtls/library/bignum.c:2699 (discriminator 1)
    67d0:	f9001bf7 	str	x23, [sp,#48]
    67d4:	aa0003f3 	mov	x19, x0
/home/xiang/rockpi4-android/optee_os/lib/libmbedtls/mbedtls/library/bignum.c:2712 (discriminator 1)
    67d8:	910133b7 	add	x23, x29, #0x4c
    67dc:	d2800016 	mov	x22, #0x0                   	// #0
/home/xiang/rockpi4-android/optee_os/lib/libmbedtls/mbedtls/library/bignum.c:2707 (discriminator 1)
    67e0:	b8767ab4 	ldr	w20, [x21,x22,lsl #2]
    67e4:	7100029f 	cmp	w20, #0x0
    67e8:	5400012c 	b.gt	680c <mpi_check_small_factors+0x60>
    67ec:	52800000 	mov	w0, #0x0                   	// #0
    67f0:	14000002 	b	67f8 <mpi_check_small_factors+0x4c>
/home/xiang/rockpi4-android/optee_os/lib/libmbedtls/mbedtls/library/bignum.c:2705
    67f4:	128001a0 	mov	w0, #0xfffffff2            	// #-14
/home/xiang/rockpi4-android/optee_os/lib/libmbedtls/mbedtls/library/bignum.c:2720
    67f8:	a94153f3 	ldp	x19, x20, [sp,#16]
    67fc:	a9425bf5 	ldp	x21, x22, [sp,#32]
    6800:	f9401bf7 	ldr	x23, [sp,#48]
    6804:	a8c57bfd 	ldp	x29, x30, [sp],#80
    6808:	d65f03c0 	ret
/home/xiang/rockpi4-android/optee_os/lib/libmbedtls/mbedtls/library/bignum.c:2709
    680c:	2a1403e1 	mov	w1, w20
    6810:	aa1303e0 	mov	x0, x19
    6814:	97fffb85 	bl	5628 <mbedtls_mpi_cmp_int>
    6818:	7100001f 	cmp	w0, #0x0
    681c:	5400014d 	b.le	6844 <mpi_check_small_factors+0x98>
/home/xiang/rockpi4-android/optee_os/lib/libmbedtls/mbedtls/library/bignum.c:2712
    6820:	2a1403e2 	mov	w2, w20
    6824:	aa1303e1 	mov	x1, x19
    6828:	aa1703e0 	mov	x0, x23
    682c:	97ffff23 	bl	64b8 <mbedtls_mpi_mod_int>
    6830:	35fffe40 	cbnz	w0, 67f8 <mpi_check_small_factors+0x4c>
/home/xiang/rockpi4-android/optee_os/lib/libmbedtls/mbedtls/library/bignum.c:2714
    6834:	b9404fa0 	ldr	w0, [x29,#76]
    6838:	34fffde0 	cbz	w0, 67f4 <mpi_check_small_factors+0x48>
/home/xiang/rockpi4-android/optee_os/lib/libmbedtls/mbedtls/library/bignum.c:2707 (discriminator 2)
    683c:	910006d6 	add	x22, x22, #0x1
    6840:	17ffffe8 	b	67e0 <mpi_check_small_factors+0x34>
/home/xiang/rockpi4-android/optee_os/lib/libmbedtls/mbedtls/library/bignum.c:2710
    6844:	52800020 	mov	w0, #0x1                   	// #1
    6848:	17ffffec 	b	67f8 <mpi_check_small_factors+0x4c>
/home/xiang/rockpi4-android/optee_os/lib/libmbedtls/mbedtls/library/bignum.c:2705
    684c:	128001a0 	mov	w0, #0xfffffff2            	// #-14
/home/xiang/rockpi4-android/optee_os/lib/libmbedtls/mbedtls/library/bignum.c:2720
    6850:	d65f03c0 	ret

0000000000006854 <mbedtls_mpi_montg_init>:
mbedtls_mpi_montg_init():
/home/xiang/rockpi4-android/optee_os/lib/libmbedtls/mbedtls/library/bignum.c:1938
    6854:	f9400821 	ldr	x1, [x1,#16]
    6858:	17fff7a6 	b	46f0 <mpi_montg_init.isra.1>

000000000000685c <mbedtls_mpi_montmul>:
mbedtls_mpi_montmul():
/home/xiang/rockpi4-android/optee_os/lib/libmbedtls/mbedtls/library/bignum.c:2013
    685c:	91004000 	add	x0, x0, #0x10
    6860:	17fff7fa 	b	4848 <mpi_montmul.isra.2>

0000000000006864 <mbedtls_mpi_montred>:
mbedtls_mpi_montred():
/home/xiang/rockpi4-android/optee_os/lib/libmbedtls/mbedtls/library/bignum.c:2036
    6864:	17fff84f 	b	49a0 <mpi_montred>

0000000000006868 <mbedtls_mpi_exp_mod>:
mbedtls_mpi_exp_mod():
/home/xiang/rockpi4-android/optee_os/lib/libmbedtls/mbedtls/library/bignum.c:2074
    6868:	a9ac7bfd 	stp	x29, x30, [sp,#-320]!
    686c:	910003fd 	mov	x29, sp
    6870:	a90153f3 	stp	x19, x20, [sp,#16]
    6874:	aa0303f4 	mov	x20, x3
    6878:	a90363f7 	stp	x23, x24, [sp,#48]
    687c:	aa0003f8 	mov	x24, x0
    6880:	a9046bf9 	stp	x25, x26, [sp,#64]
/home/xiang/rockpi4-android/optee_os/lib/libmbedtls/mbedtls/library/bignum.c:2090
    6884:	aa0303e0 	mov	x0, x3
/home/xiang/rockpi4-android/optee_os/lib/libmbedtls/mbedtls/library/bignum.c:2074
    6888:	a90573fb 	stp	x27, x28, [sp,#80]
    688c:	aa0203fa 	mov	x26, x2
    6890:	a9025bf5 	stp	x21, x22, [sp,#32]
    6894:	aa0103fb 	mov	x27, x1
    6898:	f90067a4 	str	x4, [x29,#200]
/home/xiang/rockpi4-android/optee_os/lib/libmbedtls/mbedtls/library/bignum.c:2090
    689c:	52800001 	mov	w1, #0x0                   	// #0
    68a0:	97fffb62 	bl	5628 <mbedtls_mpi_cmp_int>
    68a4:	7100001f 	cmp	w0, #0x0
    68a8:	5400014c 	b.gt	68d0 <mbedtls_mpi_exp_mod+0x68>
/home/xiang/rockpi4-android/optee_os/lib/libmbedtls/mbedtls/library/bignum.c:2091
    68ac:	12800073 	mov	w19, #0xfffffffc            	// #-4
/home/xiang/rockpi4-android/optee_os/lib/libmbedtls/mbedtls/library/bignum.c:2316
    68b0:	2a1303e0 	mov	w0, w19
    68b4:	a94153f3 	ldp	x19, x20, [sp,#16]
    68b8:	a9425bf5 	ldp	x21, x22, [sp,#32]
    68bc:	a94363f7 	ldp	x23, x24, [sp,#48]
    68c0:	a9446bf9 	ldp	x25, x26, [sp,#64]
    68c4:	a94573fb 	ldp	x27, x28, [sp,#80]
    68c8:	a8d47bfd 	ldp	x29, x30, [sp],#320
    68cc:	d65f03c0 	ret
/home/xiang/rockpi4-android/optee_os/lib/libmbedtls/mbedtls/library/bignum.c:2090 (discriminator 1)
    68d0:	f9400a80 	ldr	x0, [x20,#16]
    68d4:	b9400000 	ldr	w0, [x0]
    68d8:	3607fea0 	tbz	w0, #0, 68ac <mbedtls_mpi_exp_mod+0x44>
/home/xiang/rockpi4-android/optee_os/lib/libmbedtls/mbedtls/library/bignum.c:2093
    68dc:	52800001 	mov	w1, #0x0                   	// #0
    68e0:	aa1a03e0 	mov	x0, x26
    68e4:	97fffb51 	bl	5628 <mbedtls_mpi_cmp_int>
    68e8:	37fffe20 	tbnz	w0, #31, 68ac <mbedtls_mpi_exp_mod+0x44>
/home/xiang/rockpi4-android/optee_os/lib/libmbedtls/mbedtls/library/bignum.c:2096
    68ec:	aa1a03e0 	mov	x0, x26
    68f0:	97fff9b9 	bl	4fd4 <mbedtls_mpi_bitlen>
    68f4:	f140081f 	cmp	x0, #0x2, lsl #12
    68f8:	54fffda8 	b.hi	68ac <mbedtls_mpi_exp_mod+0x44>
/home/xiang/rockpi4-android/optee_os/lib/libmbedtls/mbedtls/library/bignum.c:2097 (discriminator 1)
    68fc:	aa1403e0 	mov	x0, x20
    6900:	97fff9b5 	bl	4fd4 <mbedtls_mpi_bitlen>
/home/xiang/rockpi4-android/optee_os/lib/libmbedtls/mbedtls/library/bignum.c:2096 (discriminator 1)
    6904:	f140081f 	cmp	x0, #0x2, lsl #12
    6908:	54fffd28 	b.hi	68ac <mbedtls_mpi_exp_mod+0x44>
/home/xiang/rockpi4-android/optee_os/lib/libmbedtls/mbedtls/library/bignum.c:2103
    690c:	f9400a81 	ldr	x1, [x20,#16]
    6910:	910373a0 	add	x0, x29, #0xdc
/home/xiang/rockpi4-android/optee_os/lib/libmbedtls/mbedtls/library/bignum.c:2104
    6914:	910383b9 	add	x25, x29, #0xe0
    6918:	9103e3b6 	add	x22, x29, #0xf8
/home/xiang/rockpi4-android/optee_os/lib/libmbedtls/mbedtls/library/bignum.c:2103
    691c:	97fff775 	bl	46f0 <mpi_montg_init.isra.1>
/home/xiang/rockpi4-android/optee_os/lib/libmbedtls/mbedtls/library/bignum.c:2104
    6920:	aa1903e0 	mov	x0, x25
    6924:	97fff835 	bl	49f8 <mbedtls_mpi_init_mempool>
    6928:	aa1603e0 	mov	x0, x22
    692c:	97fff82e 	bl	49e4 <mbedtls_mpi_init>
/home/xiang/rockpi4-android/optee_os/lib/libmbedtls/mbedtls/library/bignum.c:2105
    6930:	9104a3a0 	add	x0, x29, #0x128
    6934:	f90057a0 	str	x0, [x29,#168]
    6938:	97fff830 	bl	49f8 <mbedtls_mpi_init_mempool>
/home/xiang/rockpi4-android/optee_os/lib/libmbedtls/mbedtls/library/bignum.c:2106
    693c:	910443a0 	add	x0, x29, #0x110
    6940:	f90053a0 	str	x0, [x29,#160]
    6944:	97fff82d 	bl	49f8 <mbedtls_mpi_init_mempool>
/home/xiang/rockpi4-android/optee_os/lib/libmbedtls/mbedtls/library/bignum.c:2108
    6948:	aa1a03e0 	mov	x0, x26
    694c:	97fff9a2 	bl	4fd4 <mbedtls_mpi_bitlen>
/home/xiang/rockpi4-android/optee_os/lib/libmbedtls/mbedtls/library/bignum.c:2110
    6950:	f10a7c1f 	cmp	x0, #0x29f
    6954:	54001668 	b.hi	6c20 <mbedtls_mpi_exp_mod+0x3b8>
/home/xiang/rockpi4-android/optee_os/lib/libmbedtls/mbedtls/library/bignum.c:2110 (discriminator 1)
    6958:	f103bc1f 	cmp	x0, #0xef
    695c:	54001668 	b.hi	6c28 <mbedtls_mpi_exp_mod+0x3c0>
/home/xiang/rockpi4-android/optee_os/lib/libmbedtls/mbedtls/library/bignum.c:2110 (discriminator 3)
    6960:	f1013c1f 	cmp	x0, #0x4f
    6964:	54001668 	b.hi	6c30 <mbedtls_mpi_exp_mod+0x3c8>
/home/xiang/rockpi4-android/optee_os/lib/libmbedtls/mbedtls/library/bignum.c:2110 (discriminator 5)
    6968:	f1005c1f 	cmp	x0, #0x17
    696c:	d2800077 	mov	x23, #0x3                   	// #3
    6970:	9a9f86f7 	csinc	x23, x23, xzr, hi
/home/xiang/rockpi4-android/optee_os/lib/libmbedtls/mbedtls/library/bignum.c:2118 (discriminator 16)
    6974:	f940069c 	ldr	x28, [x20,#8]
/home/xiang/rockpi4-android/optee_os/lib/libmbedtls/mbedtls/library/bignum.c:2124 (discriminator 16)
    6978:	aa1803e0 	mov	x0, x24
/home/xiang/rockpi4-android/optee_os/lib/libmbedtls/mbedtls/library/bignum.c:2118 (discriminator 16)
    697c:	9100079c 	add	x28, x28, #0x1
/home/xiang/rockpi4-android/optee_os/lib/libmbedtls/mbedtls/library/bignum.c:2124 (discriminator 16)
    6980:	aa1c03e1 	mov	x1, x28
    6984:	97fff842 	bl	4a8c <mbedtls_mpi_grow>
    6988:	2a0003f3 	mov	w19, w0
    698c:	f0000020 	adrp	x0, d000 <_DYNAMIC>
    6990:	f9003ba0 	str	x0, [x29,#112]
    6994:	35002a93 	cbnz	w19, 6ee4 <mbedtls_mpi_exp_mod+0x67c>
/home/xiang/rockpi4-android/optee_os/lib/libmbedtls/mbedtls/library/bignum.c:2126
    6998:	d37ffb81 	lsl	x1, x28, #1
    699c:	aa1603e0 	mov	x0, x22
    69a0:	97fff83b 	bl	4a8c <mbedtls_mpi_grow>
    69a4:	2a0003f3 	mov	w19, w0
    69a8:	350029e0 	cbnz	w0, 6ee4 <mbedtls_mpi_exp_mod+0x67c>
/home/xiang/rockpi4-android/optee_os/lib/libmbedtls/mbedtls/library/bignum.c:2131
    69ac:	79c00360 	ldrsh	w0, [x27]
    69b0:	b9009fa0 	str	w0, [x29,#156]
/home/xiang/rockpi4-android/optee_os/lib/libmbedtls/mbedtls/library/bignum.c:2132
    69b4:	3100041f 	cmn	w0, #0x1
    69b8:	54000121 	b.ne	69dc <mbedtls_mpi_exp_mod+0x174>
/home/xiang/rockpi4-android/optee_os/lib/libmbedtls/mbedtls/library/bignum.c:2134
    69bc:	f94057a0 	ldr	x0, [x29,#168]
    69c0:	aa1b03e1 	mov	x1, x27
    69c4:	97fff8d5 	bl	4d18 <mbedtls_mpi_copy>
    69c8:	2a0003f3 	mov	w19, w0
    69cc:	350028c0 	cbnz	w0, 6ee4 <mbedtls_mpi_exp_mod+0x67c>
/home/xiang/rockpi4-android/optee_os/lib/libmbedtls/mbedtls/library/bignum.c:2136
    69d0:	f94057bb 	ldr	x27, [x29,#168]
/home/xiang/rockpi4-android/optee_os/lib/libmbedtls/mbedtls/library/bignum.c:2135
    69d4:	52800020 	mov	w0, #0x1                   	// #1
    69d8:	790253a0 	strh	w0, [x29,#296]
/home/xiang/rockpi4-android/optee_os/lib/libmbedtls/mbedtls/library/bignum.c:2142
    69dc:	f94067a0 	ldr	x0, [x29,#200]
    69e0:	b4000060 	cbz	x0, 69ec <mbedtls_mpi_exp_mod+0x184>
/home/xiang/rockpi4-android/optee_os/lib/libmbedtls/mbedtls/library/bignum.c:2142 (discriminator 1)
    69e4:	f9400800 	ldr	x0, [x0,#16]
    69e8:	b5001280 	cbnz	x0, 6c38 <mbedtls_mpi_exp_mod+0x3d0>
/home/xiang/rockpi4-android/optee_os/lib/libmbedtls/mbedtls/library/bignum.c:2144
    69ec:	52800021 	mov	w1, #0x1                   	// #1
    69f0:	aa1903e0 	mov	x0, x25
    69f4:	97fff91a 	bl	4e5c <mbedtls_mpi_lset>
    69f8:	2a0003f3 	mov	w19, w0
    69fc:	35002740 	cbnz	w0, 6ee4 <mbedtls_mpi_exp_mod+0x67c>
/home/xiang/rockpi4-android/optee_os/lib/libmbedtls/mbedtls/library/bignum.c:2145
    6a00:	f9400681 	ldr	x1, [x20,#8]
    6a04:	aa1903e0 	mov	x0, x25
    6a08:	d37ae421 	lsl	x1, x1, #6
    6a0c:	97fffa30 	bl	52cc <mbedtls_mpi_shift_l>
    6a10:	2a0003f3 	mov	w19, w0
    6a14:	35002680 	cbnz	w0, 6ee4 <mbedtls_mpi_exp_mod+0x67c>
/home/xiang/rockpi4-android/optee_os/lib/libmbedtls/mbedtls/library/bignum.c:2146
    6a18:	aa1403e2 	mov	x2, x20
    6a1c:	aa1903e1 	mov	x1, x25
    6a20:	aa1903e0 	mov	x0, x25
    6a24:	97fffe78 	bl	6404 <mbedtls_mpi_mod_mpi>
    6a28:	2a0003f3 	mov	w19, w0
    6a2c:	350025c0 	cbnz	w0, 6ee4 <mbedtls_mpi_exp_mod+0x67c>
/home/xiang/rockpi4-android/optee_os/lib/libmbedtls/mbedtls/library/bignum.c:2148
    6a30:	f94067a0 	ldr	x0, [x29,#200]
    6a34:	b4000080 	cbz	x0, 6a44 <mbedtls_mpi_exp_mod+0x1dc>
/home/xiang/rockpi4-android/optee_os/lib/libmbedtls/mbedtls/library/bignum.c:2149
    6a38:	aa1903e1 	mov	x1, x25
    6a3c:	d2800302 	mov	x2, #0x18                  	// #24
/home/xiang/rockpi4-android/optee_os/lib/libmbedtls/mbedtls/library/bignum.c:2152
    6a40:	97ffe578 	bl	20 <memcpy>
/home/xiang/rockpi4-android/optee_os/lib/libmbedtls/mbedtls/library/bignum.c:2154
    6a44:	f0000020 	adrp	x0, d000 <_DYNAMIC>
    6a48:	d2818001 	mov	x1, #0xc00                 	// #3072
    6a4c:	f940cc00 	ldr	x0, [x0,#408]
    6a50:	f9400000 	ldr	x0, [x0]
    6a54:	9400101d 	bl	aac8 <mempool_alloc>
    6a58:	aa0003f5 	mov	x21, x0
/home/xiang/rockpi4-android/optee_os/lib/libmbedtls/mbedtls/library/bignum.c:2156
    6a5c:	b4002480 	cbz	x0, 6eec <mbedtls_mpi_exp_mod+0x684>
    6a60:	91300013 	add	x19, x0, #0xc00
    6a64:	a90b03a0 	stp	x0, x0, [x29,#176]
/home/xiang/rockpi4-android/optee_os/lib/libmbedtls/mbedtls/library/bignum.c:2161 (discriminator 3)
    6a68:	f9405fa0 	ldr	x0, [x29,#184]
    6a6c:	97fff7e3 	bl	49f8 <mbedtls_mpi_init_mempool>
    6a70:	f9405fa0 	ldr	x0, [x29,#184]
    6a74:	91006000 	add	x0, x0, #0x18
    6a78:	f9005fa0 	str	x0, [x29,#184]
/home/xiang/rockpi4-android/optee_os/lib/libmbedtls/mbedtls/library/bignum.c:2160 (discriminator 3)
    6a7c:	eb00027f 	cmp	x19, x0
    6a80:	54ffff41 	b.ne	6a68 <mbedtls_mpi_exp_mod+0x200>
/home/xiang/rockpi4-android/optee_os/lib/libmbedtls/mbedtls/library/bignum.c:2162
    6a84:	910062a0 	add	x0, x21, #0x18
    6a88:	aa1c03e1 	mov	x1, x28
    6a8c:	f90047a0 	str	x0, [x29,#136]
    6a90:	97fff7ff 	bl	4a8c <mbedtls_mpi_grow>
    6a94:	2a0003f3 	mov	w19, w0
    6a98:	35000900 	cbnz	w0, 6bb8 <mbedtls_mpi_exp_mod+0x350>
/home/xiang/rockpi4-android/optee_os/lib/libmbedtls/mbedtls/library/bignum.c:2167
    6a9c:	aa1403e1 	mov	x1, x20
    6aa0:	aa1b03e0 	mov	x0, x27
    6aa4:	97fffaa5 	bl	5538 <mbedtls_mpi_cmp_mpi>
    6aa8:	37f80d00 	tbnz	w0, #31, 6c48 <mbedtls_mpi_exp_mod+0x3e0>
/home/xiang/rockpi4-android/optee_os/lib/libmbedtls/mbedtls/library/bignum.c:2169
    6aac:	aa1403e2 	mov	x2, x20
    6ab0:	aa1b03e1 	mov	x1, x27
    6ab4:	910062a0 	add	x0, x21, #0x18
    6ab8:	97fffe53 	bl	6404 <mbedtls_mpi_mod_mpi>
    6abc:	2a0003f3 	mov	w19, w0
    6ac0:	350007c0 	cbnz	w0, 6bb8 <mbedtls_mpi_exp_mod+0x350>
/home/xiang/rockpi4-android/optee_os/lib/libmbedtls/mbedtls/library/bignum.c:2173
    6ac4:	f9400681 	ldr	x1, [x20,#8]
    6ac8:	910062a0 	add	x0, x21, #0x18
    6acc:	91000421 	add	x1, x1, #0x1
    6ad0:	97fff7ef 	bl	4a8c <mbedtls_mpi_grow>
    6ad4:	2a0003f3 	mov	w19, w0
    6ad8:	35000700 	cbnz	w0, 6bb8 <mbedtls_mpi_exp_mod+0x350>
/home/xiang/rockpi4-android/optee_os/lib/libmbedtls/mbedtls/library/bignum.c:2180
    6adc:	b940dfa3 	ldr	w3, [x29,#220]
    6ae0:	aa1603e4 	mov	x4, x22
    6ae4:	aa1403e2 	mov	x2, x20
    6ae8:	aa1903e1 	mov	x1, x25
    6aec:	9100a2a0 	add	x0, x21, #0x28
    6af0:	97fff756 	bl	4848 <mpi_montmul.isra.2>
/home/xiang/rockpi4-android/optee_os/lib/libmbedtls/mbedtls/library/bignum.c:2185
    6af4:	aa1903e1 	mov	x1, x25
    6af8:	aa1803e0 	mov	x0, x24
    6afc:	97fff887 	bl	4d18 <mbedtls_mpi_copy>
    6b00:	2a0003f3 	mov	w19, w0
    6b04:	350005a0 	cbnz	w0, 6bb8 <mbedtls_mpi_exp_mod+0x350>
/home/xiang/rockpi4-android/optee_os/lib/libmbedtls/mbedtls/library/bignum.c:2186
    6b08:	b940dfa2 	ldr	w2, [x29,#220]
    6b0c:	aa1603e3 	mov	x3, x22
    6b10:	aa1403e1 	mov	x1, x20
    6b14:	aa1803e0 	mov	x0, x24
    6b18:	97fff7a2 	bl	49a0 <mpi_montred>
/home/xiang/rockpi4-android/optee_os/lib/libmbedtls/mbedtls/library/bignum.c:2188
    6b1c:	f10006ff 	cmp	x23, #0x1
    6b20:	540009c1 	b.ne	6c58 <mbedtls_mpi_exp_mod+0x3f0>
/home/xiang/rockpi4-android/optee_os/lib/libmbedtls/mbedtls/library/bignum.c:2269
    6b24:	d2800020 	mov	x0, #0x1                   	// #1
/home/xiang/rockpi4-android/optee_os/lib/libmbedtls/mbedtls/library/bignum.c:2213
    6b28:	f940075c 	ldr	x28, [x26,#8]
/home/xiang/rockpi4-android/optee_os/lib/libmbedtls/mbedtls/library/bignum.c:2269
    6b2c:	9ad72000 	lsl	x0, x0, x23
/home/xiang/rockpi4-android/optee_os/lib/libmbedtls/mbedtls/library/bignum.c:2217
    6b30:	52800003 	mov	w3, #0x0                   	// #0
/home/xiang/rockpi4-android/optee_os/lib/libmbedtls/mbedtls/library/bignum.c:2269
    6b34:	f90043a0 	str	x0, [x29,#128]
/home/xiang/rockpi4-android/optee_os/lib/libmbedtls/mbedtls/library/bignum.c:2215
    6b38:	d2800005 	mov	x5, #0x0                   	// #0
/home/xiang/rockpi4-android/optee_os/lib/libmbedtls/mbedtls/library/bignum.c:2264
    6b3c:	91004300 	add	x0, x24, #0x10
/home/xiang/rockpi4-android/optee_os/lib/libmbedtls/mbedtls/library/bignum.c:2216
    6b40:	d280001b 	mov	x27, #0x0                   	// #0
/home/xiang/rockpi4-android/optee_os/lib/libmbedtls/mbedtls/library/bignum.c:2256
    6b44:	b9007bb7 	str	w23, [x29,#120]
/home/xiang/rockpi4-android/optee_os/lib/libmbedtls/mbedtls/library/bignum.c:2214
    6b48:	f90063bf 	str	xzr, [x29,#192]
/home/xiang/rockpi4-android/optee_os/lib/libmbedtls/mbedtls/library/bignum.c:2264
    6b4c:	f9004ba0 	str	x0, [x29,#144]
/home/xiang/rockpi4-android/optee_os/lib/libmbedtls/mbedtls/library/bignum.c:2221
    6b50:	f94063a0 	ldr	x0, [x29,#192]
    6b54:	b5001100 	cbnz	x0, 6d74 <mbedtls_mpi_exp_mod+0x50c>
/home/xiang/rockpi4-android/optee_os/lib/libmbedtls/mbedtls/library/bignum.c:2223
    6b58:	b500109c 	cbnz	x28, 6d68 <mbedtls_mpi_exp_mod+0x500>
    6b5c:	91004317 	add	x23, x24, #0x10
/home/xiang/rockpi4-android/optee_os/lib/libmbedtls/mbedtls/library/bignum.c:2281 (discriminator 1)
    6b60:	eb05039f 	cmp	x28, x5
    6b64:	54001961 	b.ne	6e90 <mbedtls_mpi_exp_mod+0x628>
/home/xiang/rockpi4-android/optee_os/lib/libmbedtls/mbedtls/library/bignum.c:2294
    6b68:	b940dfa2 	ldr	w2, [x29,#220]
    6b6c:	aa1803e0 	mov	x0, x24
    6b70:	aa1603e3 	mov	x3, x22
    6b74:	aa1403e1 	mov	x1, x20
    6b78:	97fff78a 	bl	49a0 <mpi_montred>
/home/xiang/rockpi4-android/optee_os/lib/libmbedtls/mbedtls/library/bignum.c:2296
    6b7c:	b9409fa0 	ldr	w0, [x29,#156]
    6b80:	3100041f 	cmn	w0, #0x1
    6b84:	540001a1 	b.ne	6bb8 <mbedtls_mpi_exp_mod+0x350>
/home/xiang/rockpi4-android/optee_os/lib/libmbedtls/mbedtls/library/bignum.c:2296 (discriminator 1)
    6b88:	f9400740 	ldr	x0, [x26,#8]
    6b8c:	b4000160 	cbz	x0, 6bb8 <mbedtls_mpi_exp_mod+0x350>
/home/xiang/rockpi4-android/optee_os/lib/libmbedtls/mbedtls/library/bignum.c:2296 (discriminator 2)
    6b90:	f9400b40 	ldr	x0, [x26,#16]
    6b94:	b9400000 	ldr	w0, [x0]
    6b98:	36000100 	tbz	w0, #0, 6bb8 <mbedtls_mpi_exp_mod+0x350>
/home/xiang/rockpi4-android/optee_os/lib/libmbedtls/mbedtls/library/bignum.c:2298
    6b9c:	79413ba0 	ldrh	w0, [x29,#156]
/home/xiang/rockpi4-android/optee_os/lib/libmbedtls/mbedtls/library/bignum.c:2299
    6ba0:	aa1803e2 	mov	x2, x24
/home/xiang/rockpi4-android/optee_os/lib/libmbedtls/mbedtls/library/bignum.c:2298
    6ba4:	79000300 	strh	w0, [x24]
/home/xiang/rockpi4-android/optee_os/lib/libmbedtls/mbedtls/library/bignum.c:2299
    6ba8:	aa1403e1 	mov	x1, x20
    6bac:	aa1803e0 	mov	x0, x24
    6bb0:	97fffb56 	bl	5908 <mbedtls_mpi_add_mpi>
    6bb4:	2a0003f3 	mov	w19, w0
/home/xiang/rockpi4-android/optee_os/lib/libmbedtls/mbedtls/library/bignum.c:2306 (discriminator 3)
    6bb8:	f9405ba0 	ldr	x0, [x29,#176]
    6bbc:	97fff799 	bl	4a20 <mbedtls_mpi_free>
    6bc0:	f9405ba0 	ldr	x0, [x29,#176]
    6bc4:	91006000 	add	x0, x0, #0x18
    6bc8:	f9005ba0 	str	x0, [x29,#176]
/home/xiang/rockpi4-android/optee_os/lib/libmbedtls/mbedtls/library/bignum.c:2305 (discriminator 3)
    6bcc:	a94b03a1 	ldp	x1, x0, [x29,#176]
    6bd0:	eb01001f 	cmp	x0, x1
    6bd4:	54ffff21 	b.ne	6bb8 <mbedtls_mpi_exp_mod+0x350>
/home/xiang/rockpi4-android/optee_os/lib/libmbedtls/mbedtls/library/bignum.c:2307
    6bd8:	f9403ba0 	ldr	x0, [x29,#112]
    6bdc:	aa1503e1 	mov	x1, x21
    6be0:	f940cc00 	ldr	x0, [x0,#408]
    6be4:	f9400000 	ldr	x0, [x0]
    6be8:	94000fe5 	bl	ab7c <mempool_free>
/home/xiang/rockpi4-android/optee_os/lib/libmbedtls/mbedtls/library/bignum.c:2309
    6bec:	aa1603e0 	mov	x0, x22
    6bf0:	97fff78c 	bl	4a20 <mbedtls_mpi_free>
    6bf4:	f94057a0 	ldr	x0, [x29,#168]
    6bf8:	97fff78a 	bl	4a20 <mbedtls_mpi_free>
/home/xiang/rockpi4-android/optee_os/lib/libmbedtls/mbedtls/library/bignum.c:2310
    6bfc:	f94053a0 	ldr	x0, [x29,#160]
    6c00:	97fff788 	bl	4a20 <mbedtls_mpi_free>
/home/xiang/rockpi4-android/optee_os/lib/libmbedtls/mbedtls/library/bignum.c:2312
    6c04:	f94067a0 	ldr	x0, [x29,#200]
    6c08:	b4000060 	cbz	x0, 6c14 <mbedtls_mpi_exp_mod+0x3ac>
/home/xiang/rockpi4-android/optee_os/lib/libmbedtls/mbedtls/library/bignum.c:2312 (discriminator 1)
    6c0c:	f9400800 	ldr	x0, [x0,#16]
    6c10:	b5ffe500 	cbnz	x0, 68b0 <mbedtls_mpi_exp_mod+0x48>
/home/xiang/rockpi4-android/optee_os/lib/libmbedtls/mbedtls/library/bignum.c:2313
    6c14:	aa1903e0 	mov	x0, x25
    6c18:	97fff782 	bl	4a20 <mbedtls_mpi_free>
    6c1c:	17ffff25 	b	68b0 <mbedtls_mpi_exp_mod+0x48>
/home/xiang/rockpi4-android/optee_os/lib/libmbedtls/mbedtls/library/bignum.c:2110
    6c20:	d28000d7 	mov	x23, #0x6                   	// #6
    6c24:	17ffff54 	b	6974 <mbedtls_mpi_exp_mod+0x10c>
    6c28:	d28000b7 	mov	x23, #0x5                   	// #5
    6c2c:	17ffff52 	b	6974 <mbedtls_mpi_exp_mod+0x10c>
    6c30:	d2800097 	mov	x23, #0x4                   	// #4
    6c34:	17ffff50 	b	6974 <mbedtls_mpi_exp_mod+0x10c>
/home/xiang/rockpi4-android/optee_os/lib/libmbedtls/mbedtls/library/bignum.c:2152
    6c38:	d2800302 	mov	x2, #0x18                  	// #24
    6c3c:	aa1903e0 	mov	x0, x25
    6c40:	f94067a1 	ldr	x1, [x29,#200]
    6c44:	17ffff7f 	b	6a40 <mbedtls_mpi_exp_mod+0x1d8>
/home/xiang/rockpi4-android/optee_os/lib/libmbedtls/mbedtls/library/bignum.c:2176
    6c48:	aa1b03e1 	mov	x1, x27
    6c4c:	910062a0 	add	x0, x21, #0x18
    6c50:	97fff832 	bl	4d18 <mbedtls_mpi_copy>
    6c54:	17ffffa0 	b	6ad4 <mbedtls_mpi_exp_mod+0x26c>
/home/xiang/rockpi4-android/optee_os/lib/libmbedtls/mbedtls/library/bignum.c:2193
    6c58:	510006e0 	sub	w0, w23, #0x1
    6c5c:	d280003b 	mov	x27, #0x1                   	// #1
/home/xiang/rockpi4-android/optee_os/lib/libmbedtls/mbedtls/library/bignum.c:2195
    6c60:	f9400681 	ldr	x1, [x20,#8]
/home/xiang/rockpi4-android/optee_os/lib/libmbedtls/mbedtls/library/bignum.c:2193
    6c64:	9ac0237c 	lsl	x28, x27, x0
/home/xiang/rockpi4-android/optee_os/lib/libmbedtls/mbedtls/library/bignum.c:2195
    6c68:	d280031b 	mov	x27, #0x18                  	// #24
    6c6c:	9ac0237b 	lsl	x27, x27, x0
    6c70:	8b1b02bb 	add	x27, x21, x27
    6c74:	aa1b03e0 	mov	x0, x27
    6c78:	91000421 	add	x1, x1, #0x1
/home/xiang/rockpi4-android/optee_os/lib/libmbedtls/mbedtls/library/bignum.c:2193
    6c7c:	b900c3b7 	str	w23, [x29,#192]
/home/xiang/rockpi4-android/optee_os/lib/libmbedtls/mbedtls/library/bignum.c:2195
    6c80:	97fff783 	bl	4a8c <mbedtls_mpi_grow>
    6c84:	35fff980 	cbnz	w0, 6bb4 <mbedtls_mpi_exp_mod+0x34c>
/home/xiang/rockpi4-android/optee_os/lib/libmbedtls/mbedtls/library/bignum.c:2196
    6c88:	910062a1 	add	x1, x21, #0x18
    6c8c:	aa1b03e0 	mov	x0, x27
    6c90:	97fff822 	bl	4d18 <mbedtls_mpi_copy>
    6c94:	35fff900 	cbnz	w0, 6bb4 <mbedtls_mpi_exp_mod+0x34c>
/home/xiang/rockpi4-android/optee_os/lib/libmbedtls/mbedtls/library/bignum.c:2198 (discriminator 1)
    6c98:	d10006e6 	sub	x6, x23, #0x1
/home/xiang/rockpi4-android/optee_os/lib/libmbedtls/mbedtls/library/bignum.c:2199 (discriminator 1)
    6c9c:	91004367 	add	x7, x27, #0x10
    6ca0:	d2800005 	mov	x5, #0x0                   	// #0
/home/xiang/rockpi4-android/optee_os/lib/libmbedtls/mbedtls/library/bignum.c:2198 (discriminator 1)
    6ca4:	eb0600bf 	cmp	x5, x6
    6ca8:	54000423 	b.cc	6d2c <mbedtls_mpi_exp_mod+0x4c4>
/home/xiang/rockpi4-android/optee_os/lib/libmbedtls/mbedtls/library/bignum.c:2204
    6cac:	9100079b 	add	x27, x28, #0x1
    6cb0:	d2800305 	mov	x5, #0x18                  	// #24
    6cb4:	394303a0 	ldrb	w0, [x29,#192]
    6cb8:	d280003c 	mov	x28, #0x1                   	// #1
    6cbc:	9b055765 	madd	x5, x27, x5, x21
    6cc0:	9ac02380 	lsl	x0, x28, x0
    6cc4:	f90063a0 	str	x0, [x29,#192]
    6cc8:	910040bc 	add	x28, x5, #0x10
/home/xiang/rockpi4-android/optee_os/lib/libmbedtls/mbedtls/library/bignum.c:2204 (discriminator 1)
    6ccc:	f94063a0 	ldr	x0, [x29,#192]
    6cd0:	eb00037f 	cmp	x27, x0
    6cd4:	54fff282 	b.cs	6b24 <mbedtls_mpi_exp_mod+0x2bc>
    6cd8:	d1004382 	sub	x2, x28, #0x10
/home/xiang/rockpi4-android/optee_os/lib/libmbedtls/mbedtls/library/bignum.c:2206
    6cdc:	f9400681 	ldr	x1, [x20,#8]
    6ce0:	aa0203e0 	mov	x0, x2
    6ce4:	f9004ba2 	str	x2, [x29,#144]
    6ce8:	91000421 	add	x1, x1, #0x1
    6cec:	97fff768 	bl	4a8c <mbedtls_mpi_grow>
    6cf0:	35fff620 	cbnz	w0, 6bb4 <mbedtls_mpi_exp_mod+0x34c>
/home/xiang/rockpi4-android/optee_os/lib/libmbedtls/mbedtls/library/bignum.c:2207
    6cf4:	f9404ba2 	ldr	x2, [x29,#144]
    6cf8:	d100a381 	sub	x1, x28, #0x28
    6cfc:	aa0203e0 	mov	x0, x2
    6d00:	97fff806 	bl	4d18 <mbedtls_mpi_copy>
    6d04:	35fff580 	cbnz	w0, 6bb4 <mbedtls_mpi_exp_mod+0x34c>
/home/xiang/rockpi4-android/optee_os/lib/libmbedtls/mbedtls/library/bignum.c:2209 (discriminator 2)
    6d08:	b940dfa3 	ldr	w3, [x29,#220]
    6d0c:	aa1c03e0 	mov	x0, x28
    6d10:	f94047a1 	ldr	x1, [x29,#136]
    6d14:	aa1603e4 	mov	x4, x22
    6d18:	aa1403e2 	mov	x2, x20
/home/xiang/rockpi4-android/optee_os/lib/libmbedtls/mbedtls/library/bignum.c:2204 (discriminator 2)
    6d1c:	9100077b 	add	x27, x27, #0x1
    6d20:	9100639c 	add	x28, x28, #0x18
/home/xiang/rockpi4-android/optee_os/lib/libmbedtls/mbedtls/library/bignum.c:2209 (discriminator 2)
    6d24:	97fff6c9 	bl	4848 <mpi_montmul.isra.2>
    6d28:	17ffffe9 	b	6ccc <mbedtls_mpi_exp_mod+0x464>
/home/xiang/rockpi4-android/optee_os/lib/libmbedtls/mbedtls/library/bignum.c:2199 (discriminator 3)
    6d2c:	b940dfa3 	ldr	w3, [x29,#220]
    6d30:	aa0703e0 	mov	x0, x7
    6d34:	a90797a6 	stp	x6, x5, [x29,#120]
    6d38:	aa1603e4 	mov	x4, x22
    6d3c:	f9004ba7 	str	x7, [x29,#144]
    6d40:	aa1403e2 	mov	x2, x20
    6d44:	aa1b03e1 	mov	x1, x27
    6d48:	97fff6c0 	bl	4848 <mpi_montmul.isra.2>
/home/xiang/rockpi4-android/optee_os/lib/libmbedtls/mbedtls/library/bignum.c:2198 (discriminator 3)
    6d4c:	a94797a6 	ldp	x6, x5, [x29,#120]
    6d50:	f9404ba7 	ldr	x7, [x29,#144]
    6d54:	910004a5 	add	x5, x5, #0x1
    6d58:	17ffffd3 	b	6ca4 <mbedtls_mpi_exp_mod+0x43c>
/home/xiang/rockpi4-android/optee_os/lib/libmbedtls/mbedtls/library/bignum.c:2253
    6d5c:	52800040 	mov	w0, #0x2                   	// #2
/home/xiang/rockpi4-android/optee_os/lib/libmbedtls/mbedtls/library/bignum.c:2274
    6d60:	2a0003e3 	mov	w3, w0
    6d64:	17ffff7b 	b	6b50 <mbedtls_mpi_exp_mod+0x2e8>
/home/xiang/rockpi4-android/optee_os/lib/libmbedtls/mbedtls/library/bignum.c:2226
    6d68:	d100079c 	sub	x28, x28, #0x1
/home/xiang/rockpi4-android/optee_os/lib/libmbedtls/mbedtls/library/bignum.c:2228
    6d6c:	d2800400 	mov	x0, #0x20                  	// #32
    6d70:	f90063a0 	str	x0, [x29,#192]
/home/xiang/rockpi4-android/optee_os/lib/libmbedtls/mbedtls/library/bignum.c:2231
    6d74:	f94063a0 	ldr	x0, [x29,#192]
    6d78:	d1000400 	sub	x0, x0, #0x1
    6d7c:	f90063a0 	str	x0, [x29,#192]
/home/xiang/rockpi4-android/optee_os/lib/libmbedtls/mbedtls/library/bignum.c:2233
    6d80:	f9400b40 	ldr	x0, [x26,#16]
    6d84:	b87c7802 	ldr	w2, [x0,x28,lsl #2]
    6d88:	394303a0 	ldrb	w0, [x29,#192]
    6d8c:	1ac02444 	lsr	w4, w2, w0
    6d90:	12000081 	and	w1, w4, #0x1
/home/xiang/rockpi4-android/optee_os/lib/libmbedtls/mbedtls/library/bignum.c:2238
    6d94:	2a010060 	orr	w0, w3, w1
    6d98:	34fffe40 	cbz	w0, 6d60 <mbedtls_mpi_exp_mod+0x4f8>
/home/xiang/rockpi4-android/optee_os/lib/libmbedtls/mbedtls/library/bignum.c:2241
    6d9c:	7100047f 	cmp	w3, #0x1
    6da0:	1a9f17e0 	cset	w0, eq
    6da4:	6a24001f 	bics	wzr, w0, w4
    6da8:	54000160 	b.eq	6dd4 <mbedtls_mpi_exp_mod+0x56c>
/home/xiang/rockpi4-android/optee_os/lib/libmbedtls/mbedtls/library/bignum.c:2246
    6dac:	f9404ba0 	ldr	x0, [x29,#144]
    6db0:	aa1603e4 	mov	x4, x22
    6db4:	b940dfa3 	ldr	w3, [x29,#220]
    6db8:	aa1403e2 	mov	x2, x20
    6dbc:	f90037a5 	str	x5, [x29,#104]
    6dc0:	aa1803e1 	mov	x1, x24
    6dc4:	97fff6a1 	bl	4848 <mpi_montmul.isra.2>
/home/xiang/rockpi4-android/optee_os/lib/libmbedtls/mbedtls/library/bignum.c:2247
    6dc8:	52800020 	mov	w0, #0x1                   	// #1
    6dcc:	f94037a5 	ldr	x5, [x29,#104]
    6dd0:	17ffffe4 	b	6d60 <mbedtls_mpi_exp_mod+0x4f8>
/home/xiang/rockpi4-android/optee_os/lib/libmbedtls/mbedtls/library/bignum.c:2256
    6dd4:	b9407ba0 	ldr	w0, [x29,#120]
/home/xiang/rockpi4-android/optee_os/lib/libmbedtls/mbedtls/library/bignum.c:2255
    6dd8:	910004a5 	add	x5, x5, #0x1
/home/xiang/rockpi4-android/optee_os/lib/libmbedtls/mbedtls/library/bignum.c:2258
    6ddc:	eb0502ff 	cmp	x23, x5
/home/xiang/rockpi4-android/optee_os/lib/libmbedtls/mbedtls/library/bignum.c:2256
    6de0:	4b050000 	sub	w0, w0, w5
    6de4:	1ac02021 	lsl	w1, w1, w0
    6de8:	aa01037b 	orr	x27, x27, x1
/home/xiang/rockpi4-android/optee_os/lib/libmbedtls/mbedtls/library/bignum.c:2258
    6dec:	54fffb81 	b.ne	6d5c <mbedtls_mpi_exp_mod+0x4f4>
    6df0:	d2800005 	mov	x5, #0x0                   	// #0
/home/xiang/rockpi4-android/optee_os/lib/libmbedtls/mbedtls/library/bignum.c:2264 (discriminator 3)
    6df4:	b940dfa3 	ldr	w3, [x29,#220]
    6df8:	aa1603e4 	mov	x4, x22
    6dfc:	f9404ba0 	ldr	x0, [x29,#144]
    6e00:	aa1403e2 	mov	x2, x20
    6e04:	f90037a5 	str	x5, [x29,#104]
    6e08:	aa1803e1 	mov	x1, x24
    6e0c:	97fff68f 	bl	4848 <mpi_montmul.isra.2>
/home/xiang/rockpi4-android/optee_os/lib/libmbedtls/mbedtls/library/bignum.c:2263 (discriminator 3)
    6e10:	f94037a5 	ldr	x5, [x29,#104]
    6e14:	910004a5 	add	x5, x5, #0x1
    6e18:	eb0502ff 	cmp	x23, x5
    6e1c:	54fffec8 	b.hi	6df4 <mbedtls_mpi_exp_mod+0x58c>
mpi_select():
/home/xiang/rockpi4-android/optee_os/lib/libmbedtls/mbedtls/library/bignum.c:2058
    6e20:	d2800003 	mov	x3, #0x0                   	// #0
    6e24:	d2800300 	mov	x0, #0x18                  	// #24
/home/xiang/rockpi4-android/optee_os/lib/libmbedtls/mbedtls/library/bignum.c:2060
    6e28:	aa1b03e1 	mov	x1, x27
    6e2c:	9b005464 	madd	x4, x3, x0, x21
    6e30:	aa0303e0 	mov	x0, x3
    6e34:	a9060fa4 	stp	x4, x3, [x29,#96]
    6e38:	940004cc 	bl	8168 <mbedtls_ct_size_bool_eq>
    6e3c:	2a0003e2 	mov	w2, w0
    6e40:	f94033a4 	ldr	x4, [x29,#96]
    6e44:	f94053a0 	ldr	x0, [x29,#160]
    6e48:	aa0403e1 	mov	x1, x4
    6e4c:	94000552 	bl	8394 <mbedtls_mpi_safe_cond_assign>
    6e50:	35ffeb20 	cbnz	w0, 6bb4 <mbedtls_mpi_exp_mod+0x34c>
/home/xiang/rockpi4-android/optee_os/lib/libmbedtls/mbedtls/library/bignum.c:2058
    6e54:	f94037a3 	ldr	x3, [x29,#104]
    6e58:	f94043a0 	ldr	x0, [x29,#128]
    6e5c:	91000463 	add	x3, x3, #0x1
    6e60:	eb03001f 	cmp	x0, x3
    6e64:	54fffe08 	b.hi	6e24 <mbedtls_mpi_exp_mod+0x5bc>
mbedtls_mpi_exp_mod():
/home/xiang/rockpi4-android/optee_os/lib/libmbedtls/mbedtls/library/bignum.c:2270
    6e68:	f9404ba0 	ldr	x0, [x29,#144]
    6e6c:	aa1603e4 	mov	x4, x22
    6e70:	b940dfa3 	ldr	w3, [x29,#220]
    6e74:	aa1403e2 	mov	x2, x20
    6e78:	f94053a1 	ldr	x1, [x29,#160]
/home/xiang/rockpi4-android/optee_os/lib/libmbedtls/mbedtls/library/bignum.c:2274
    6e7c:	d280001b 	mov	x27, #0x0                   	// #0
/home/xiang/rockpi4-android/optee_os/lib/libmbedtls/mbedtls/library/bignum.c:2270
    6e80:	97fff672 	bl	4848 <mpi_montmul.isra.2>
/home/xiang/rockpi4-android/optee_os/lib/libmbedtls/mbedtls/library/bignum.c:2272
    6e84:	52800020 	mov	w0, #0x1                   	// #1
/home/xiang/rockpi4-android/optee_os/lib/libmbedtls/mbedtls/library/bignum.c:2273
    6e88:	d2800005 	mov	x5, #0x0                   	// #0
    6e8c:	17ffffb5 	b	6d60 <mbedtls_mpi_exp_mod+0x4f8>
/home/xiang/rockpi4-android/optee_os/lib/libmbedtls/mbedtls/library/bignum.c:2283
    6e90:	b940dfa3 	ldr	w3, [x29,#220]
    6e94:	aa1703e0 	mov	x0, x23
    6e98:	f90063a5 	str	x5, [x29,#192]
    6e9c:	aa1603e4 	mov	x4, x22
    6ea0:	aa1403e2 	mov	x2, x20
    6ea4:	aa1803e1 	mov	x1, x24
/home/xiang/rockpi4-android/optee_os/lib/libmbedtls/mbedtls/library/bignum.c:2285
    6ea8:	d37ffb7b 	lsl	x27, x27, #1
/home/xiang/rockpi4-android/optee_os/lib/libmbedtls/mbedtls/library/bignum.c:2283
    6eac:	97fff667 	bl	4848 <mpi_montmul.isra.2>
/home/xiang/rockpi4-android/optee_os/lib/libmbedtls/mbedtls/library/bignum.c:2287
    6eb0:	f94043a0 	ldr	x0, [x29,#128]
    6eb4:	f94063a5 	ldr	x5, [x29,#192]
    6eb8:	ea00037f 	tst	x27, x0
    6ebc:	54000100 	b.eq	6edc <mbedtls_mpi_exp_mod+0x674>
/home/xiang/rockpi4-android/optee_os/lib/libmbedtls/mbedtls/library/bignum.c:2288
    6ec0:	b940dfa3 	ldr	w3, [x29,#220]
    6ec4:	aa1603e4 	mov	x4, x22
    6ec8:	f94047a1 	ldr	x1, [x29,#136]
    6ecc:	aa1403e2 	mov	x2, x20
    6ed0:	aa1703e0 	mov	x0, x23
    6ed4:	97fff65d 	bl	4848 <mpi_montmul.isra.2>
    6ed8:	f94063a5 	ldr	x5, [x29,#192]
/home/xiang/rockpi4-android/optee_os/lib/libmbedtls/mbedtls/library/bignum.c:2281 (discriminator 2)
    6edc:	9100079c 	add	x28, x28, #0x1
    6ee0:	17ffff20 	b	6b60 <mbedtls_mpi_exp_mod+0x2f8>
    6ee4:	d2800015 	mov	x21, #0x0                   	// #0
    6ee8:	17ffff3c 	b	6bd8 <mbedtls_mpi_exp_mod+0x370>
/home/xiang/rockpi4-android/optee_os/lib/libmbedtls/mbedtls/library/bignum.c:2157
    6eec:	128001f3 	mov	w19, #0xfffffff0            	// #-16
    6ef0:	17ffff3a 	b	6bd8 <mbedtls_mpi_exp_mod+0x370>

0000000000006ef4 <mbedtls_mpi_gcd>:
mbedtls_mpi_gcd():
/home/xiang/rockpi4-android/optee_os/lib/libmbedtls/mbedtls/library/bignum.c:2322
    6ef4:	a9b87bfd 	stp	x29, x30, [sp,#-128]!
    6ef8:	910003fd 	mov	x29, sp
    6efc:	a9025bf5 	stp	x21, x22, [sp,#32]
/home/xiang/rockpi4-android/optee_os/lib/libmbedtls/mbedtls/library/bignum.c:2331
    6f00:	910143b5 	add	x21, x29, #0x50
/home/xiang/rockpi4-android/optee_os/lib/libmbedtls/mbedtls/library/bignum.c:2322
    6f04:	a90153f3 	stp	x19, x20, [sp,#16]
    6f08:	aa0203f6 	mov	x22, x2
    6f0c:	a90363f7 	stp	x23, x24, [sp,#48]
/home/xiang/rockpi4-android/optee_os/lib/libmbedtls/mbedtls/library/bignum.c:2331
    6f10:	9101a3b4 	add	x20, x29, #0x68
/home/xiang/rockpi4-android/optee_os/lib/libmbedtls/mbedtls/library/bignum.c:2322
    6f14:	f90023f9 	str	x25, [sp,#64]
    6f18:	aa0003f7 	mov	x23, x0
    6f1c:	aa0103f9 	mov	x25, x1
/home/xiang/rockpi4-android/optee_os/lib/libmbedtls/mbedtls/library/bignum.c:2331
    6f20:	aa1503e0 	mov	x0, x21
    6f24:	97fff6b5 	bl	49f8 <mbedtls_mpi_init_mempool>
    6f28:	aa1403e0 	mov	x0, x20
    6f2c:	97fff6b3 	bl	49f8 <mbedtls_mpi_init_mempool>
/home/xiang/rockpi4-android/optee_os/lib/libmbedtls/mbedtls/library/bignum.c:2333
    6f30:	aa1903e1 	mov	x1, x25
    6f34:	aa1503e0 	mov	x0, x21
    6f38:	97fff778 	bl	4d18 <mbedtls_mpi_copy>
    6f3c:	2a0003f3 	mov	w19, w0
    6f40:	35000840 	cbnz	w0, 7048 <mbedtls_mpi_gcd+0x154>
/home/xiang/rockpi4-android/optee_os/lib/libmbedtls/mbedtls/library/bignum.c:2334
    6f44:	aa1603e1 	mov	x1, x22
    6f48:	aa1403e0 	mov	x0, x20
    6f4c:	97fff773 	bl	4d18 <mbedtls_mpi_copy>
    6f50:	2a0003f3 	mov	w19, w0
    6f54:	350007a0 	cbnz	w0, 7048 <mbedtls_mpi_gcd+0x154>
/home/xiang/rockpi4-android/optee_os/lib/libmbedtls/mbedtls/library/bignum.c:2336
    6f58:	aa1503e0 	mov	x0, x21
    6f5c:	97fff809 	bl	4f80 <mbedtls_mpi_lsb>
    6f60:	aa0003f8 	mov	x24, x0
/home/xiang/rockpi4-android/optee_os/lib/libmbedtls/mbedtls/library/bignum.c:2337
    6f64:	aa1403e0 	mov	x0, x20
    6f68:	97fff806 	bl	4f80 <mbedtls_mpi_lsb>
    6f6c:	aa0003f6 	mov	x22, x0
/home/xiang/rockpi4-android/optee_os/lib/libmbedtls/mbedtls/library/bignum.c:2343
    6f70:	b5000140 	cbnz	x0, 6f98 <mbedtls_mpi_gcd+0xa4>
/home/xiang/rockpi4-android/optee_os/lib/libmbedtls/mbedtls/library/bignum.c:2343 (discriminator 1)
    6f74:	d2800001 	mov	x1, #0x0                   	// #0
    6f78:	aa1403e0 	mov	x0, x20
    6f7c:	97fff7d2 	bl	4ec4 <mbedtls_mpi_get_bit>
    6f80:	350000c0 	cbnz	w0, 6f98 <mbedtls_mpi_gcd+0xa4>
/home/xiang/rockpi4-android/optee_os/lib/libmbedtls/mbedtls/library/bignum.c:2345
    6f84:	aa1903e1 	mov	x1, x25
/home/xiang/rockpi4-android/optee_os/lib/libmbedtls/mbedtls/library/bignum.c:2423
    6f88:	aa1703e0 	mov	x0, x23
    6f8c:	97fff763 	bl	4d18 <mbedtls_mpi_copy>
    6f90:	2a0003f3 	mov	w19, w0
    6f94:	1400002d 	b	7048 <mbedtls_mpi_gcd+0x154>
/home/xiang/rockpi4-android/optee_os/lib/libmbedtls/mbedtls/library/bignum.c:2352
    6f98:	52800020 	mov	w0, #0x1                   	// #1
    6f9c:	7900d3a0 	strh	w0, [x29,#104]
    6fa0:	7900a3a0 	strh	w0, [x29,#80]
/home/xiang/rockpi4-android/optee_os/lib/libmbedtls/mbedtls/library/bignum.c:2387
    6fa4:	52800001 	mov	w1, #0x0                   	// #0
    6fa8:	aa1503e0 	mov	x0, x21
    6fac:	97fff99f 	bl	5628 <mbedtls_mpi_cmp_int>
    6fb0:	35000120 	cbnz	w0, 6fd4 <mbedtls_mpi_gcd+0xe0>
/home/xiang/rockpi4-android/optee_os/lib/libmbedtls/mbedtls/library/bignum.c:2422
    6fb4:	eb16031f 	cmp	x24, x22
    6fb8:	aa1403e0 	mov	x0, x20
    6fbc:	9a969301 	csel	x1, x24, x22, ls
    6fc0:	97fff8c3 	bl	52cc <mbedtls_mpi_shift_l>
    6fc4:	2a0003f3 	mov	w19, w0
    6fc8:	35000400 	cbnz	w0, 7048 <mbedtls_mpi_gcd+0x154>
/home/xiang/rockpi4-android/optee_os/lib/libmbedtls/mbedtls/library/bignum.c:2423
    6fcc:	aa1403e1 	mov	x1, x20
    6fd0:	17ffffee 	b	6f88 <mbedtls_mpi_gcd+0x94>
/home/xiang/rockpi4-android/optee_os/lib/libmbedtls/mbedtls/library/bignum.c:2390
    6fd4:	aa1503e0 	mov	x0, x21
    6fd8:	97fff7ea 	bl	4f80 <mbedtls_mpi_lsb>
    6fdc:	aa0003e1 	mov	x1, x0
    6fe0:	aa1503e0 	mov	x0, x21
    6fe4:	97fff8fa 	bl	53cc <mbedtls_mpi_shift_r>
    6fe8:	2a0003f3 	mov	w19, w0
    6fec:	350002e0 	cbnz	w0, 7048 <mbedtls_mpi_gcd+0x154>
/home/xiang/rockpi4-android/optee_os/lib/libmbedtls/mbedtls/library/bignum.c:2391
    6ff0:	aa1403e0 	mov	x0, x20
    6ff4:	97fff7e3 	bl	4f80 <mbedtls_mpi_lsb>
    6ff8:	aa0003e1 	mov	x1, x0
    6ffc:	aa1403e0 	mov	x0, x20
    7000:	97fff8f3 	bl	53cc <mbedtls_mpi_shift_r>
    7004:	2a0003f3 	mov	w19, w0
    7008:	35000200 	cbnz	w0, 7048 <mbedtls_mpi_gcd+0x154>
/home/xiang/rockpi4-android/optee_os/lib/libmbedtls/mbedtls/library/bignum.c:2400
    700c:	aa1403e1 	mov	x1, x20
    7010:	aa1503e0 	mov	x0, x21
    7014:	97fff949 	bl	5538 <mbedtls_mpi_cmp_mpi>
    7018:	37f802e0 	tbnz	w0, #31, 7074 <mbedtls_mpi_gcd+0x180>
/home/xiang/rockpi4-android/optee_os/lib/libmbedtls/mbedtls/library/bignum.c:2402
    701c:	aa1403e2 	mov	x2, x20
    7020:	aa1503e1 	mov	x1, x21
    7024:	aa1503e0 	mov	x0, x21
    7028:	97fff9df 	bl	57a4 <mbedtls_mpi_sub_abs>
    702c:	2a0003f3 	mov	w19, w0
    7030:	350000c0 	cbnz	w0, 7048 <mbedtls_mpi_gcd+0x154>
/home/xiang/rockpi4-android/optee_os/lib/libmbedtls/mbedtls/library/bignum.c:2403
    7034:	aa1503e0 	mov	x0, x21
    7038:	d2800021 	mov	x1, #0x1                   	// #1
/home/xiang/rockpi4-android/optee_os/lib/libmbedtls/mbedtls/library/bignum.c:2408
    703c:	97fff8e4 	bl	53cc <mbedtls_mpi_shift_r>
    7040:	2a0003f3 	mov	w19, w0
    7044:	34fffb00 	cbz	w0, 6fa4 <mbedtls_mpi_gcd+0xb0>
/home/xiang/rockpi4-android/optee_os/lib/libmbedtls/mbedtls/library/bignum.c:2427
    7048:	aa1503e0 	mov	x0, x21
    704c:	97fff675 	bl	4a20 <mbedtls_mpi_free>
    7050:	aa1403e0 	mov	x0, x20
    7054:	97fff673 	bl	4a20 <mbedtls_mpi_free>
/home/xiang/rockpi4-android/optee_os/lib/libmbedtls/mbedtls/library/bignum.c:2430
    7058:	2a1303e0 	mov	w0, w19
    705c:	f94023f9 	ldr	x25, [sp,#64]
    7060:	a94153f3 	ldp	x19, x20, [sp,#16]
    7064:	a9425bf5 	ldp	x21, x22, [sp,#32]
    7068:	a94363f7 	ldp	x23, x24, [sp,#48]
    706c:	a8c87bfd 	ldp	x29, x30, [sp],#128
    7070:	d65f03c0 	ret
/home/xiang/rockpi4-android/optee_os/lib/libmbedtls/mbedtls/library/bignum.c:2407
    7074:	aa1503e2 	mov	x2, x21
    7078:	aa1403e1 	mov	x1, x20
    707c:	aa1403e0 	mov	x0, x20
    7080:	97fff9c9 	bl	57a4 <mbedtls_mpi_sub_abs>
    7084:	2a0003f3 	mov	w19, w0
    7088:	35fffe00 	cbnz	w0, 7048 <mbedtls_mpi_gcd+0x154>
/home/xiang/rockpi4-android/optee_os/lib/libmbedtls/mbedtls/library/bignum.c:2408
    708c:	d2800021 	mov	x1, #0x1                   	// #1
    7090:	aa1403e0 	mov	x0, x20
    7094:	17ffffea 	b	703c <mbedtls_mpi_gcd+0x148>

0000000000007098 <mbedtls_mpi_fill_random>:
mbedtls_mpi_fill_random():
/home/xiang/rockpi4-android/optee_os/lib/libmbedtls/mbedtls/library/bignum.c:2469
    7098:	a9bd7bfd 	stp	x29, x30, [sp,#-48]!
/home/xiang/rockpi4-android/optee_os/lib/libmbedtls/mbedtls/library/bignum.c:2471
    709c:	f240043f 	tst	x1, #0x3
/home/xiang/rockpi4-android/optee_os/lib/libmbedtls/mbedtls/library/bignum.c:2469
    70a0:	910003fd 	mov	x29, sp
    70a4:	a90153f3 	stp	x19, x20, [sp,#16]
    70a8:	aa0103f3 	mov	x19, x1
/home/xiang/rockpi4-android/optee_os/lib/libmbedtls/mbedtls/library/bignum.c:2471
    70ac:	d342fc21 	lsr	x1, x1, #2
/home/xiang/rockpi4-android/optee_os/lib/libmbedtls/mbedtls/library/bignum.c:2469
    70b0:	a9025bf5 	stp	x21, x22, [sp,#32]
    70b4:	aa0003f4 	mov	x20, x0
    70b8:	aa0203f5 	mov	x21, x2
    70bc:	aa0303f6 	mov	x22, x3
/home/xiang/rockpi4-android/optee_os/lib/libmbedtls/mbedtls/library/bignum.c:2477
    70c0:	9a810421 	cinc	x1, x1, ne
    70c4:	97fff6af 	bl	4b80 <mbedtls_mpi_resize_clear>
    70c8:	35000140 	cbnz	w0, 70f0 <mbedtls_mpi_fill_random+0x58>
/home/xiang/rockpi4-android/optee_os/lib/libmbedtls/mbedtls/library/bignum.c:2478
    70cc:	b4000133 	cbz	x19, 70f0 <mbedtls_mpi_fill_random+0x58>
/home/xiang/rockpi4-android/optee_os/lib/libmbedtls/mbedtls/library/bignum.c:2481
    70d0:	aa1603e3 	mov	x3, x22
    70d4:	aa1503e2 	mov	x2, x21
    70d8:	aa1303e1 	mov	x1, x19
    70dc:	aa1403e0 	mov	x0, x20
/home/xiang/rockpi4-android/optee_os/lib/libmbedtls/mbedtls/library/bignum.c:2485
    70e0:	a9425bf5 	ldp	x21, x22, [sp,#32]
    70e4:	a94153f3 	ldp	x19, x20, [sp,#16]
    70e8:	a8c37bfd 	ldp	x29, x30, [sp],#48
/home/xiang/rockpi4-android/optee_os/lib/libmbedtls/mbedtls/library/bignum.c:2481
    70ec:	17fff5a7 	b	4788 <mpi_fill_random_internal>
/home/xiang/rockpi4-android/optee_os/lib/libmbedtls/mbedtls/library/bignum.c:2485
    70f0:	a94153f3 	ldp	x19, x20, [sp,#16]
    70f4:	a9425bf5 	ldp	x21, x22, [sp,#32]
    70f8:	a8c37bfd 	ldp	x29, x30, [sp],#48
    70fc:	d65f03c0 	ret

0000000000007100 <mpi_miller_rabin>:
mpi_miller_rabin():
/home/xiang/rockpi4-android/optee_os/lib/libmbedtls/mbedtls/library/bignum.c:2728
    7100:	a9b07bfd 	stp	x29, x30, [sp,#-256]!
    7104:	910003fd 	mov	x29, sp
    7108:	a9025bf5 	stp	x21, x22, [sp,#32]
/home/xiang/rockpi4-android/optee_os/lib/libmbedtls/mbedtls/library/bignum.c:2736
    710c:	910223b5 	add	x21, x29, #0x88
/home/xiang/rockpi4-android/optee_os/lib/libmbedtls/mbedtls/library/bignum.c:2728
    7110:	a90153f3 	stp	x19, x20, [sp,#16]
/home/xiang/rockpi4-android/optee_os/lib/libmbedtls/mbedtls/library/bignum.c:2736
    7114:	910283b6 	add	x22, x29, #0xa0
/home/xiang/rockpi4-android/optee_os/lib/libmbedtls/mbedtls/library/bignum.c:2728
    7118:	a9068ba3 	stp	x3, x2, [x29,#104]
/home/xiang/rockpi4-android/optee_os/lib/libmbedtls/mbedtls/library/bignum.c:2737
    711c:	910343b3 	add	x19, x29, #0xd0
/home/xiang/rockpi4-android/optee_os/lib/libmbedtls/mbedtls/library/bignum.c:2728
    7120:	f9003fa1 	str	x1, [x29,#120]
    7124:	a90363f7 	stp	x23, x24, [sp,#48]
    7128:	aa0003f8 	mov	x24, x0
    712c:	a9046bf9 	stp	x25, x26, [sp,#64]
/home/xiang/rockpi4-android/optee_os/lib/libmbedtls/mbedtls/library/bignum.c:2736
    7130:	aa1503e0 	mov	x0, x21
/home/xiang/rockpi4-android/optee_os/lib/libmbedtls/mbedtls/library/bignum.c:2728
    7134:	a90573fb 	stp	x27, x28, [sp,#80]
/home/xiang/rockpi4-android/optee_os/lib/libmbedtls/mbedtls/library/bignum.c:2736
    7138:	97fff630 	bl	49f8 <mbedtls_mpi_init_mempool>
    713c:	aa1603e0 	mov	x0, x22
/home/xiang/rockpi4-android/optee_os/lib/libmbedtls/mbedtls/library/bignum.c:2737
    7140:	9102e3b7 	add	x23, x29, #0xb8
/home/xiang/rockpi4-android/optee_os/lib/libmbedtls/mbedtls/library/bignum.c:2736
    7144:	97fff62d 	bl	49f8 <mbedtls_mpi_init_mempool>
/home/xiang/rockpi4-android/optee_os/lib/libmbedtls/mbedtls/library/bignum.c:2738
    7148:	9103a3b9 	add	x25, x29, #0xe8
/home/xiang/rockpi4-android/optee_os/lib/libmbedtls/mbedtls/library/bignum.c:2737
    714c:	aa1703e0 	mov	x0, x23
    7150:	97fff62a 	bl	49f8 <mbedtls_mpi_init_mempool>
    7154:	aa1303e0 	mov	x0, x19
    7158:	97fff628 	bl	49f8 <mbedtls_mpi_init_mempool>
/home/xiang/rockpi4-android/optee_os/lib/libmbedtls/mbedtls/library/bignum.c:2738
    715c:	aa1903e0 	mov	x0, x25
    7160:	97fff626 	bl	49f8 <mbedtls_mpi_init_mempool>
/home/xiang/rockpi4-android/optee_os/lib/libmbedtls/mbedtls/library/bignum.c:2744
    7164:	52800022 	mov	w2, #0x1                   	// #1
    7168:	aa1803e1 	mov	x1, x24
    716c:	aa1503e0 	mov	x0, x21
    7170:	97fffa3b 	bl	5a5c <mbedtls_mpi_sub_int>
    7174:	2a0003f4 	mov	w20, w0
    7178:	35000600 	cbnz	w0, 7238 <mpi_miller_rabin+0x138>
/home/xiang/rockpi4-android/optee_os/lib/libmbedtls/mbedtls/library/bignum.c:2745
    717c:	aa1503e0 	mov	x0, x21
    7180:	97fff780 	bl	4f80 <mbedtls_mpi_lsb>
/home/xiang/rockpi4-android/optee_os/lib/libmbedtls/mbedtls/library/bignum.c:2746
    7184:	aa1503e1 	mov	x1, x21
/home/xiang/rockpi4-android/optee_os/lib/libmbedtls/mbedtls/library/bignum.c:2745
    7188:	aa0003fc 	mov	x28, x0
/home/xiang/rockpi4-android/optee_os/lib/libmbedtls/mbedtls/library/bignum.c:2746
    718c:	aa1603e0 	mov	x0, x22
    7190:	97fff6e2 	bl	4d18 <mbedtls_mpi_copy>
    7194:	2a0003f4 	mov	w20, w0
    7198:	35000500 	cbnz	w0, 7238 <mpi_miller_rabin+0x138>
/home/xiang/rockpi4-android/optee_os/lib/libmbedtls/mbedtls/library/bignum.c:2747
    719c:	aa1c03e1 	mov	x1, x28
    71a0:	aa1603e0 	mov	x0, x22
    71a4:	97fff88a 	bl	53cc <mbedtls_mpi_shift_r>
    71a8:	2a0003f4 	mov	w20, w0
    71ac:	35000460 	cbnz	w0, 7238 <mpi_miller_rabin+0x138>
    71b0:	d280001b 	mov	x27, #0x0                   	// #0
/home/xiang/rockpi4-android/optee_os/lib/libmbedtls/mbedtls/library/bignum.c:2749 (discriminator 1)
    71b4:	f9403fa0 	ldr	x0, [x29,#120]
    71b8:	eb00037f 	cmp	x27, x0
    71bc:	540003e0 	b.eq	7238 <mpi_miller_rabin+0x138>
    71c0:	528025da 	mov	w26, #0x12e                 	// #302
/home/xiang/rockpi4-android/optee_os/lib/libmbedtls/mbedtls/library/bignum.c:2756
    71c4:	a9468ba3 	ldp	x3, x2, [x29,#104]
    71c8:	aa1303e0 	mov	x0, x19
    71cc:	f9400701 	ldr	x1, [x24,#8]
    71d0:	d37ef421 	lsl	x1, x1, #2
    71d4:	97ffffb1 	bl	7098 <mbedtls_mpi_fill_random>
    71d8:	35000c80 	cbnz	w0, 7368 <mpi_miller_rabin+0x268>
/home/xiang/rockpi4-android/optee_os/lib/libmbedtls/mbedtls/library/bignum.c:2758
    71dc:	aa1303e0 	mov	x0, x19
    71e0:	97fff77d 	bl	4fd4 <mbedtls_mpi_bitlen>
    71e4:	aa0003e1 	mov	x1, x0
/home/xiang/rockpi4-android/optee_os/lib/libmbedtls/mbedtls/library/bignum.c:2759
    71e8:	aa1503e0 	mov	x0, x21
/home/xiang/rockpi4-android/optee_os/lib/libmbedtls/mbedtls/library/bignum.c:2758
    71ec:	f90033a1 	str	x1, [x29,#96]
/home/xiang/rockpi4-android/optee_os/lib/libmbedtls/mbedtls/library/bignum.c:2759
    71f0:	97fff779 	bl	4fd4 <mbedtls_mpi_bitlen>
/home/xiang/rockpi4-android/optee_os/lib/libmbedtls/mbedtls/library/bignum.c:2760
    71f4:	f94033a1 	ldr	x1, [x29,#96]
    71f8:	eb00003f 	cmp	x1, x0
    71fc:	54000189 	b.ls	722c <mpi_miller_rabin+0x12c>
/home/xiang/rockpi4-android/optee_os/lib/libmbedtls/mbedtls/library/bignum.c:2761
    7200:	a94d8fa1 	ldp	x1, x3, [x29,#216]
    7204:	128003e4 	mov	w4, #0xffffffe0            	// #-32
    7208:	d37ef422 	lsl	x2, x1, #2
    720c:	1b010081 	madd	w1, w4, w1, w0
    7210:	d1001042 	sub	x2, x2, #0x4
    7214:	12800000 	mov	w0, #0xffffffff            	// #-1
    7218:	11007c21 	add	w1, w1, #0x1f
    721c:	1ac12001 	lsl	w1, w0, w1
    7220:	b8626860 	ldr	w0, [x3,x2]
    7224:	0a210001 	bic	w1, w0, w1
    7228:	b8226861 	str	w1, [x3,x2]
/home/xiang/rockpi4-android/optee_os/lib/libmbedtls/mbedtls/library/bignum.c:2764
    722c:	7100075a 	subs	w26, w26, #0x1
    7230:	54000281 	b.ne	7280 <mpi_miller_rabin+0x180>
/home/xiang/rockpi4-android/optee_os/lib/libmbedtls/mbedtls/library/bignum.c:2765
    7234:	128001b4 	mov	w20, #0xfffffff2            	// #-14
/home/xiang/rockpi4-android/optee_os/lib/libmbedtls/mbedtls/library/bignum.c:2808
    7238:	aa1503e0 	mov	x0, x21
    723c:	97fff5f9 	bl	4a20 <mbedtls_mpi_free>
    7240:	aa1603e0 	mov	x0, x22
    7244:	97fff5f7 	bl	4a20 <mbedtls_mpi_free>
/home/xiang/rockpi4-android/optee_os/lib/libmbedtls/mbedtls/library/bignum.c:2809
    7248:	aa1703e0 	mov	x0, x23
    724c:	97fff5f5 	bl	4a20 <mbedtls_mpi_free>
    7250:	aa1303e0 	mov	x0, x19
    7254:	97fff5f3 	bl	4a20 <mbedtls_mpi_free>
/home/xiang/rockpi4-android/optee_os/lib/libmbedtls/mbedtls/library/bignum.c:2810
    7258:	aa1903e0 	mov	x0, x25
    725c:	97fff5f1 	bl	4a20 <mbedtls_mpi_free>
/home/xiang/rockpi4-android/optee_os/lib/libmbedtls/mbedtls/library/bignum.c:2813
    7260:	2a1403e0 	mov	w0, w20
    7264:	a94153f3 	ldp	x19, x20, [sp,#16]
    7268:	a9425bf5 	ldp	x21, x22, [sp,#32]
    726c:	a94363f7 	ldp	x23, x24, [sp,#48]
    7270:	a9446bf9 	ldp	x25, x26, [sp,#64]
    7274:	a94573fb 	ldp	x27, x28, [sp,#80]
    7278:	a8d07bfd 	ldp	x29, x30, [sp],#256
    727c:	d65f03c0 	ret
/home/xiang/rockpi4-android/optee_os/lib/libmbedtls/mbedtls/library/bignum.c:2769
    7280:	aa1503e1 	mov	x1, x21
    7284:	aa1303e0 	mov	x0, x19
    7288:	97fff8ac 	bl	5538 <mbedtls_mpi_cmp_mpi>
/home/xiang/rockpi4-android/optee_os/lib/libmbedtls/mbedtls/library/bignum.c:2770
    728c:	36fff9c0 	tbz	w0, #31, 71c4 <mpi_miller_rabin+0xc4>
/home/xiang/rockpi4-android/optee_os/lib/libmbedtls/mbedtls/library/bignum.c:2770 (discriminator 1)
    7290:	52800021 	mov	w1, #0x1                   	// #1
    7294:	aa1303e0 	mov	x0, x19
    7298:	97fff8e4 	bl	5628 <mbedtls_mpi_cmp_int>
/home/xiang/rockpi4-android/optee_os/lib/libmbedtls/mbedtls/library/bignum.c:2769 (discriminator 1)
    729c:	7100001f 	cmp	w0, #0x0
    72a0:	54fff92d 	b.le	71c4 <mpi_miller_rabin+0xc4>
/home/xiang/rockpi4-android/optee_os/lib/libmbedtls/mbedtls/library/bignum.c:2775
    72a4:	aa1903e4 	mov	x4, x25
    72a8:	aa1803e3 	mov	x3, x24
    72ac:	aa1603e2 	mov	x2, x22
    72b0:	aa1303e1 	mov	x1, x19
    72b4:	aa1303e0 	mov	x0, x19
    72b8:	97fffd6c 	bl	6868 <mbedtls_mpi_exp_mod>
    72bc:	35000560 	cbnz	w0, 7368 <mpi_miller_rabin+0x268>
/home/xiang/rockpi4-android/optee_os/lib/libmbedtls/mbedtls/library/bignum.c:2777
    72c0:	aa1503e1 	mov	x1, x21
    72c4:	aa1303e0 	mov	x0, x19
    72c8:	97fff89c 	bl	5538 <mbedtls_mpi_cmp_mpi>
    72cc:	35000060 	cbnz	w0, 72d8 <mpi_miller_rabin+0x1d8>
/home/xiang/rockpi4-android/optee_os/lib/libmbedtls/mbedtls/library/bignum.c:2749
    72d0:	9100077b 	add	x27, x27, #0x1
    72d4:	17ffffb8 	b	71b4 <mpi_miller_rabin+0xb4>
/home/xiang/rockpi4-android/optee_os/lib/libmbedtls/mbedtls/library/bignum.c:2778 (discriminator 1)
    72d8:	52800021 	mov	w1, #0x1                   	// #1
    72dc:	aa1303e0 	mov	x0, x19
    72e0:	97fff8d2 	bl	5628 <mbedtls_mpi_cmp_int>
/home/xiang/rockpi4-android/optee_os/lib/libmbedtls/mbedtls/library/bignum.c:2777 (discriminator 1)
    72e4:	34ffff60 	cbz	w0, 72d0 <mpi_miller_rabin+0x1d0>
    72e8:	d280003a 	mov	x26, #0x1                   	// #1
/home/xiang/rockpi4-android/optee_os/lib/libmbedtls/mbedtls/library/bignum.c:2782
    72ec:	eb1c035f 	cmp	x26, x28
    72f0:	54000262 	b.cs	733c <mpi_miller_rabin+0x23c>
/home/xiang/rockpi4-android/optee_os/lib/libmbedtls/mbedtls/library/bignum.c:2782 (discriminator 1)
    72f4:	aa1503e1 	mov	x1, x21
    72f8:	aa1303e0 	mov	x0, x19
    72fc:	97fff88f 	bl	5538 <mbedtls_mpi_cmp_mpi>
    7300:	340001e0 	cbz	w0, 733c <mpi_miller_rabin+0x23c>
/home/xiang/rockpi4-android/optee_os/lib/libmbedtls/mbedtls/library/bignum.c:2787
    7304:	aa1303e2 	mov	x2, x19
    7308:	aa1303e1 	mov	x1, x19
    730c:	aa1703e0 	mov	x0, x23
    7310:	97fff9e3 	bl	5a9c <mbedtls_mpi_mul_mpi>
    7314:	350002a0 	cbnz	w0, 7368 <mpi_miller_rabin+0x268>
/home/xiang/rockpi4-android/optee_os/lib/libmbedtls/mbedtls/library/bignum.c:2788
    7318:	aa1803e2 	mov	x2, x24
    731c:	aa1703e1 	mov	x1, x23
    7320:	aa1303e0 	mov	x0, x19
    7324:	97fffc38 	bl	6404 <mbedtls_mpi_mod_mpi>
    7328:	35000200 	cbnz	w0, 7368 <mpi_miller_rabin+0x268>
/home/xiang/rockpi4-android/optee_os/lib/libmbedtls/mbedtls/library/bignum.c:2790
    732c:	52800021 	mov	w1, #0x1                   	// #1
    7330:	aa1303e0 	mov	x0, x19
    7334:	97fff8bd 	bl	5628 <mbedtls_mpi_cmp_int>
    7338:	35000140 	cbnz	w0, 7360 <mpi_miller_rabin+0x260>
/home/xiang/rockpi4-android/optee_os/lib/libmbedtls/mbedtls/library/bignum.c:2799
    733c:	aa1503e1 	mov	x1, x21
    7340:	aa1303e0 	mov	x0, x19
    7344:	97fff87d 	bl	5538 <mbedtls_mpi_cmp_mpi>
    7348:	35fff760 	cbnz	w0, 7234 <mpi_miller_rabin+0x134>
/home/xiang/rockpi4-android/optee_os/lib/libmbedtls/mbedtls/library/bignum.c:2800 (discriminator 1)
    734c:	52800021 	mov	w1, #0x1                   	// #1
    7350:	aa1303e0 	mov	x0, x19
    7354:	97fff8b5 	bl	5628 <mbedtls_mpi_cmp_int>
/home/xiang/rockpi4-android/optee_os/lib/libmbedtls/mbedtls/library/bignum.c:2799 (discriminator 1)
    7358:	35fffbc0 	cbnz	w0, 72d0 <mpi_miller_rabin+0x1d0>
    735c:	17ffffb6 	b	7234 <mpi_miller_rabin+0x134>
/home/xiang/rockpi4-android/optee_os/lib/libmbedtls/mbedtls/library/bignum.c:2793
    7360:	9100075a 	add	x26, x26, #0x1
    7364:	17ffffe2 	b	72ec <mpi_miller_rabin+0x1ec>
/home/xiang/rockpi4-android/optee_os/lib/libmbedtls/mbedtls/library/bignum.c:2788
    7368:	2a0003f4 	mov	w20, w0
    736c:	17ffffb3 	b	7238 <mpi_miller_rabin+0x138>

0000000000007370 <mbedtls_mpi_random>:
mbedtls_mpi_random():
/home/xiang/rockpi4-android/optee_os/lib/libmbedtls/mbedtls/library/bignum.c:2492
    7370:	a9b77bfd 	stp	x29, x30, [sp,#-144]!
    7374:	910003fd 	mov	x29, sp
    7378:	a9025bf5 	stp	x21, x22, [sp,#32]
    737c:	aa0003f6 	mov	x22, x0
/home/xiang/rockpi4-android/optee_os/lib/libmbedtls/mbedtls/library/bignum.c:2495
    7380:	52800020 	mov	w0, #0x1                   	// #1
/home/xiang/rockpi4-android/optee_os/lib/libmbedtls/mbedtls/library/bignum.c:2492
    7384:	a90363f7 	stp	x23, x24, [sp,#48]
    7388:	a9046bf9 	stp	x25, x26, [sp,#64]
    738c:	2a0103f8 	mov	w24, w1
    7390:	a90573fb 	stp	x27, x28, [sp,#80]
    7394:	aa0203f7 	mov	x23, x2
    7398:	a90153f3 	stp	x19, x20, [sp,#16]
    739c:	aa0303fa 	mov	x26, x3
/home/xiang/rockpi4-android/optee_os/lib/libmbedtls/mbedtls/library/bignum.c:2495
    73a0:	290e7fa0 	stp	w0, wzr, [x29,#112]
/home/xiang/rockpi4-android/optee_os/lib/libmbedtls/mbedtls/library/bignum.c:2492
    73a4:	aa0403fb 	mov	x27, x4
/home/xiang/rockpi4-android/optee_os/lib/libmbedtls/mbedtls/library/bignum.c:2496
    73a8:	aa0203e0 	mov	x0, x2
    73ac:	97fff70a 	bl	4fd4 <mbedtls_mpi_bitlen>
/home/xiang/rockpi4-android/optee_os/lib/libmbedtls/mbedtls/library/bignum.c:2500
    73b0:	36f80158 	tbz	w24, #31, 73d8 <mbedtls_mpi_random+0x68>
/home/xiang/rockpi4-android/optee_os/lib/libmbedtls/mbedtls/library/bignum.c:2501
    73b4:	12800061 	mov	w1, #0xfffffffc            	// #-4
/home/xiang/rockpi4-android/optee_os/lib/libmbedtls/mbedtls/library/bignum.c:2560
    73b8:	a94153f3 	ldp	x19, x20, [sp,#16]
    73bc:	2a0103e0 	mov	w0, w1
    73c0:	a9425bf5 	ldp	x21, x22, [sp,#32]
    73c4:	a94363f7 	ldp	x23, x24, [sp,#48]
    73c8:	a9446bf9 	ldp	x25, x26, [sp,#64]
    73cc:	a94573fb 	ldp	x27, x28, [sp,#80]
    73d0:	a8c97bfd 	ldp	x29, x30, [sp],#144
    73d4:	d65f03c0 	ret
    73d8:	aa0003fc 	mov	x28, x0
    73dc:	91001c13 	add	x19, x0, #0x7
/home/xiang/rockpi4-android/optee_os/lib/libmbedtls/mbedtls/library/bignum.c:2502
    73e0:	2a1803e1 	mov	w1, w24
    73e4:	aa1703e0 	mov	x0, x23
    73e8:	97fff890 	bl	5628 <mbedtls_mpi_cmp_int>
    73ec:	7100001f 	cmp	w0, #0x0
    73f0:	54fffe2d 	b.le	73b4 <mbedtls_mpi_random+0x44>
    73f4:	d343fe79 	lsr	x25, x19, #3
/home/xiang/rockpi4-android/optee_os/lib/libmbedtls/mbedtls/library/bignum.c:2522
    73f8:	528003c0 	mov	w0, #0x1e                  	// #30
    73fc:	f100173f 	cmp	x25, #0x5
/home/xiang/rockpi4-android/optee_os/lib/libmbedtls/mbedtls/library/bignum.c:2524
    7400:	9101e3b4 	add	x20, x29, #0x78
/home/xiang/rockpi4-android/optee_os/lib/libmbedtls/mbedtls/library/bignum.c:2522
    7404:	52801f55 	mov	w21, #0xfa                  	// #250
    7408:	1a8032b5 	csel	w21, w21, w0, cc
/home/xiang/rockpi4-android/optee_os/lib/libmbedtls/mbedtls/library/bignum.c:2524
    740c:	aa1403e0 	mov	x0, x20
    7410:	97fff575 	bl	49e4 <mbedtls_mpi_init>
/home/xiang/rockpi4-android/optee_os/lib/libmbedtls/mbedtls/library/bignum.c:2529
    7414:	f94006e1 	ldr	x1, [x23,#8]
    7418:	aa1603e0 	mov	x0, x22
    741c:	97fff5d9 	bl	4b80 <mbedtls_mpi_resize_clear>
    7420:	2a0003e1 	mov	w1, w0
    7424:	350005a0 	cbnz	w0, 74d8 <mbedtls_mpi_random+0x168>
/home/xiang/rockpi4-android/optee_os/lib/libmbedtls/mbedtls/library/bignum.c:2530
    7428:	f94006e1 	ldr	x1, [x23,#8]
    742c:	aa1403e0 	mov	x0, x20
    7430:	97fff597 	bl	4a8c <mbedtls_mpi_grow>
    7434:	2a0003e1 	mov	w1, w0
    7438:	35000500 	cbnz	w0, 74d8 <mbedtls_mpi_random+0x168>
/home/xiang/rockpi4-android/optee_os/lib/libmbedtls/mbedtls/library/bignum.c:2531
    743c:	2a1803e1 	mov	w1, w24
    7440:	aa1403e0 	mov	x0, x20
    7444:	97fff686 	bl	4e5c <mbedtls_mpi_lset>
    7448:	2a0003e1 	mov	w1, w0
    744c:	35000460 	cbnz	w0, 74d8 <mbedtls_mpi_random+0x168>
/home/xiang/rockpi4-android/optee_os/lib/libmbedtls/mbedtls/library/bignum.c:2544
    7450:	927df273 	and	x19, x19, #0xfffffffffffffff8
/home/xiang/rockpi4-android/optee_os/lib/libmbedtls/mbedtls/library/bignum.c:2552
    7454:	9101c3b8 	add	x24, x29, #0x70
/home/xiang/rockpi4-android/optee_os/lib/libmbedtls/mbedtls/library/bignum.c:2544
    7458:	cb1c0273 	sub	x19, x19, x28
/home/xiang/rockpi4-android/optee_os/lib/libmbedtls/mbedtls/library/bignum.c:2553
    745c:	9101d3bc 	add	x28, x29, #0x74
/home/xiang/rockpi4-android/optee_os/lib/libmbedtls/mbedtls/library/bignum.c:2543
    7460:	aa1903e1 	mov	x1, x25
    7464:	aa1b03e3 	mov	x3, x27
    7468:	aa1a03e2 	mov	x2, x26
    746c:	aa1603e0 	mov	x0, x22
    7470:	97fff4c6 	bl	4788 <mpi_fill_random_internal>
    7474:	2a0003e1 	mov	w1, w0
    7478:	35000300 	cbnz	w0, 74d8 <mbedtls_mpi_random+0x168>
/home/xiang/rockpi4-android/optee_os/lib/libmbedtls/mbedtls/library/bignum.c:2544
    747c:	aa1303e1 	mov	x1, x19
    7480:	aa1603e0 	mov	x0, x22
    7484:	97fff7d2 	bl	53cc <mbedtls_mpi_shift_r>
    7488:	2a0003e1 	mov	w1, w0
    748c:	35000260 	cbnz	w0, 74d8 <mbedtls_mpi_random+0x168>
/home/xiang/rockpi4-android/optee_os/lib/libmbedtls/mbedtls/library/bignum.c:2546
    7490:	710006b5 	subs	w21, w21, #0x1
    7494:	540002c0 	b.eq	74ec <mbedtls_mpi_random+0x17c>
/home/xiang/rockpi4-android/optee_os/lib/libmbedtls/mbedtls/library/bignum.c:2552
    7498:	aa1403e1 	mov	x1, x20
    749c:	aa1803e2 	mov	x2, x24
    74a0:	aa1603e0 	mov	x0, x22
    74a4:	9400042c 	bl	8554 <mbedtls_mpi_lt_mpi_ct>
    74a8:	2a0003e1 	mov	w1, w0
    74ac:	35000160 	cbnz	w0, 74d8 <mbedtls_mpi_random+0x168>
/home/xiang/rockpi4-android/optee_os/lib/libmbedtls/mbedtls/library/bignum.c:2553
    74b0:	aa1703e1 	mov	x1, x23
    74b4:	aa1c03e2 	mov	x2, x28
    74b8:	aa1603e0 	mov	x0, x22
    74bc:	94000426 	bl	8554 <mbedtls_mpi_lt_mpi_ct>
    74c0:	2a0003e1 	mov	w1, w0
    74c4:	350000a0 	cbnz	w0, 74d8 <mbedtls_mpi_random+0x168>
/home/xiang/rockpi4-android/optee_os/lib/libmbedtls/mbedtls/library/bignum.c:2555
    74c8:	b94073a0 	ldr	w0, [x29,#112]
    74cc:	35fffca0 	cbnz	w0, 7460 <mbedtls_mpi_random+0xf0>
/home/xiang/rockpi4-android/optee_os/lib/libmbedtls/mbedtls/library/bignum.c:2555 (discriminator 1)
    74d0:	b94077a0 	ldr	w0, [x29,#116]
    74d4:	34fffc60 	cbz	w0, 7460 <mbedtls_mpi_random+0xf0>
    74d8:	b9006fa1 	str	w1, [x29,#108]
/home/xiang/rockpi4-android/optee_os/lib/libmbedtls/mbedtls/library/bignum.c:2558
    74dc:	aa1403e0 	mov	x0, x20
    74e0:	97fff550 	bl	4a20 <mbedtls_mpi_free>
    74e4:	b9406fa1 	ldr	w1, [x29,#108]
/home/xiang/rockpi4-android/optee_os/lib/libmbedtls/mbedtls/library/bignum.c:2559
    74e8:	17ffffb4 	b	73b8 <mbedtls_mpi_random+0x48>
/home/xiang/rockpi4-android/optee_os/lib/libmbedtls/mbedtls/library/bignum.c:2548
    74ec:	128001a1 	mov	w1, #0xfffffff2            	// #-14
    74f0:	17fffffa 	b	74d8 <mbedtls_mpi_random+0x168>

00000000000074f4 <mbedtls_mpi_inv_mod>:
mbedtls_mpi_inv_mod():
/home/xiang/rockpi4-android/optee_os/lib/libmbedtls/mbedtls/library/bignum.c:2566
    74f4:	a9ab7bfd 	stp	x29, x30, [sp,#-336]!
    74f8:	910003fd 	mov	x29, sp
    74fc:	a9046bf9 	stp	x25, x26, [sp,#64]
    7500:	aa0203f9 	mov	x25, x2
    7504:	a90153f3 	stp	x19, x20, [sp,#16]
    7508:	a90607a0 	stp	x0, x1, [x29,#96]
/home/xiang/rockpi4-android/optee_os/lib/libmbedtls/mbedtls/library/bignum.c:2573
    750c:	52800021 	mov	w1, #0x1                   	// #1
/home/xiang/rockpi4-android/optee_os/lib/libmbedtls/mbedtls/library/bignum.c:2566
    7510:	a9025bf5 	stp	x21, x22, [sp,#32]
/home/xiang/rockpi4-android/optee_os/lib/libmbedtls/mbedtls/library/bignum.c:2573
    7514:	aa0203e0 	mov	x0, x2
/home/xiang/rockpi4-android/optee_os/lib/libmbedtls/mbedtls/library/bignum.c:2566
    7518:	a90363f7 	stp	x23, x24, [sp,#48]
    751c:	a90573fb 	stp	x27, x28, [sp,#80]
/home/xiang/rockpi4-android/optee_os/lib/libmbedtls/mbedtls/library/bignum.c:2573
    7520:	97fff842 	bl	5628 <mbedtls_mpi_cmp_int>
    7524:	7100001f 	cmp	w0, #0x0
    7528:	54001f2d 	b.le	790c <mbedtls_mpi_inv_mod+0x418>
/home/xiang/rockpi4-android/optee_os/lib/libmbedtls/mbedtls/library/bignum.c:2576
    752c:	910243ba 	add	x26, x29, #0x90
    7530:	9102a3b7 	add	x23, x29, #0xa8
    7534:	aa1a03e0 	mov	x0, x26
    7538:	97fff530 	bl	49f8 <mbedtls_mpi_init_mempool>
    753c:	aa1703e0 	mov	x0, x23
/home/xiang/rockpi4-android/optee_os/lib/libmbedtls/mbedtls/library/bignum.c:2577
    7540:	910303b6 	add	x22, x29, #0xc0
/home/xiang/rockpi4-android/optee_os/lib/libmbedtls/mbedtls/library/bignum.c:2576
    7544:	97fff52d 	bl	49f8 <mbedtls_mpi_init_mempool>
/home/xiang/rockpi4-android/optee_os/lib/libmbedtls/mbedtls/library/bignum.c:2577
    7548:	910363b5 	add	x21, x29, #0xd8
    754c:	aa1603e0 	mov	x0, x22
    7550:	97fff52a 	bl	49f8 <mbedtls_mpi_init_mempool>
    7554:	aa1503e0 	mov	x0, x21
/home/xiang/rockpi4-android/optee_os/lib/libmbedtls/mbedtls/library/bignum.c:2578
    7558:	9101e3bc 	add	x28, x29, #0x78
/home/xiang/rockpi4-android/optee_os/lib/libmbedtls/mbedtls/library/bignum.c:2577
    755c:	97fff527 	bl	49f8 <mbedtls_mpi_init_mempool>
/home/xiang/rockpi4-android/optee_os/lib/libmbedtls/mbedtls/library/bignum.c:2578
    7560:	9103c3bb 	add	x27, x29, #0xf0
    7564:	aa1c03e0 	mov	x0, x28
    7568:	97fff524 	bl	49f8 <mbedtls_mpi_init_mempool>
    756c:	aa1b03e0 	mov	x0, x27
/home/xiang/rockpi4-android/optee_os/lib/libmbedtls/mbedtls/library/bignum.c:2579
    7570:	910423b8 	add	x24, x29, #0x108
/home/xiang/rockpi4-android/optee_os/lib/libmbedtls/mbedtls/library/bignum.c:2578
    7574:	97fff521 	bl	49f8 <mbedtls_mpi_init_mempool>
/home/xiang/rockpi4-android/optee_os/lib/libmbedtls/mbedtls/library/bignum.c:2579
    7578:	910483b3 	add	x19, x29, #0x120
    757c:	aa1803e0 	mov	x0, x24
    7580:	97fff51e 	bl	49f8 <mbedtls_mpi_init_mempool>
    7584:	aa1303e0 	mov	x0, x19
/home/xiang/rockpi4-android/optee_os/lib/libmbedtls/mbedtls/library/bignum.c:2580
    7588:	9104e3b4 	add	x20, x29, #0x138
/home/xiang/rockpi4-android/optee_os/lib/libmbedtls/mbedtls/library/bignum.c:2579
    758c:	97fff51b 	bl	49f8 <mbedtls_mpi_init_mempool>
/home/xiang/rockpi4-android/optee_os/lib/libmbedtls/mbedtls/library/bignum.c:2580
    7590:	aa1403e0 	mov	x0, x20
    7594:	97fff519 	bl	49f8 <mbedtls_mpi_init_mempool>
/home/xiang/rockpi4-android/optee_os/lib/libmbedtls/mbedtls/library/bignum.c:2582
    7598:	f94037a1 	ldr	x1, [x29,#104]
    759c:	aa1903e2 	mov	x2, x25
    75a0:	aa1c03e0 	mov	x0, x28
    75a4:	97fffe54 	bl	6ef4 <mbedtls_mpi_gcd>
    75a8:	2a0003e1 	mov	w1, w0
    75ac:	350007e0 	cbnz	w0, 76a8 <mbedtls_mpi_inv_mod+0x1b4>
/home/xiang/rockpi4-android/optee_os/lib/libmbedtls/mbedtls/library/bignum.c:2584
    75b0:	52800021 	mov	w1, #0x1                   	// #1
    75b4:	aa1c03e0 	mov	x0, x28
    75b8:	97fff81c 	bl	5628 <mbedtls_mpi_cmp_int>
    75bc:	35001a40 	cbnz	w0, 7904 <mbedtls_mpi_inv_mod+0x410>
/home/xiang/rockpi4-android/optee_os/lib/libmbedtls/mbedtls/library/bignum.c:2590
    75c0:	f94037a1 	ldr	x1, [x29,#104]
    75c4:	aa1903e2 	mov	x2, x25
    75c8:	aa1a03e0 	mov	x0, x26
    75cc:	97fffb8e 	bl	6404 <mbedtls_mpi_mod_mpi>
    75d0:	2a0003e1 	mov	w1, w0
    75d4:	350006a0 	cbnz	w0, 76a8 <mbedtls_mpi_inv_mod+0x1b4>
/home/xiang/rockpi4-android/optee_os/lib/libmbedtls/mbedtls/library/bignum.c:2591
    75d8:	aa1a03e1 	mov	x1, x26
    75dc:	aa1703e0 	mov	x0, x23
    75e0:	97fff5ce 	bl	4d18 <mbedtls_mpi_copy>
    75e4:	2a0003e1 	mov	w1, w0
    75e8:	35000600 	cbnz	w0, 76a8 <mbedtls_mpi_inv_mod+0x1b4>
/home/xiang/rockpi4-android/optee_os/lib/libmbedtls/mbedtls/library/bignum.c:2592
    75ec:	aa1903e1 	mov	x1, x25
    75f0:	aa1b03e0 	mov	x0, x27
    75f4:	97fff5c9 	bl	4d18 <mbedtls_mpi_copy>
    75f8:	2a0003e1 	mov	w1, w0
    75fc:	35000560 	cbnz	w0, 76a8 <mbedtls_mpi_inv_mod+0x1b4>
/home/xiang/rockpi4-android/optee_os/lib/libmbedtls/mbedtls/library/bignum.c:2593
    7600:	aa1903e1 	mov	x1, x25
    7604:	aa1803e0 	mov	x0, x24
    7608:	97fff5c4 	bl	4d18 <mbedtls_mpi_copy>
    760c:	2a0003e1 	mov	w1, w0
    7610:	350004c0 	cbnz	w0, 76a8 <mbedtls_mpi_inv_mod+0x1b4>
/home/xiang/rockpi4-android/optee_os/lib/libmbedtls/mbedtls/library/bignum.c:2595
    7614:	52800021 	mov	w1, #0x1                   	// #1
    7618:	aa1603e0 	mov	x0, x22
    761c:	97fff610 	bl	4e5c <mbedtls_mpi_lset>
    7620:	2a0003e1 	mov	w1, w0
    7624:	35000420 	cbnz	w0, 76a8 <mbedtls_mpi_inv_mod+0x1b4>
/home/xiang/rockpi4-android/optee_os/lib/libmbedtls/mbedtls/library/bignum.c:2596
    7628:	aa1503e0 	mov	x0, x21
    762c:	97fff60c 	bl	4e5c <mbedtls_mpi_lset>
    7630:	2a0003e1 	mov	w1, w0
    7634:	350003a0 	cbnz	w0, 76a8 <mbedtls_mpi_inv_mod+0x1b4>
/home/xiang/rockpi4-android/optee_os/lib/libmbedtls/mbedtls/library/bignum.c:2597
    7638:	aa1303e0 	mov	x0, x19
    763c:	97fff608 	bl	4e5c <mbedtls_mpi_lset>
    7640:	2a0003e1 	mov	w1, w0
    7644:	35000320 	cbnz	w0, 76a8 <mbedtls_mpi_inv_mod+0x1b4>
/home/xiang/rockpi4-android/optee_os/lib/libmbedtls/mbedtls/library/bignum.c:2598
    7648:	52800021 	mov	w1, #0x1                   	// #1
    764c:	aa1403e0 	mov	x0, x20
    7650:	97fff603 	bl	4e5c <mbedtls_mpi_lset>
/home/xiang/rockpi4-android/optee_os/lib/libmbedtls/mbedtls/library/bignum.c:2613
    7654:	2a0003e1 	mov	w1, w0
    7658:	35000280 	cbnz	w0, 76a8 <mbedtls_mpi_inv_mod+0x1b4>
/home/xiang/rockpi4-android/optee_os/lib/libmbedtls/mbedtls/library/bignum.c:2602
    765c:	f9405fa0 	ldr	x0, [x29,#184]
    7660:	b9400000 	ldr	w0, [x0]
    7664:	37000a60 	tbnz	w0, #0, 77b0 <mbedtls_mpi_inv_mod+0x2bc>
/home/xiang/rockpi4-android/optee_os/lib/libmbedtls/mbedtls/library/bignum.c:2604
    7668:	d2800021 	mov	x1, #0x1                   	// #1
    766c:	aa1703e0 	mov	x0, x23
    7670:	97fff757 	bl	53cc <mbedtls_mpi_shift_r>
    7674:	2a0003e1 	mov	w1, w0
    7678:	35000180 	cbnz	w0, 76a8 <mbedtls_mpi_inv_mod+0x1b4>
/home/xiang/rockpi4-android/optee_os/lib/libmbedtls/mbedtls/library/bignum.c:2606
    767c:	f9406ba0 	ldr	x0, [x29,#208]
    7680:	b9400000 	ldr	w0, [x0]
    7684:	370004a0 	tbnz	w0, #0, 7718 <mbedtls_mpi_inv_mod+0x224>
/home/xiang/rockpi4-android/optee_os/lib/libmbedtls/mbedtls/library/bignum.c:2606 (discriminator 1)
    7688:	f94077a0 	ldr	x0, [x29,#232]
    768c:	b9400000 	ldr	w0, [x0]
    7690:	37000440 	tbnz	w0, #0, 7718 <mbedtls_mpi_inv_mod+0x224>
/home/xiang/rockpi4-android/optee_os/lib/libmbedtls/mbedtls/library/bignum.c:2612
    7694:	d2800021 	mov	x1, #0x1                   	// #1
    7698:	aa1603e0 	mov	x0, x22
    769c:	97fff74c 	bl	53cc <mbedtls_mpi_shift_r>
    76a0:	2a0003e1 	mov	w1, w0
    76a4:	34000540 	cbz	w0, 774c <mbedtls_mpi_inv_mod+0x258>
    76a8:	b9006ba1 	str	w1, [x29,#104]
/home/xiang/rockpi4-android/optee_os/lib/libmbedtls/mbedtls/library/bignum.c:2655
    76ac:	aa1a03e0 	mov	x0, x26
    76b0:	97fff4dc 	bl	4a20 <mbedtls_mpi_free>
    76b4:	aa1703e0 	mov	x0, x23
    76b8:	97fff4da 	bl	4a20 <mbedtls_mpi_free>
    76bc:	aa1603e0 	mov	x0, x22
    76c0:	97fff4d8 	bl	4a20 <mbedtls_mpi_free>
    76c4:	aa1503e0 	mov	x0, x21
    76c8:	97fff4d6 	bl	4a20 <mbedtls_mpi_free>
/home/xiang/rockpi4-android/optee_os/lib/libmbedtls/mbedtls/library/bignum.c:2656
    76cc:	aa1c03e0 	mov	x0, x28
    76d0:	97fff4d4 	bl	4a20 <mbedtls_mpi_free>
    76d4:	aa1b03e0 	mov	x0, x27
    76d8:	97fff4d2 	bl	4a20 <mbedtls_mpi_free>
    76dc:	aa1803e0 	mov	x0, x24
    76e0:	97fff4d0 	bl	4a20 <mbedtls_mpi_free>
/home/xiang/rockpi4-android/optee_os/lib/libmbedtls/mbedtls/library/bignum.c:2657
    76e4:	aa1303e0 	mov	x0, x19
    76e8:	97fff4ce 	bl	4a20 <mbedtls_mpi_free>
    76ec:	aa1403e0 	mov	x0, x20
    76f0:	97fff4cc 	bl	4a20 <mbedtls_mpi_free>
/home/xiang/rockpi4-android/optee_os/lib/libmbedtls/mbedtls/library/bignum.c:2659
    76f4:	b9406ba1 	ldr	w1, [x29,#104]
/home/xiang/rockpi4-android/optee_os/lib/libmbedtls/mbedtls/library/bignum.c:2660
    76f8:	a94153f3 	ldp	x19, x20, [sp,#16]
    76fc:	2a0103e0 	mov	w0, w1
    7700:	a9425bf5 	ldp	x21, x22, [sp,#32]
    7704:	a94363f7 	ldp	x23, x24, [sp,#48]
    7708:	a9446bf9 	ldp	x25, x26, [sp,#64]
    770c:	a94573fb 	ldp	x27, x28, [sp,#80]
    7710:	a8d57bfd 	ldp	x29, x30, [sp],#336
    7714:	d65f03c0 	ret
/home/xiang/rockpi4-android/optee_os/lib/libmbedtls/mbedtls/library/bignum.c:2608
    7718:	aa1603e1 	mov	x1, x22
    771c:	aa1b03e2 	mov	x2, x27
    7720:	aa1603e0 	mov	x0, x22
    7724:	97fff879 	bl	5908 <mbedtls_mpi_add_mpi>
    7728:	2a0003e1 	mov	w1, w0
    772c:	35fffbe0 	cbnz	w0, 76a8 <mbedtls_mpi_inv_mod+0x1b4>
/home/xiang/rockpi4-android/optee_os/lib/libmbedtls/mbedtls/library/bignum.c:2609
    7730:	aa1503e1 	mov	x1, x21
    7734:	aa1a03e2 	mov	x2, x26
    7738:	aa1503e0 	mov	x0, x21
    773c:	97fff895 	bl	5990 <mbedtls_mpi_sub_mpi>
    7740:	2a0003e1 	mov	w1, w0
    7744:	34fffa80 	cbz	w0, 7694 <mbedtls_mpi_inv_mod+0x1a0>
    7748:	17ffffd8 	b	76a8 <mbedtls_mpi_inv_mod+0x1b4>
/home/xiang/rockpi4-android/optee_os/lib/libmbedtls/mbedtls/library/bignum.c:2613
    774c:	d2800021 	mov	x1, #0x1                   	// #1
    7750:	aa1503e0 	mov	x0, x21
    7754:	97fff71e 	bl	53cc <mbedtls_mpi_shift_r>
    7758:	17ffffbf 	b	7654 <mbedtls_mpi_inv_mod+0x160>
/home/xiang/rockpi4-android/optee_os/lib/libmbedtls/mbedtls/library/bignum.c:2618
    775c:	d2800021 	mov	x1, #0x1                   	// #1
    7760:	aa1803e0 	mov	x0, x24
    7764:	97fff71a 	bl	53cc <mbedtls_mpi_shift_r>
    7768:	2a0003e1 	mov	w1, w0
    776c:	35fff9e0 	cbnz	w0, 76a8 <mbedtls_mpi_inv_mod+0x1b4>
/home/xiang/rockpi4-android/optee_os/lib/libmbedtls/mbedtls/library/bignum.c:2620
    7770:	f9409ba0 	ldr	x0, [x29,#304]
    7774:	b9400000 	ldr	w0, [x0]
    7778:	37000700 	tbnz	w0, #0, 7858 <mbedtls_mpi_inv_mod+0x364>
/home/xiang/rockpi4-android/optee_os/lib/libmbedtls/mbedtls/library/bignum.c:2620 (discriminator 1)
    777c:	f940a7a0 	ldr	x0, [x29,#328]
    7780:	b9400000 	ldr	w0, [x0]
    7784:	370006a0 	tbnz	w0, #0, 7858 <mbedtls_mpi_inv_mod+0x364>
/home/xiang/rockpi4-android/optee_os/lib/libmbedtls/mbedtls/library/bignum.c:2626
    7788:	d2800021 	mov	x1, #0x1                   	// #1
    778c:	aa1303e0 	mov	x0, x19
    7790:	97fff70f 	bl	53cc <mbedtls_mpi_shift_r>
    7794:	2a0003e1 	mov	w1, w0
    7798:	35fff880 	cbnz	w0, 76a8 <mbedtls_mpi_inv_mod+0x1b4>
/home/xiang/rockpi4-android/optee_os/lib/libmbedtls/mbedtls/library/bignum.c:2627
    779c:	d2800021 	mov	x1, #0x1                   	// #1
    77a0:	aa1403e0 	mov	x0, x20
    77a4:	97fff70a 	bl	53cc <mbedtls_mpi_shift_r>
    77a8:	2a0003e1 	mov	w1, w0
    77ac:	35fff7e0 	cbnz	w0, 76a8 <mbedtls_mpi_inv_mod+0x1b4>
/home/xiang/rockpi4-android/optee_os/lib/libmbedtls/mbedtls/library/bignum.c:2616
    77b0:	f9408fa0 	ldr	x0, [x29,#280]
    77b4:	b9400000 	ldr	w0, [x0]
    77b8:	3607fd20 	tbz	w0, #0, 775c <mbedtls_mpi_inv_mod+0x268>
/home/xiang/rockpi4-android/optee_os/lib/libmbedtls/mbedtls/library/bignum.c:2630
    77bc:	aa1803e1 	mov	x1, x24
    77c0:	aa1703e0 	mov	x0, x23
    77c4:	97fff75d 	bl	5538 <mbedtls_mpi_cmp_mpi>
    77c8:	37f80620 	tbnz	w0, #31, 788c <mbedtls_mpi_inv_mod+0x398>
/home/xiang/rockpi4-android/optee_os/lib/libmbedtls/mbedtls/library/bignum.c:2632
    77cc:	aa1703e1 	mov	x1, x23
    77d0:	aa1803e2 	mov	x2, x24
    77d4:	aa1703e0 	mov	x0, x23
    77d8:	97fff86e 	bl	5990 <mbedtls_mpi_sub_mpi>
    77dc:	2a0003e1 	mov	w1, w0
    77e0:	35fff640 	cbnz	w0, 76a8 <mbedtls_mpi_inv_mod+0x1b4>
/home/xiang/rockpi4-android/optee_os/lib/libmbedtls/mbedtls/library/bignum.c:2633
    77e4:	aa1603e1 	mov	x1, x22
    77e8:	aa1303e2 	mov	x2, x19
    77ec:	aa1603e0 	mov	x0, x22
    77f0:	97fff868 	bl	5990 <mbedtls_mpi_sub_mpi>
    77f4:	2a0003e1 	mov	w1, w0
    77f8:	35fff580 	cbnz	w0, 76a8 <mbedtls_mpi_inv_mod+0x1b4>
/home/xiang/rockpi4-android/optee_os/lib/libmbedtls/mbedtls/library/bignum.c:2634
    77fc:	aa1403e2 	mov	x2, x20
    7800:	aa1503e1 	mov	x1, x21
    7804:	aa1503e0 	mov	x0, x21
    7808:	97fff862 	bl	5990 <mbedtls_mpi_sub_mpi>
    780c:	2a0003e1 	mov	w1, w0
    7810:	35fff4c0 	cbnz	w0, 76a8 <mbedtls_mpi_inv_mod+0x1b4>
/home/xiang/rockpi4-android/optee_os/lib/libmbedtls/mbedtls/library/bignum.c:2643
    7814:	52800001 	mov	w1, #0x0                   	// #0
    7818:	aa1703e0 	mov	x0, x23
    781c:	97fff783 	bl	5628 <mbedtls_mpi_cmp_int>
    7820:	35fff1e0 	cbnz	w0, 765c <mbedtls_mpi_inv_mod+0x168>
/home/xiang/rockpi4-android/optee_os/lib/libmbedtls/mbedtls/library/bignum.c:2645
    7824:	52800001 	mov	w1, #0x0                   	// #0
    7828:	aa1303e0 	mov	x0, x19
    782c:	97fff77f 	bl	5628 <mbedtls_mpi_cmp_int>
    7830:	37f804e0 	tbnz	w0, #31, 78cc <mbedtls_mpi_inv_mod+0x3d8>
/home/xiang/rockpi4-android/optee_os/lib/libmbedtls/mbedtls/library/bignum.c:2648
    7834:	aa1903e1 	mov	x1, x25
    7838:	aa1303e0 	mov	x0, x19
    783c:	97fff73f 	bl	5538 <mbedtls_mpi_cmp_mpi>
    7840:	36f80540 	tbz	w0, #31, 78e8 <mbedtls_mpi_inv_mod+0x3f4>
/home/xiang/rockpi4-android/optee_os/lib/libmbedtls/mbedtls/library/bignum.c:2651
    7844:	f94033a0 	ldr	x0, [x29,#96]
    7848:	aa1303e1 	mov	x1, x19
    784c:	97fff533 	bl	4d18 <mbedtls_mpi_copy>
    7850:	2a0003e1 	mov	w1, w0
    7854:	17ffff95 	b	76a8 <mbedtls_mpi_inv_mod+0x1b4>
/home/xiang/rockpi4-android/optee_os/lib/libmbedtls/mbedtls/library/bignum.c:2622
    7858:	aa1303e1 	mov	x1, x19
    785c:	aa1b03e2 	mov	x2, x27
    7860:	aa1303e0 	mov	x0, x19
    7864:	97fff829 	bl	5908 <mbedtls_mpi_add_mpi>
    7868:	2a0003e1 	mov	w1, w0
    786c:	35fff1e0 	cbnz	w0, 76a8 <mbedtls_mpi_inv_mod+0x1b4>
/home/xiang/rockpi4-android/optee_os/lib/libmbedtls/mbedtls/library/bignum.c:2623
    7870:	aa1403e1 	mov	x1, x20
    7874:	aa1a03e2 	mov	x2, x26
    7878:	aa1403e0 	mov	x0, x20
    787c:	97fff845 	bl	5990 <mbedtls_mpi_sub_mpi>
    7880:	2a0003e1 	mov	w1, w0
    7884:	34fff820 	cbz	w0, 7788 <mbedtls_mpi_inv_mod+0x294>
    7888:	17ffff88 	b	76a8 <mbedtls_mpi_inv_mod+0x1b4>
/home/xiang/rockpi4-android/optee_os/lib/libmbedtls/mbedtls/library/bignum.c:2638
    788c:	aa1803e1 	mov	x1, x24
    7890:	aa1703e2 	mov	x2, x23
    7894:	aa1803e0 	mov	x0, x24
    7898:	97fff83e 	bl	5990 <mbedtls_mpi_sub_mpi>
    789c:	2a0003e1 	mov	w1, w0
    78a0:	35fff040 	cbnz	w0, 76a8 <mbedtls_mpi_inv_mod+0x1b4>
/home/xiang/rockpi4-android/optee_os/lib/libmbedtls/mbedtls/library/bignum.c:2639
    78a4:	aa1303e1 	mov	x1, x19
    78a8:	aa1603e2 	mov	x2, x22
    78ac:	aa1303e0 	mov	x0, x19
    78b0:	97fff838 	bl	5990 <mbedtls_mpi_sub_mpi>
    78b4:	2a0003e1 	mov	w1, w0
    78b8:	35ffef80 	cbnz	w0, 76a8 <mbedtls_mpi_inv_mod+0x1b4>
/home/xiang/rockpi4-android/optee_os/lib/libmbedtls/mbedtls/library/bignum.c:2640
    78bc:	aa1503e2 	mov	x2, x21
    78c0:	aa1403e1 	mov	x1, x20
    78c4:	aa1403e0 	mov	x0, x20
    78c8:	17ffffd0 	b	7808 <mbedtls_mpi_inv_mod+0x314>
/home/xiang/rockpi4-android/optee_os/lib/libmbedtls/mbedtls/library/bignum.c:2646
    78cc:	aa1303e1 	mov	x1, x19
    78d0:	aa1903e2 	mov	x2, x25
    78d4:	aa1303e0 	mov	x0, x19
    78d8:	97fff80c 	bl	5908 <mbedtls_mpi_add_mpi>
    78dc:	2a0003e1 	mov	w1, w0
    78e0:	34fffa20 	cbz	w0, 7824 <mbedtls_mpi_inv_mod+0x330>
    78e4:	17ffff71 	b	76a8 <mbedtls_mpi_inv_mod+0x1b4>
/home/xiang/rockpi4-android/optee_os/lib/libmbedtls/mbedtls/library/bignum.c:2649
    78e8:	aa1303e1 	mov	x1, x19
    78ec:	aa1903e2 	mov	x2, x25
    78f0:	aa1303e0 	mov	x0, x19
    78f4:	97fff827 	bl	5990 <mbedtls_mpi_sub_mpi>
    78f8:	2a0003e1 	mov	w1, w0
    78fc:	34fff9c0 	cbz	w0, 7834 <mbedtls_mpi_inv_mod+0x340>
    7900:	17ffff6a 	b	76a8 <mbedtls_mpi_inv_mod+0x1b4>
/home/xiang/rockpi4-android/optee_os/lib/libmbedtls/mbedtls/library/bignum.c:2586
    7904:	128001a1 	mov	w1, #0xfffffff2            	// #-14
    7908:	17ffff68 	b	76a8 <mbedtls_mpi_inv_mod+0x1b4>
/home/xiang/rockpi4-android/optee_os/lib/libmbedtls/mbedtls/library/bignum.c:2574
    790c:	12800061 	mov	w1, #0xfffffffc            	// #-4
    7910:	17ffff7a 	b	76f8 <mbedtls_mpi_inv_mod+0x204>

0000000000007914 <mbedtls_mpi_is_prime_ext>:
mbedtls_mpi_is_prime_ext():
/home/xiang/rockpi4-android/optee_os/lib/libmbedtls/mbedtls/library/bignum.c:2821
    7914:	a9bb7bfd 	stp	x29, x30, [sp,#-80]!
    7918:	910003fd 	mov	x29, sp
    791c:	a90153f3 	stp	x19, x20, [sp,#16]
    7920:	2a0103f4 	mov	w20, w1
/home/xiang/rockpi4-android/optee_os/lib/libmbedtls/mbedtls/library/bignum.c:2827
    7924:	52800021 	mov	w1, #0x1                   	// #1
/home/xiang/rockpi4-android/optee_os/lib/libmbedtls/mbedtls/library/bignum.c:2831
    7928:	9100e3b3 	add	x19, x29, #0x38
/home/xiang/rockpi4-android/optee_os/lib/libmbedtls/mbedtls/library/bignum.c:2827
    792c:	790073a1 	strh	w1, [x29,#56]
/home/xiang/rockpi4-android/optee_os/lib/libmbedtls/mbedtls/library/bignum.c:2829
    7930:	a9408001 	ldp	x1, x0, [x0,#8]
/home/xiang/rockpi4-android/optee_os/lib/libmbedtls/mbedtls/library/bignum.c:2821
    7934:	a9025bf5 	stp	x21, x22, [sp,#32]
/home/xiang/rockpi4-android/optee_os/lib/libmbedtls/mbedtls/library/bignum.c:2829
    7938:	a90403a1 	stp	x1, x0, [x29,#64]
/home/xiang/rockpi4-android/optee_os/lib/libmbedtls/mbedtls/library/bignum.c:2821
    793c:	aa0203f5 	mov	x21, x2
    7940:	aa0303f6 	mov	x22, x3
/home/xiang/rockpi4-android/optee_os/lib/libmbedtls/mbedtls/library/bignum.c:2831
    7944:	52800001 	mov	w1, #0x0                   	// #0
    7948:	aa1303e0 	mov	x0, x19
    794c:	97fff737 	bl	5628 <mbedtls_mpi_cmp_int>
    7950:	350000c0 	cbnz	w0, 7968 <mbedtls_mpi_is_prime_ext+0x54>
/home/xiang/rockpi4-android/optee_os/lib/libmbedtls/mbedtls/library/bignum.c:2833
    7954:	128001a0 	mov	w0, #0xfffffff2            	// #-14
/home/xiang/rockpi4-android/optee_os/lib/libmbedtls/mbedtls/library/bignum.c:2847
    7958:	a94153f3 	ldp	x19, x20, [sp,#16]
    795c:	a9425bf5 	ldp	x21, x22, [sp,#32]
    7960:	a8c57bfd 	ldp	x29, x30, [sp],#80
    7964:	d65f03c0 	ret
/home/xiang/rockpi4-android/optee_os/lib/libmbedtls/mbedtls/library/bignum.c:2832 (discriminator 1)
    7968:	52800021 	mov	w1, #0x1                   	// #1
    796c:	aa1303e0 	mov	x0, x19
    7970:	97fff72e 	bl	5628 <mbedtls_mpi_cmp_int>
/home/xiang/rockpi4-android/optee_os/lib/libmbedtls/mbedtls/library/bignum.c:2831 (discriminator 1)
    7974:	34ffff00 	cbz	w0, 7954 <mbedtls_mpi_is_prime_ext+0x40>
/home/xiang/rockpi4-android/optee_os/lib/libmbedtls/mbedtls/library/bignum.c:2835
    7978:	52800041 	mov	w1, #0x2                   	// #2
    797c:	aa1303e0 	mov	x0, x19
    7980:	97fff72a 	bl	5628 <mbedtls_mpi_cmp_int>
    7984:	340000c0 	cbz	w0, 799c <mbedtls_mpi_is_prime_ext+0x88>
/home/xiang/rockpi4-android/optee_os/lib/libmbedtls/mbedtls/library/bignum.c:2838
    7988:	aa1303e0 	mov	x0, x19
    798c:	97fffb88 	bl	67ac <mpi_check_small_factors>
    7990:	340000a0 	cbz	w0, 79a4 <mbedtls_mpi_is_prime_ext+0x90>
/home/xiang/rockpi4-android/optee_os/lib/libmbedtls/mbedtls/library/bignum.c:2840
    7994:	7100041f 	cmp	w0, #0x1
    7998:	54fffe01 	b.ne	7958 <mbedtls_mpi_is_prime_ext+0x44>
/home/xiang/rockpi4-android/optee_os/lib/libmbedtls/mbedtls/library/bignum.c:2841
    799c:	52800000 	mov	w0, #0x0                   	// #0
    79a0:	17ffffee 	b	7958 <mbedtls_mpi_is_prime_ext+0x44>
/home/xiang/rockpi4-android/optee_os/lib/libmbedtls/mbedtls/library/bignum.c:2846
    79a4:	aa1603e3 	mov	x3, x22
    79a8:	aa1503e2 	mov	x2, x21
    79ac:	93407e81 	sxtw	x1, w20
    79b0:	aa1303e0 	mov	x0, x19
    79b4:	97fffdd3 	bl	7100 <mpi_miller_rabin>
    79b8:	17ffffe8 	b	7958 <mbedtls_mpi_is_prime_ext+0x44>

00000000000079bc <mbedtls_mpi_is_prime>:
mbedtls_mpi_is_prime():
/home/xiang/rockpi4-android/optee_os/lib/libmbedtls/mbedtls/library/bignum.c:2865
    79bc:	aa0203e3 	mov	x3, x2
    79c0:	aa0103e2 	mov	x2, x1
    79c4:	52800501 	mov	w1, #0x28                  	// #40
    79c8:	17ffffd3 	b	7914 <mbedtls_mpi_is_prime_ext>

00000000000079cc <mbedtls_mpi_gen_prime>:
mbedtls_mpi_gen_prime():
/home/xiang/rockpi4-android/optee_os/lib/libmbedtls/mbedtls/library/bignum.c:2896
    79cc:	d1000c26 	sub	x6, x1, #0x3
    79d0:	d283ffa5 	mov	x5, #0x1ffd                	// #8189
    79d4:	eb0500df 	cmp	x6, x5
    79d8:	54001848 	b.hi	7ce0 <mbedtls_mpi_gen_prime+0x314>
/home/xiang/rockpi4-android/optee_os/lib/libmbedtls/mbedtls/library/bignum.c:2879
    79dc:	a9b77bfd 	stp	x29, x30, [sp,#-144]!
    79e0:	910003fd 	mov	x29, sp
    79e4:	a90153f3 	stp	x19, x20, [sp,#16]
/home/xiang/rockpi4-android/optee_os/lib/libmbedtls/mbedtls/library/bignum.c:2899
    79e8:	9101e3b4 	add	x20, x29, #0x78
/home/xiang/rockpi4-android/optee_os/lib/libmbedtls/mbedtls/library/bignum.c:2879
    79ec:	a90573fb 	stp	x27, x28, [sp,#80]
    79f0:	aa0103fb 	mov	x27, x1
    79f4:	a9025bf5 	stp	x21, x22, [sp,#32]
    79f8:	aa0003f3 	mov	x19, x0
    79fc:	a90363f7 	stp	x23, x24, [sp,#48]
    7a00:	aa0303f6 	mov	x22, x3
    7a04:	a9046bf9 	stp	x25, x26, [sp,#64]
    7a08:	aa0403f7 	mov	x23, x4
    7a0c:	2a0203f8 	mov	w24, w2
/home/xiang/rockpi4-android/optee_os/lib/libmbedtls/mbedtls/library/bignum.c:2899
    7a10:	aa1403e0 	mov	x0, x20
    7a14:	97fff3f9 	bl	49f8 <mbedtls_mpi_init_mempool>
/home/xiang/rockpi4-android/optee_os/lib/libmbedtls/mbedtls/library/bignum.c:2901
    7a18:	d345ff75 	lsr	x21, x27, #5
    7a1c:	f240137f 	tst	x27, #0x1f
    7a20:	9a9506b5 	cinc	x21, x21, ne
/home/xiang/rockpi4-android/optee_os/lib/libmbedtls/mbedtls/library/bignum.c:2903
    7a24:	37080d78 	tbnz	w24, #1, 7bd0 <mbedtls_mpi_gen_prime+0x204>
/home/xiang/rockpi4-android/optee_os/lib/libmbedtls/mbedtls/library/bignum.c:2908
    7a28:	f1144f7f 	cmp	x27, #0x513
    7a2c:	54000f68 	b.hi	7c18 <mbedtls_mpi_gen_prime+0x24c>
/home/xiang/rockpi4-android/optee_os/lib/libmbedtls/mbedtls/library/bignum.c:2908 (discriminator 1)
    7a30:	f10d477f 	cmp	x27, #0x351
    7a34:	54000f68 	b.hi	7c20 <mbedtls_mpi_gen_prime+0x254>
/home/xiang/rockpi4-android/optee_os/lib/libmbedtls/mbedtls/library/bignum.c:2909
    7a38:	f10a277f 	cmp	x27, #0x289
    7a3c:	54000fa8 	b.hi	7c30 <mbedtls_mpi_gen_prime+0x264>
/home/xiang/rockpi4-android/optee_os/lib/libmbedtls/mbedtls/library/bignum.c:2909 (discriminator 1)
    7a40:	f105777f 	cmp	x27, #0x15d
    7a44:	54001068 	b.hi	7c50 <mbedtls_mpi_gen_prime+0x284>
/home/xiang/rockpi4-android/optee_os/lib/libmbedtls/mbedtls/library/bignum.c:2910
    7a48:	f103e77f 	cmp	x27, #0xf9
    7a4c:	54000ee8 	b.hi	7c28 <mbedtls_mpi_gen_prime+0x25c>
/home/xiang/rockpi4-android/optee_os/lib/libmbedtls/mbedtls/library/bignum.c:2910 (discriminator 1)
    7a50:	f102577f 	cmp	x27, #0x95
    7a54:	52800360 	mov	w0, #0x1b                  	// #27
    7a58:	52800244 	mov	w4, #0x12                  	// #18
/home/xiang/rockpi4-android/optee_os/lib/libmbedtls/mbedtls/library/bignum.c:2921 (discriminator 1)
    7a5c:	1a80809a 	csel	w26, w4, w0, hi
/home/xiang/rockpi4-android/optee_os/lib/libmbedtls/mbedtls/library/bignum.c:2926
    7a60:	d37ef6b9 	lsl	x25, x21, #2
/home/xiang/rockpi4-android/optee_os/lib/libmbedtls/mbedtls/library/bignum.c:2928
    7a64:	529e667c 	mov	w28, #0xf333                	// #62259
    7a68:	d1001320 	sub	x0, x25, #0x4
/home/xiang/rockpi4-android/optee_os/lib/libmbedtls/mbedtls/library/bignum.c:2930
    7a6c:	d37beab5 	lsl	x21, x21, #5
/home/xiang/rockpi4-android/optee_os/lib/libmbedtls/mbedtls/library/bignum.c:2934
    7a70:	12000318 	and	w24, w24, #0x1
/home/xiang/rockpi4-android/optee_os/lib/libmbedtls/mbedtls/library/bignum.c:2928
    7a74:	f90037a0 	str	x0, [x29,#104]
    7a78:	72b6a09c 	movk	w28, #0xb504, lsl #16
/home/xiang/rockpi4-android/optee_os/lib/libmbedtls/mbedtls/library/bignum.c:2931
    7a7c:	cb1b02a0 	sub	x0, x21, x27
    7a80:	f90033a0 	str	x0, [x29,#96]
/home/xiang/rockpi4-android/optee_os/lib/libmbedtls/mbedtls/library/bignum.c:2926
    7a84:	aa1603e2 	mov	x2, x22
    7a88:	aa1703e3 	mov	x3, x23
    7a8c:	aa1903e1 	mov	x1, x25
    7a90:	aa1303e0 	mov	x0, x19
    7a94:	97fffd81 	bl	7098 <mbedtls_mpi_fill_random>
    7a98:	2a0003e2 	mov	w2, w0
    7a9c:	35000f00 	cbnz	w0, 7c7c <mbedtls_mpi_gen_prime+0x2b0>
/home/xiang/rockpi4-android/optee_os/lib/libmbedtls/mbedtls/library/bignum.c:2928
    7aa0:	f9400a60 	ldr	x0, [x19,#16]
    7aa4:	f94037a1 	ldr	x1, [x29,#104]
    7aa8:	b8616800 	ldr	w0, [x0,x1]
    7aac:	6b1c001f 	cmp	w0, w28
    7ab0:	54fffea9 	b.ls	7a84 <mbedtls_mpi_gen_prime+0xb8>
/home/xiang/rockpi4-android/optee_os/lib/libmbedtls/mbedtls/library/bignum.c:2931
    7ab4:	eb15037f 	cmp	x27, x21
    7ab8:	54000d83 	b.cc	7c68 <mbedtls_mpi_gen_prime+0x29c>
/home/xiang/rockpi4-android/optee_os/lib/libmbedtls/mbedtls/library/bignum.c:2932
    7abc:	f9400a61 	ldr	x1, [x19,#16]
    7ac0:	b9400020 	ldr	w0, [x1]
    7ac4:	32000002 	orr	w2, w0, #0x1
    7ac8:	b9000022 	str	w2, [x1]
/home/xiang/rockpi4-android/optee_os/lib/libmbedtls/mbedtls/library/bignum.c:2934
    7acc:	34000f18 	cbz	w24, 7cac <mbedtls_mpi_gen_prime+0x2e0>
/home/xiang/rockpi4-android/optee_os/lib/libmbedtls/mbedtls/library/bignum.c:2949
    7ad0:	32000400 	orr	w0, w0, #0x3
    7ad4:	b9000020 	str	w0, [x1]
/home/xiang/rockpi4-android/optee_os/lib/libmbedtls/mbedtls/library/bignum.c:2951
    7ad8:	52800062 	mov	w2, #0x3                   	// #3
    7adc:	aa1303e1 	mov	x1, x19
    7ae0:	9101d3a0 	add	x0, x29, #0x74
    7ae4:	97fffa75 	bl	64b8 <mbedtls_mpi_mod_int>
    7ae8:	2a0003e2 	mov	w2, w0
    7aec:	35000c80 	cbnz	w0, 7c7c <mbedtls_mpi_gen_prime+0x2b0>
/home/xiang/rockpi4-android/optee_os/lib/libmbedtls/mbedtls/library/bignum.c:2952
    7af0:	b94077a0 	ldr	w0, [x29,#116]
    7af4:	35000ee0 	cbnz	w0, 7cd0 <mbedtls_mpi_gen_prime+0x304>
/home/xiang/rockpi4-android/optee_os/lib/libmbedtls/mbedtls/library/bignum.c:2953
    7af8:	52800102 	mov	w2, #0x8                   	// #8
    7afc:	aa1303e1 	mov	x1, x19
    7b00:	aa1303e0 	mov	x0, x19
    7b04:	97fff7c6 	bl	5a1c <mbedtls_mpi_add_int>
    7b08:	2a0003e2 	mov	w2, w0
    7b0c:	35000b80 	cbnz	w0, 7c7c <mbedtls_mpi_gen_prime+0x2b0>
/home/xiang/rockpi4-android/optee_os/lib/libmbedtls/mbedtls/library/bignum.c:2958
    7b10:	aa1303e1 	mov	x1, x19
    7b14:	aa1403e0 	mov	x0, x20
    7b18:	97fff480 	bl	4d18 <mbedtls_mpi_copy>
    7b1c:	2a0003e2 	mov	w2, w0
    7b20:	35000ae0 	cbnz	w0, 7c7c <mbedtls_mpi_gen_prime+0x2b0>
/home/xiang/rockpi4-android/optee_os/lib/libmbedtls/mbedtls/library/bignum.c:2959
    7b24:	d2800021 	mov	x1, #0x1                   	// #1
    7b28:	aa1403e0 	mov	x0, x20
    7b2c:	97fff628 	bl	53cc <mbedtls_mpi_shift_r>
    7b30:	2a0003e2 	mov	w2, w0
    7b34:	35000a40 	cbnz	w0, 7c7c <mbedtls_mpi_gen_prime+0x2b0>
/home/xiang/rockpi4-android/optee_os/lib/libmbedtls/mbedtls/library/bignum.c:2969
    7b38:	93407f55 	sxtw	x21, w26
/home/xiang/rockpi4-android/optee_os/lib/libmbedtls/mbedtls/library/bignum.c:2967
    7b3c:	aa1303e0 	mov	x0, x19
    7b40:	97fffb1b 	bl	67ac <mpi_check_small_factors>
    7b44:	2a0003e2 	mov	w2, w0
    7b48:	35000260 	cbnz	w0, 7b94 <mbedtls_mpi_gen_prime+0x1c8>
/home/xiang/rockpi4-android/optee_os/lib/libmbedtls/mbedtls/library/bignum.c:2967 (discriminator 1)
    7b4c:	aa1403e0 	mov	x0, x20
    7b50:	97fffb17 	bl	67ac <mpi_check_small_factors>
    7b54:	2a0003e2 	mov	w2, w0
    7b58:	350001e0 	cbnz	w0, 7b94 <mbedtls_mpi_gen_prime+0x1c8>
/home/xiang/rockpi4-android/optee_os/lib/libmbedtls/mbedtls/library/bignum.c:2968
    7b5c:	aa1603e2 	mov	x2, x22
    7b60:	aa1703e3 	mov	x3, x23
    7b64:	aa1503e1 	mov	x1, x21
    7b68:	aa1303e0 	mov	x0, x19
    7b6c:	97fffd65 	bl	7100 <mpi_miller_rabin>
    7b70:	2a0003e2 	mov	w2, w0
    7b74:	35000100 	cbnz	w0, 7b94 <mbedtls_mpi_gen_prime+0x1c8>
/home/xiang/rockpi4-android/optee_os/lib/libmbedtls/mbedtls/library/bignum.c:2970
    7b78:	aa1603e2 	mov	x2, x22
    7b7c:	aa1703e3 	mov	x3, x23
    7b80:	aa1503e1 	mov	x1, x21
    7b84:	aa1403e0 	mov	x0, x20
    7b88:	97fffd5e 	bl	7100 <mpi_miller_rabin>
    7b8c:	2a0003e2 	mov	w2, w0
    7b90:	34000760 	cbz	w0, 7c7c <mbedtls_mpi_gen_prime+0x2b0>
/home/xiang/rockpi4-android/optee_os/lib/libmbedtls/mbedtls/library/bignum.c:2975
    7b94:	3100385f 	cmn	w2, #0xe
    7b98:	54000721 	b.ne	7c7c <mbedtls_mpi_gen_prime+0x2b0>
/home/xiang/rockpi4-android/optee_os/lib/libmbedtls/mbedtls/library/bignum.c:2983
    7b9c:	52800182 	mov	w2, #0xc                   	// #12
    7ba0:	aa1303e1 	mov	x1, x19
    7ba4:	aa1303e0 	mov	x0, x19
    7ba8:	97fff79d 	bl	5a1c <mbedtls_mpi_add_int>
    7bac:	2a0003e2 	mov	w2, w0
    7bb0:	35000660 	cbnz	w0, 7c7c <mbedtls_mpi_gen_prime+0x2b0>
/home/xiang/rockpi4-android/optee_os/lib/libmbedtls/mbedtls/library/bignum.c:2984
    7bb4:	528000c2 	mov	w2, #0x6                   	// #6
    7bb8:	aa1403e1 	mov	x1, x20
    7bbc:	aa1403e0 	mov	x0, x20
    7bc0:	97fff797 	bl	5a1c <mbedtls_mpi_add_int>
    7bc4:	2a0003e2 	mov	w2, w0
    7bc8:	34fffba0 	cbz	w0, 7b3c <mbedtls_mpi_gen_prime+0x170>
    7bcc:	1400002c 	b	7c7c <mbedtls_mpi_gen_prime+0x2b0>
/home/xiang/rockpi4-android/optee_os/lib/libmbedtls/mbedtls/library/bignum.c:2918
    7bd0:	f116a77f 	cmp	x27, #0x5a9
    7bd4:	540002e8 	b.hi	7c30 <mbedtls_mpi_gen_prime+0x264>
/home/xiang/rockpi4-android/optee_os/lib/libmbedtls/mbedtls/library/bignum.c:2918 (discriminator 1)
    7bd8:	f111f77f 	cmp	x27, #0x47d
    7bdc:	540002e8 	b.hi	7c38 <mbedtls_mpi_gen_prime+0x26c>
/home/xiang/rockpi4-android/optee_os/lib/libmbedtls/mbedtls/library/bignum.c:2919
    7be0:	f10f9f7f 	cmp	x27, #0x3e7
    7be4:	540002e8 	b.hi	7c40 <mbedtls_mpi_gen_prime+0x274>
/home/xiang/rockpi4-android/optee_os/lib/libmbedtls/mbedtls/library/bignum.c:2919 (discriminator 1)
    7be8:	f10d477f 	cmp	x27, #0x351
    7bec:	540002e8 	b.hi	7c48 <mbedtls_mpi_gen_prime+0x27c>
/home/xiang/rockpi4-android/optee_os/lib/libmbedtls/mbedtls/library/bignum.c:2920
    7bf0:	f10bb77f 	cmp	x27, #0x2ed
    7bf4:	540002e8 	b.hi	7c50 <mbedtls_mpi_gen_prime+0x284>
/home/xiang/rockpi4-android/optee_os/lib/libmbedtls/mbedtls/library/bignum.c:2920 (discriminator 1)
    7bf8:	f107cf7f 	cmp	x27, #0x1f3
    7bfc:	540002e8 	b.hi	7c58 <mbedtls_mpi_gen_prime+0x28c>
/home/xiang/rockpi4-android/optee_os/lib/libmbedtls/mbedtls/library/bignum.c:2921
    7c00:	f103e77f 	cmp	x27, #0xf9
    7c04:	540002e8 	b.hi	7c60 <mbedtls_mpi_gen_prime+0x294>
/home/xiang/rockpi4-android/optee_os/lib/libmbedtls/mbedtls/library/bignum.c:2921 (discriminator 1)
    7c08:	f102577f 	cmp	x27, #0x95
    7c0c:	52800660 	mov	w0, #0x33                  	// #51
    7c10:	52800504 	mov	w4, #0x28                  	// #40
    7c14:	17ffff92 	b	7a5c <mbedtls_mpi_gen_prime+0x90>
/home/xiang/rockpi4-android/optee_os/lib/libmbedtls/mbedtls/library/bignum.c:2908
    7c18:	5280005a 	mov	w26, #0x2                   	// #2
    7c1c:	17ffff91 	b	7a60 <mbedtls_mpi_gen_prime+0x94>
    7c20:	5280007a 	mov	w26, #0x3                   	// #3
    7c24:	17ffff8f 	b	7a60 <mbedtls_mpi_gen_prime+0x94>
/home/xiang/rockpi4-android/optee_os/lib/libmbedtls/mbedtls/library/bignum.c:2910
    7c28:	5280019a 	mov	w26, #0xc                   	// #12
    7c2c:	17ffff8d 	b	7a60 <mbedtls_mpi_gen_prime+0x94>
/home/xiang/rockpi4-android/optee_os/lib/libmbedtls/mbedtls/library/bignum.c:2909
    7c30:	5280009a 	mov	w26, #0x4                   	// #4
    7c34:	17ffff8b 	b	7a60 <mbedtls_mpi_gen_prime+0x94>
/home/xiang/rockpi4-android/optee_os/lib/libmbedtls/mbedtls/library/bignum.c:2918
    7c38:	528000ba 	mov	w26, #0x5                   	// #5
    7c3c:	17ffff89 	b	7a60 <mbedtls_mpi_gen_prime+0x94>
/home/xiang/rockpi4-android/optee_os/lib/libmbedtls/mbedtls/library/bignum.c:2919
    7c40:	528000da 	mov	w26, #0x6                   	// #6
    7c44:	17ffff87 	b	7a60 <mbedtls_mpi_gen_prime+0x94>
    7c48:	528000fa 	mov	w26, #0x7                   	// #7
    7c4c:	17ffff85 	b	7a60 <mbedtls_mpi_gen_prime+0x94>
/home/xiang/rockpi4-android/optee_os/lib/libmbedtls/mbedtls/library/bignum.c:2909
    7c50:	5280011a 	mov	w26, #0x8                   	// #8
    7c54:	17ffff83 	b	7a60 <mbedtls_mpi_gen_prime+0x94>
/home/xiang/rockpi4-android/optee_os/lib/libmbedtls/mbedtls/library/bignum.c:2920
    7c58:	528001ba 	mov	w26, #0xd                   	// #13
    7c5c:	17ffff81 	b	7a60 <mbedtls_mpi_gen_prime+0x94>
/home/xiang/rockpi4-android/optee_os/lib/libmbedtls/mbedtls/library/bignum.c:2921
    7c60:	5280039a 	mov	w26, #0x1c                  	// #28
    7c64:	17ffff7f 	b	7a60 <mbedtls_mpi_gen_prime+0x94>
/home/xiang/rockpi4-android/optee_os/lib/libmbedtls/mbedtls/library/bignum.c:2931 (discriminator 1)
    7c68:	f94033a1 	ldr	x1, [x29,#96]
    7c6c:	aa1303e0 	mov	x0, x19
    7c70:	97fff5d7 	bl	53cc <mbedtls_mpi_shift_r>
    7c74:	2a0003e2 	mov	w2, w0
    7c78:	34fff220 	cbz	w0, 7abc <mbedtls_mpi_gen_prime+0xf0>
/home/xiang/rockpi4-android/optee_os/lib/libmbedtls/mbedtls/library/bignum.c:2991
    7c7c:	aa1403e0 	mov	x0, x20
    7c80:	b9006ba2 	str	w2, [x29,#104]
    7c84:	97fff367 	bl	4a20 <mbedtls_mpi_free>
/home/xiang/rockpi4-android/optee_os/lib/libmbedtls/mbedtls/library/bignum.c:2993
    7c88:	b9406ba2 	ldr	w2, [x29,#104]
/home/xiang/rockpi4-android/optee_os/lib/libmbedtls/mbedtls/library/bignum.c:2994
    7c8c:	a94153f3 	ldp	x19, x20, [sp,#16]
    7c90:	2a0203e0 	mov	w0, w2
    7c94:	a9425bf5 	ldp	x21, x22, [sp,#32]
    7c98:	a94363f7 	ldp	x23, x24, [sp,#48]
    7c9c:	a9446bf9 	ldp	x25, x26, [sp,#64]
    7ca0:	a94573fb 	ldp	x27, x28, [sp,#80]
    7ca4:	a8c97bfd 	ldp	x29, x30, [sp],#144
    7ca8:	d65f03c0 	ret
/home/xiang/rockpi4-android/optee_os/lib/libmbedtls/mbedtls/library/bignum.c:2936
    7cac:	aa1603e2 	mov	x2, x22
    7cb0:	aa1703e3 	mov	x3, x23
    7cb4:	2a1a03e1 	mov	w1, w26
    7cb8:	aa1303e0 	mov	x0, x19
    7cbc:	97ffff16 	bl	7914 <mbedtls_mpi_is_prime_ext>
    7cc0:	2a0003e2 	mov	w2, w0
/home/xiang/rockpi4-android/optee_os/lib/libmbedtls/mbedtls/library/bignum.c:2938
    7cc4:	3100381f 	cmn	w0, #0xe
    7cc8:	54ffede0 	b.eq	7a84 <mbedtls_mpi_gen_prime+0xb8>
    7ccc:	17ffffec 	b	7c7c <mbedtls_mpi_gen_prime+0x2b0>
/home/xiang/rockpi4-android/optee_os/lib/libmbedtls/mbedtls/library/bignum.c:2954
    7cd0:	7100041f 	cmp	w0, #0x1
    7cd4:	54fff1e1 	b.ne	7b10 <mbedtls_mpi_gen_prime+0x144>
/home/xiang/rockpi4-android/optee_os/lib/libmbedtls/mbedtls/library/bignum.c:2955
    7cd8:	52800082 	mov	w2, #0x4                   	// #4
    7cdc:	17ffff88 	b	7afc <mbedtls_mpi_gen_prime+0x130>
/home/xiang/rockpi4-android/optee_os/lib/libmbedtls/mbedtls/library/bignum.c:2897
    7ce0:	12800062 	mov	w2, #0xfffffffc            	// #-4
/home/xiang/rockpi4-android/optee_os/lib/libmbedtls/mbedtls/library/bignum.c:2994
    7ce4:	2a0203e0 	mov	w0, w2
    7ce8:	d65f03c0 	ret

0000000000007cec <mbedtls_mpi_self_test>:
mbedtls_mpi_self_test():
/home/xiang/rockpi4-android/optee_os/lib/libmbedtls/mbedtls/library/bignum.c:3013
    7cec:	a9ae7bfd 	stp	x29, x30, [sp,#-288]!
    7cf0:	910003fd 	mov	x29, sp
    7cf4:	a9025bf5 	stp	x21, x22, [sp,#32]
/home/xiang/rockpi4-android/optee_os/lib/libmbedtls/mbedtls/library/bignum.c:3017
    7cf8:	9101e3b6 	add	x22, x29, #0x78
/home/xiang/rockpi4-android/optee_os/lib/libmbedtls/mbedtls/library/bignum.c:3013
    7cfc:	a90153f3 	stp	x19, x20, [sp,#16]
    7d00:	2a0003f3 	mov	w19, w0
    7d04:	a90573fb 	stp	x27, x28, [sp,#80]
/home/xiang/rockpi4-android/optee_os/lib/libmbedtls/mbedtls/library/bignum.c:3017
    7d08:	aa1603e0 	mov	x0, x22
/home/xiang/rockpi4-android/optee_os/lib/libmbedtls/mbedtls/library/bignum.c:3013
    7d0c:	a90363f7 	stp	x23, x24, [sp,#48]
/home/xiang/rockpi4-android/optee_os/lib/libmbedtls/mbedtls/library/bignum.c:3018
    7d10:	9102a3b8 	add	x24, x29, #0xa8
/home/xiang/rockpi4-android/optee_os/lib/libmbedtls/mbedtls/library/bignum.c:3013
    7d14:	a9046bf9 	stp	x25, x26, [sp,#64]
/home/xiang/rockpi4-android/optee_os/lib/libmbedtls/mbedtls/library/bignum.c:3017
    7d18:	97fff338 	bl	49f8 <mbedtls_mpi_init_mempool>
    7d1c:	910243a0 	add	x0, x29, #0x90
    7d20:	f90037a0 	str	x0, [x29,#104]
    7d24:	97fff335 	bl	49f8 <mbedtls_mpi_init_mempool>
/home/xiang/rockpi4-android/optee_os/lib/libmbedtls/mbedtls/library/bignum.c:3018
    7d28:	910303b4 	add	x20, x29, #0xc0
    7d2c:	aa1803e0 	mov	x0, x24
    7d30:	97fff332 	bl	49f8 <mbedtls_mpi_init_mempool>
    7d34:	aa1403e0 	mov	x0, x20
/home/xiang/rockpi4-android/optee_os/lib/libmbedtls/mbedtls/library/bignum.c:3019
    7d38:	910363b9 	add	x25, x29, #0xd8
/home/xiang/rockpi4-android/optee_os/lib/libmbedtls/mbedtls/library/bignum.c:3018
    7d3c:	97fff32f 	bl	49f8 <mbedtls_mpi_init_mempool>
/home/xiang/rockpi4-android/optee_os/lib/libmbedtls/mbedtls/library/bignum.c:3019
    7d40:	9103c3b5 	add	x21, x29, #0xf0
    7d44:	aa1903e0 	mov	x0, x25
    7d48:	97fff32c 	bl	49f8 <mbedtls_mpi_init_mempool>
    7d4c:	aa1503e0 	mov	x0, x21
/home/xiang/rockpi4-android/optee_os/lib/libmbedtls/mbedtls/library/bignum.c:3020
    7d50:	910423bc 	add	x28, x29, #0x108
/home/xiang/rockpi4-android/optee_os/lib/libmbedtls/mbedtls/library/bignum.c:3019
    7d54:	97fff329 	bl	49f8 <mbedtls_mpi_init_mempool>
/home/xiang/rockpi4-android/optee_os/lib/libmbedtls/mbedtls/library/bignum.c:3020
    7d58:	aa1c03e0 	mov	x0, x28
    7d5c:	97fff327 	bl	49f8 <mbedtls_mpi_init_mempool>
/home/xiang/rockpi4-android/optee_os/lib/libmbedtls/mbedtls/library/bignum.c:3022
    7d60:	90000022 	adrp	x2, b000 <small_prime+0x140>
    7d64:	52800201 	mov	w1, #0x10                  	// #16
    7d68:	91182042 	add	x2, x2, #0x608
    7d6c:	aa1603e0 	mov	x0, x22
    7d70:	97fff7de 	bl	5ce8 <mbedtls_mpi_read_string>
    7d74:	2a0003fb 	mov	w27, w0
    7d78:	35000520 	cbnz	w0, 7e1c <mbedtls_mpi_self_test+0x130>
/home/xiang/rockpi4-android/optee_os/lib/libmbedtls/mbedtls/library/bignum.c:3028
    7d7c:	f94037a0 	ldr	x0, [x29,#104]
    7d80:	90000022 	adrp	x2, b000 <small_prime+0x140>
    7d84:	52800201 	mov	w1, #0x10                  	// #16
    7d88:	911a2442 	add	x2, x2, #0x689
    7d8c:	97fff7d7 	bl	5ce8 <mbedtls_mpi_read_string>
    7d90:	2a0003fb 	mov	w27, w0
    7d94:	35000440 	cbnz	w0, 7e1c <mbedtls_mpi_self_test+0x130>
/home/xiang/rockpi4-android/optee_os/lib/libmbedtls/mbedtls/library/bignum.c:3034
    7d98:	90000022 	adrp	x2, b000 <small_prime+0x140>
    7d9c:	52800201 	mov	w1, #0x10                  	// #16
    7da0:	911c2842 	add	x2, x2, #0x70a
    7da4:	aa1803e0 	mov	x0, x24
    7da8:	97fff7d0 	bl	5ce8 <mbedtls_mpi_read_string>
    7dac:	2a0003fb 	mov	w27, w0
    7db0:	35000360 	cbnz	w0, 7e1c <mbedtls_mpi_self_test+0x130>
/home/xiang/rockpi4-android/optee_os/lib/libmbedtls/mbedtls/library/bignum.c:3039
    7db4:	aa1803e2 	mov	x2, x24
    7db8:	aa1603e1 	mov	x1, x22
    7dbc:	aa1403e0 	mov	x0, x20
    7dc0:	97fff737 	bl	5a9c <mbedtls_mpi_mul_mpi>
    7dc4:	2a0003fb 	mov	w27, w0
    7dc8:	350002a0 	cbnz	w0, 7e1c <mbedtls_mpi_self_test+0x130>
/home/xiang/rockpi4-android/optee_os/lib/libmbedtls/mbedtls/library/bignum.c:3041
    7dcc:	90000022 	adrp	x2, b000 <small_prime+0x140>
    7dd0:	52800201 	mov	w1, #0x10                  	// #16
    7dd4:	911dac42 	add	x2, x2, #0x76b
    7dd8:	aa1503e0 	mov	x0, x21
    7ddc:	97fff7c3 	bl	5ce8 <mbedtls_mpi_read_string>
    7de0:	2a0003fb 	mov	w27, w0
    7de4:	350001c0 	cbnz	w0, 7e1c <mbedtls_mpi_self_test+0x130>
/home/xiang/rockpi4-android/optee_os/lib/libmbedtls/mbedtls/library/bignum.c:3050
    7de8:	34000093 	cbz	w19, 7df8 <mbedtls_mpi_self_test+0x10c>
/home/xiang/rockpi4-android/optee_os/lib/libmbedtls/mbedtls/library/bignum.c:3051
    7dec:	90000020 	adrp	x0, b000 <small_prime+0x140>
    7df0:	91212800 	add	x0, x0, #0x84a
    7df4:	97ffe34d 	bl	b28 <printf>
/home/xiang/rockpi4-android/optee_os/lib/libmbedtls/mbedtls/library/bignum.c:3053
    7df8:	aa1503e1 	mov	x1, x21
    7dfc:	aa1403e0 	mov	x0, x20
    7e00:	97fff5ce 	bl	5538 <mbedtls_mpi_cmp_mpi>
    7e04:	34000540 	cbz	w0, 7eac <mbedtls_mpi_self_test+0x1c0>
/home/xiang/rockpi4-android/optee_os/lib/libmbedtls/mbedtls/library/bignum.c:3055
    7e08:	34001673 	cbz	w19, 80d4 <mbedtls_mpi_self_test+0x3e8>
/home/xiang/rockpi4-android/optee_os/lib/libmbedtls/mbedtls/library/bignum.c:3056
    7e0c:	90000020 	adrp	x0, b000 <small_prime+0x140>
    7e10:	91172400 	add	x0, x0, #0x5c9
    7e14:	97ffe378 	bl	bf4 <puts>
/home/xiang/rockpi4-android/optee_os/lib/libmbedtls/mbedtls/library/bignum.c:3150
    7e18:	5280003b 	mov	w27, #0x1                   	// #1
/home/xiang/rockpi4-android/optee_os/lib/libmbedtls/mbedtls/library/bignum.c:3160
    7e1c:	7100027f 	cmp	w19, #0x0
    7e20:	1a9f07f3 	cset	w19, ne
    7e24:	7100037f 	cmp	w27, #0x0
    7e28:	1a9f07e0 	cset	w0, ne
    7e2c:	6a000277 	ands	w23, w19, w0
    7e30:	540000c0 	b.eq	7e48 <mbedtls_mpi_self_test+0x15c>
/home/xiang/rockpi4-android/optee_os/lib/libmbedtls/mbedtls/library/bignum.c:3161
    7e34:	2a1703f3 	mov	w19, w23
    7e38:	2a1b03e1 	mov	w1, w27
    7e3c:	90000020 	adrp	x0, b000 <small_prime+0x140>
    7e40:	91289c00 	add	x0, x0, #0xa27
    7e44:	97ffe339 	bl	b28 <printf>
/home/xiang/rockpi4-android/optee_os/lib/libmbedtls/mbedtls/library/bignum.c:3163
    7e48:	aa1603e0 	mov	x0, x22
    7e4c:	97fff2f5 	bl	4a20 <mbedtls_mpi_free>
    7e50:	f94037a0 	ldr	x0, [x29,#104]
    7e54:	97fff2f3 	bl	4a20 <mbedtls_mpi_free>
    7e58:	aa1803e0 	mov	x0, x24
    7e5c:	97fff2f1 	bl	4a20 <mbedtls_mpi_free>
    7e60:	aa1403e0 	mov	x0, x20
    7e64:	97fff2ef 	bl	4a20 <mbedtls_mpi_free>
/home/xiang/rockpi4-android/optee_os/lib/libmbedtls/mbedtls/library/bignum.c:3164
    7e68:	aa1903e0 	mov	x0, x25
    7e6c:	97fff2ed 	bl	4a20 <mbedtls_mpi_free>
    7e70:	aa1503e0 	mov	x0, x21
    7e74:	97fff2eb 	bl	4a20 <mbedtls_mpi_free>
    7e78:	aa1c03e0 	mov	x0, x28
    7e7c:	97fff2e9 	bl	4a20 <mbedtls_mpi_free>
/home/xiang/rockpi4-android/optee_os/lib/libmbedtls/mbedtls/library/bignum.c:3166
    7e80:	34000073 	cbz	w19, 7e8c <mbedtls_mpi_self_test+0x1a0>
/home/xiang/rockpi4-android/optee_os/lib/libmbedtls/mbedtls/library/bignum.c:3167
    7e84:	52800140 	mov	w0, #0xa                   	// #10
    7e88:	97ffe36b 	bl	c34 <putchar>
/home/xiang/rockpi4-android/optee_os/lib/libmbedtls/mbedtls/library/bignum.c:3170
    7e8c:	2a1b03e0 	mov	w0, w27
    7e90:	a94153f3 	ldp	x19, x20, [sp,#16]
    7e94:	a9425bf5 	ldp	x21, x22, [sp,#32]
    7e98:	a94363f7 	ldp	x23, x24, [sp,#48]
    7e9c:	a9446bf9 	ldp	x25, x26, [sp,#64]
    7ea0:	a94573fb 	ldp	x27, x28, [sp,#80]
    7ea4:	a8d27bfd 	ldp	x29, x30, [sp],#288
    7ea8:	d65f03c0 	ret
/home/xiang/rockpi4-android/optee_os/lib/libmbedtls/mbedtls/library/bignum.c:3062
    7eac:	34000093 	cbz	w19, 7ebc <mbedtls_mpi_self_test+0x1d0>
/home/xiang/rockpi4-android/optee_os/lib/libmbedtls/mbedtls/library/bignum.c:3063
    7eb0:	90000020 	adrp	x0, b000 <small_prime+0x140>
    7eb4:	91219000 	add	x0, x0, #0x864
    7eb8:	97ffe34f 	bl	bf4 <puts>
/home/xiang/rockpi4-android/optee_os/lib/libmbedtls/mbedtls/library/bignum.c:3065
    7ebc:	aa1803e3 	mov	x3, x24
    7ec0:	aa1603e2 	mov	x2, x22
    7ec4:	aa1903e1 	mov	x1, x25
    7ec8:	aa1403e0 	mov	x0, x20
    7ecc:	97fff7fd 	bl	5ec0 <mbedtls_mpi_div_mpi>
    7ed0:	2a0003fb 	mov	w27, w0
    7ed4:	35fffa40 	cbnz	w0, 7e1c <mbedtls_mpi_self_test+0x130>
/home/xiang/rockpi4-android/optee_os/lib/libmbedtls/mbedtls/library/bignum.c:3067
    7ed8:	90000022 	adrp	x2, b000 <small_prime+0x140>
    7edc:	52800201 	mov	w1, #0x10                  	// #16
    7ee0:	9121ac42 	add	x2, x2, #0x86b
    7ee4:	aa1503e0 	mov	x0, x21
    7ee8:	97fff780 	bl	5ce8 <mbedtls_mpi_read_string>
    7eec:	2a0003fb 	mov	w27, w0
    7ef0:	35fff960 	cbnz	w0, 7e1c <mbedtls_mpi_self_test+0x130>
/home/xiang/rockpi4-android/optee_os/lib/libmbedtls/mbedtls/library/bignum.c:3070
    7ef4:	90000022 	adrp	x2, b000 <small_prime+0x140>
    7ef8:	52800201 	mov	w1, #0x10                  	// #16
    7efc:	91223c42 	add	x2, x2, #0x88f
    7f00:	aa1c03e0 	mov	x0, x28
    7f04:	97fff779 	bl	5ce8 <mbedtls_mpi_read_string>
    7f08:	2a0003fb 	mov	w27, w0
    7f0c:	35fff880 	cbnz	w0, 7e1c <mbedtls_mpi_self_test+0x130>
/home/xiang/rockpi4-android/optee_os/lib/libmbedtls/mbedtls/library/bignum.c:3075
    7f10:	34000093 	cbz	w19, 7f20 <mbedtls_mpi_self_test+0x234>
/home/xiang/rockpi4-android/optee_os/lib/libmbedtls/mbedtls/library/bignum.c:3076
    7f14:	90000020 	adrp	x0, b000 <small_prime+0x140>
    7f18:	9123b800 	add	x0, x0, #0x8ee
    7f1c:	97ffe303 	bl	b28 <printf>
/home/xiang/rockpi4-android/optee_os/lib/libmbedtls/mbedtls/library/bignum.c:3078
    7f20:	aa1503e1 	mov	x1, x21
    7f24:	aa1403e0 	mov	x0, x20
    7f28:	97fff584 	bl	5538 <mbedtls_mpi_cmp_mpi>
    7f2c:	35fff6e0 	cbnz	w0, 7e08 <mbedtls_mpi_self_test+0x11c>
/home/xiang/rockpi4-android/optee_os/lib/libmbedtls/mbedtls/library/bignum.c:3079 (discriminator 1)
    7f30:	aa1c03e1 	mov	x1, x28
    7f34:	aa1903e0 	mov	x0, x25
    7f38:	97fff580 	bl	5538 <mbedtls_mpi_cmp_mpi>
/home/xiang/rockpi4-android/optee_os/lib/libmbedtls/mbedtls/library/bignum.c:3078 (discriminator 1)
    7f3c:	35fff660 	cbnz	w0, 7e08 <mbedtls_mpi_self_test+0x11c>
/home/xiang/rockpi4-android/optee_os/lib/libmbedtls/mbedtls/library/bignum.c:3088
    7f40:	34000093 	cbz	w19, 7f50 <mbedtls_mpi_self_test+0x264>
/home/xiang/rockpi4-android/optee_os/lib/libmbedtls/mbedtls/library/bignum.c:3089
    7f44:	90000020 	adrp	x0, b000 <small_prime+0x140>
    7f48:	91219000 	add	x0, x0, #0x864
    7f4c:	97ffe32a 	bl	bf4 <puts>
/home/xiang/rockpi4-android/optee_os/lib/libmbedtls/mbedtls/library/bignum.c:3091
    7f50:	f94037a2 	ldr	x2, [x29,#104]
    7f54:	d2800004 	mov	x4, #0x0                   	// #0
    7f58:	aa1803e3 	mov	x3, x24
    7f5c:	aa1603e1 	mov	x1, x22
    7f60:	aa1403e0 	mov	x0, x20
    7f64:	97fffa41 	bl	6868 <mbedtls_mpi_exp_mod>
    7f68:	2a0003fb 	mov	w27, w0
    7f6c:	35fff580 	cbnz	w0, 7e1c <mbedtls_mpi_self_test+0x130>
/home/xiang/rockpi4-android/optee_os/lib/libmbedtls/mbedtls/library/bignum.c:3093
    7f70:	90000022 	adrp	x2, b000 <small_prime+0x140>
    7f74:	52800201 	mov	w1, #0x10                  	// #16
    7f78:	91242042 	add	x2, x2, #0x908
    7f7c:	aa1503e0 	mov	x0, x21
    7f80:	97fff75a 	bl	5ce8 <mbedtls_mpi_read_string>
    7f84:	2a0003fb 	mov	w27, w0
    7f88:	35fff4a0 	cbnz	w0, 7e1c <mbedtls_mpi_self_test+0x130>
/home/xiang/rockpi4-android/optee_os/lib/libmbedtls/mbedtls/library/bignum.c:3098
    7f8c:	34000093 	cbz	w19, 7f9c <mbedtls_mpi_self_test+0x2b0>
/home/xiang/rockpi4-android/optee_os/lib/libmbedtls/mbedtls/library/bignum.c:3099
    7f90:	90000020 	adrp	x0, b000 <small_prime+0x140>
    7f94:	91259c00 	add	x0, x0, #0x967
    7f98:	97ffe2e4 	bl	b28 <printf>
/home/xiang/rockpi4-android/optee_os/lib/libmbedtls/mbedtls/library/bignum.c:3101
    7f9c:	aa1503e1 	mov	x1, x21
    7fa0:	aa1403e0 	mov	x0, x20
    7fa4:	97fff565 	bl	5538 <mbedtls_mpi_cmp_mpi>
    7fa8:	35fff300 	cbnz	w0, 7e08 <mbedtls_mpi_self_test+0x11c>
/home/xiang/rockpi4-android/optee_os/lib/libmbedtls/mbedtls/library/bignum.c:3110
    7fac:	34000093 	cbz	w19, 7fbc <mbedtls_mpi_self_test+0x2d0>
/home/xiang/rockpi4-android/optee_os/lib/libmbedtls/mbedtls/library/bignum.c:3111
    7fb0:	90000020 	adrp	x0, b000 <small_prime+0x140>
    7fb4:	91219000 	add	x0, x0, #0x864
    7fb8:	97ffe30f 	bl	bf4 <puts>
/home/xiang/rockpi4-android/optee_os/lib/libmbedtls/mbedtls/library/bignum.c:3113
    7fbc:	aa1803e2 	mov	x2, x24
    7fc0:	aa1603e1 	mov	x1, x22
    7fc4:	aa1403e0 	mov	x0, x20
    7fc8:	97fffd4b 	bl	74f4 <mbedtls_mpi_inv_mod>
    7fcc:	2a0003fb 	mov	w27, w0
    7fd0:	35fff260 	cbnz	w0, 7e1c <mbedtls_mpi_self_test+0x130>
/home/xiang/rockpi4-android/optee_os/lib/libmbedtls/mbedtls/library/bignum.c:3115
    7fd4:	90000022 	adrp	x2, b000 <small_prime+0x140>
    7fd8:	52800201 	mov	w1, #0x10                  	// #16
    7fdc:	91260442 	add	x2, x2, #0x981
    7fe0:	aa1503e0 	mov	x0, x21
    7fe4:	97fff741 	bl	5ce8 <mbedtls_mpi_read_string>
    7fe8:	2a0003fb 	mov	w27, w0
    7fec:	35fff180 	cbnz	w0, 7e1c <mbedtls_mpi_self_test+0x130>
/home/xiang/rockpi4-android/optee_os/lib/libmbedtls/mbedtls/library/bignum.c:3120
    7ff0:	34000093 	cbz	w19, 8000 <mbedtls_mpi_self_test+0x314>
/home/xiang/rockpi4-android/optee_os/lib/libmbedtls/mbedtls/library/bignum.c:3121
    7ff4:	90000020 	adrp	x0, b000 <small_prime+0x140>
    7ff8:	91278800 	add	x0, x0, #0x9e2
    7ffc:	97ffe2cb 	bl	b28 <printf>
/home/xiang/rockpi4-android/optee_os/lib/libmbedtls/mbedtls/library/bignum.c:3123
    8000:	aa1503e1 	mov	x1, x21
    8004:	aa1403e0 	mov	x0, x20
    8008:	97fff54c 	bl	5538 <mbedtls_mpi_cmp_mpi>
    800c:	2a0003fa 	mov	w26, w0
    8010:	35ffefc0 	cbnz	w0, 7e08 <mbedtls_mpi_self_test+0x11c>
/home/xiang/rockpi4-android/optee_os/lib/libmbedtls/mbedtls/library/bignum.c:3132
    8014:	340000f3 	cbz	w19, 8030 <mbedtls_mpi_self_test+0x344>
/home/xiang/rockpi4-android/optee_os/lib/libmbedtls/mbedtls/library/bignum.c:3133
    8018:	f0000000 	adrp	x0, b000 <small_prime+0x140>
    801c:	91219000 	add	x0, x0, #0x864
    8020:	97ffe2f5 	bl	bf4 <puts>
/home/xiang/rockpi4-android/optee_os/lib/libmbedtls/mbedtls/library/bignum.c:3136
    8024:	f0000000 	adrp	x0, b000 <small_prime+0x140>
    8028:	9127f000 	add	x0, x0, #0x9fc
    802c:	97ffe2bf 	bl	b28 <printf>
    8030:	d0000017 	adrp	x23, a000 <kprintf.constprop.0+0x540>
    8034:	913b02f7 	add	x23, x23, #0xec0
    8038:	910a82f7 	add	x23, x23, #0x2a0
/home/xiang/rockpi4-android/optee_os/lib/libmbedtls/mbedtls/library/bignum.c:3140
    803c:	b94002e1 	ldr	w1, [x23]
    8040:	aa1403e0 	mov	x0, x20
    8044:	97fff386 	bl	4e5c <mbedtls_mpi_lset>
    8048:	2a0003fb 	mov	w27, w0
    804c:	35ffee80 	cbnz	w0, 7e1c <mbedtls_mpi_self_test+0x130>
/home/xiang/rockpi4-android/optee_os/lib/libmbedtls/mbedtls/library/bignum.c:3141
    8050:	b94006e1 	ldr	w1, [x23,#4]
    8054:	aa1903e0 	mov	x0, x25
    8058:	97fff381 	bl	4e5c <mbedtls_mpi_lset>
    805c:	2a0003fb 	mov	w27, w0
    8060:	35ffede0 	cbnz	w0, 7e1c <mbedtls_mpi_self_test+0x130>
/home/xiang/rockpi4-android/optee_os/lib/libmbedtls/mbedtls/library/bignum.c:3143
    8064:	aa1903e2 	mov	x2, x25
    8068:	aa1403e1 	mov	x1, x20
    806c:	aa1603e0 	mov	x0, x22
    8070:	97fffba1 	bl	6ef4 <mbedtls_mpi_gcd>
    8074:	2a0003fb 	mov	w27, w0
    8078:	35ffed20 	cbnz	w0, 7e1c <mbedtls_mpi_self_test+0x130>
/home/xiang/rockpi4-android/optee_os/lib/libmbedtls/mbedtls/library/bignum.c:3145
    807c:	b9400ae1 	ldr	w1, [x23,#8]
    8080:	aa1603e0 	mov	x0, x22
    8084:	97fff569 	bl	5628 <mbedtls_mpi_cmp_int>
    8088:	2a0003fb 	mov	w27, w0
    808c:	340000e0 	cbz	w0, 80a8 <mbedtls_mpi_self_test+0x3bc>
/home/xiang/rockpi4-android/optee_os/lib/libmbedtls/mbedtls/library/bignum.c:3147
    8090:	34000233 	cbz	w19, 80d4 <mbedtls_mpi_self_test+0x3e8>
/home/xiang/rockpi4-android/optee_os/lib/libmbedtls/mbedtls/library/bignum.c:3148
    8094:	2a1a03e1 	mov	w1, w26
    8098:	f0000000 	adrp	x0, b000 <small_prime+0x140>
    809c:	91286400 	add	x0, x0, #0xa19
    80a0:	97ffe2a2 	bl	b28 <printf>
    80a4:	17ffff5d 	b	7e18 <mbedtls_mpi_self_test+0x12c>
/home/xiang/rockpi4-android/optee_os/lib/libmbedtls/mbedtls/library/bignum.c:3138 (discriminator 2)
    80a8:	1100075a 	add	w26, w26, #0x1
    80ac:	910032f7 	add	x23, x23, #0xc
    80b0:	71000f5f 	cmp	w26, #0x3
    80b4:	54fffc41 	b.ne	803c <mbedtls_mpi_self_test+0x350>
/home/xiang/rockpi4-android/optee_os/lib/libmbedtls/mbedtls/library/bignum.c:3155
    80b8:	340000b3 	cbz	w19, 80cc <mbedtls_mpi_self_test+0x3e0>
/home/xiang/rockpi4-android/optee_os/lib/libmbedtls/mbedtls/library/bignum.c:3156
    80bc:	f0000000 	adrp	x0, b000 <small_prime+0x140>
    80c0:	91219000 	add	x0, x0, #0x864
    80c4:	97ffe2cc 	bl	bf4 <puts>
    80c8:	17ffff55 	b	7e1c <mbedtls_mpi_self_test+0x130>
    80cc:	2a1303fb 	mov	w27, w19
    80d0:	17ffff53 	b	7e1c <mbedtls_mpi_self_test+0x130>
/home/xiang/rockpi4-android/optee_os/lib/libmbedtls/mbedtls/library/bignum.c:3160
    80d4:	52800013 	mov	w19, #0x0                   	// #0
/home/xiang/rockpi4-android/optee_os/lib/libmbedtls/mbedtls/library/bignum.c:3058
    80d8:	5280003b 	mov	w27, #0x1                   	// #1
    80dc:	17ffff5b 	b	7e48 <mbedtls_mpi_self_test+0x15c>

00000000000080e0 <mbedtls_ct_uchar_mask_of_range>:
mbedtls_ct_uchar_mask_of_range():
/home/xiang/rockpi4-android/optee_os/lib/libmbedtls/mbedtls/library/constant_time.c:167
    80e0:	12001c42 	and	w2, w2, #0xff
    80e4:	12001c21 	and	w1, w1, #0xff
/home/xiang/rockpi4-android/optee_os/lib/libmbedtls/mbedtls/library/constant_time.c:171
    80e8:	4b020021 	sub	w1, w1, w2
/home/xiang/rockpi4-android/optee_os/lib/libmbedtls/mbedtls/library/constant_time.c:169
    80ec:	4b200040 	sub	w0, w2, w0, uxtb
/home/xiang/rockpi4-android/optee_os/lib/libmbedtls/mbedtls/library/constant_time.c:171
    80f0:	53087c21 	lsr	w1, w1, #8
/home/xiang/rockpi4-android/optee_os/lib/libmbedtls/mbedtls/library/constant_time.c:172
    80f4:	2a402020 	orr	w0, w1, w0, lsr #8
/home/xiang/rockpi4-android/optee_os/lib/libmbedtls/mbedtls/library/constant_time.c:173
    80f8:	2a2003e0 	mvn	w0, w0
    80fc:	d65f03c0 	ret

0000000000008100 <mbedtls_ct_memcmp>:
mbedtls_ct_memcmp():
/home/xiang/rockpi4-android/optee_os/lib/libmbedtls/mbedtls/library/constant_time.c:52
    8100:	d10043ff 	sub	sp, sp, #0x10
/home/xiang/rockpi4-android/optee_os/lib/libmbedtls/mbedtls/library/constant_time.c:58
    8104:	d2800004 	mov	x4, #0x0                   	// #0
/home/xiang/rockpi4-android/optee_os/lib/libmbedtls/mbedtls/library/constant_time.c:56
    8108:	39003fff 	strb	wzr, [sp,#15]
/home/xiang/rockpi4-android/optee_os/lib/libmbedtls/mbedtls/library/constant_time.c:58 (discriminator 1)
    810c:	eb02009f 	cmp	x4, x2
    8110:	540000a1 	b.ne	8124 <mbedtls_ct_memcmp+0x24>
/home/xiang/rockpi4-android/optee_os/lib/libmbedtls/mbedtls/library/constant_time.c:67
    8114:	39403fe0 	ldrb	w0, [sp,#15]
/home/xiang/rockpi4-android/optee_os/lib/libmbedtls/mbedtls/library/constant_time.c:68
    8118:	910043ff 	add	sp, sp, #0x10
    811c:	12001c00 	and	w0, w0, #0xff
    8120:	d65f03c0 	ret
/home/xiang/rockpi4-android/optee_os/lib/libmbedtls/mbedtls/library/constant_time.c:63 (discriminator 3)
    8124:	38646805 	ldrb	w5, [x0,x4]
    8128:	38646823 	ldrb	w3, [x1,x4]
/home/xiang/rockpi4-android/optee_os/lib/libmbedtls/mbedtls/library/constant_time.c:58 (discriminator 3)
    812c:	91000484 	add	x4, x4, #0x1
/home/xiang/rockpi4-android/optee_os/lib/libmbedtls/mbedtls/library/constant_time.c:63 (discriminator 3)
    8130:	4a050063 	eor	w3, w3, w5
/home/xiang/rockpi4-android/optee_os/lib/libmbedtls/mbedtls/library/constant_time.c:64 (discriminator 3)
    8134:	39403fe5 	ldrb	w5, [sp,#15]
    8138:	2a050063 	orr	w3, w3, w5
    813c:	12001c63 	and	w3, w3, #0xff
    8140:	39003fe3 	strb	w3, [sp,#15]
    8144:	17fffff2 	b	810c <mbedtls_ct_memcmp+0xc>

0000000000008148 <mbedtls_ct_uint_mask>:
mbedtls_ct_uint_mask():
    8148:	4b0003e1 	neg	w1, w0
    814c:	2a000020 	orr	w0, w1, w0
    8150:	131f7c00 	asr	w0, w0, #31
    8154:	d65f03c0 	ret

0000000000008158 <mbedtls_ct_mpi_uint_mask>:
mbedtls_ct_mpi_uint_mask():
/home/xiang/rockpi4-android/optee_os/lib/libmbedtls/mbedtls/library/constant_time.c:112
    8158:	4b0003e1 	neg	w1, w0
    815c:	2a000020 	orr	w0, w1, w0
/home/xiang/rockpi4-android/optee_os/lib/libmbedtls/mbedtls/library/constant_time.c:116
    8160:	131f7c00 	asr	w0, w0, #31
    8164:	d65f03c0 	ret

0000000000008168 <mbedtls_ct_size_bool_eq>:
mbedtls_ct_size_bool_eq():
/home/xiang/rockpi4-android/optee_os/lib/libmbedtls/mbedtls/library/constant_time.c:181
    8168:	ca010001 	eor	x1, x0, x1
/home/xiang/rockpi4-android/optee_os/lib/libmbedtls/mbedtls/library/constant_time.c:191
    816c:	cb0103e0 	neg	x0, x1
    8170:	aa010000 	orr	x0, x0, x1
/home/xiang/rockpi4-android/optee_os/lib/libmbedtls/mbedtls/library/constant_time.c:198
    8174:	d37ffc00 	lsr	x0, x0, #63
/home/xiang/rockpi4-android/optee_os/lib/libmbedtls/mbedtls/library/constant_time.c:201
    8178:	52000000 	eor	w0, w0, #0x1
    817c:	d65f03c0 	ret

0000000000008180 <mbedtls_ct_mpi_uint_lt>:
mbedtls_ct_mpi_uint_lt():
/home/xiang/rockpi4-android/optee_os/lib/libmbedtls/mbedtls/library/constant_time.c:241
    8180:	4b010002 	sub	w2, w0, w1
/home/xiang/rockpi4-android/optee_os/lib/libmbedtls/mbedtls/library/constant_time.c:236
    8184:	4a010000 	eor	w0, w0, w1
/home/xiang/rockpi4-android/optee_os/lib/libmbedtls/mbedtls/library/constant_time.c:247
    8188:	4a020021 	eor	w1, w1, w2
    818c:	0a010000 	and	w0, w0, w1
    8190:	4a020000 	eor	w0, w0, w2
/home/xiang/rockpi4-android/optee_os/lib/libmbedtls/mbedtls/library/constant_time.c:253
    8194:	531f7c00 	lsr	w0, w0, #31
    8198:	d65f03c0 	ret

000000000000819c <mbedtls_ct_uint_if>:
mbedtls_ct_uint_if():
/home/xiang/rockpi4-android/optee_os/lib/libmbedtls/mbedtls/library/constant_time.c:260
    819c:	a9be7bfd 	stp	x29, x30, [sp,#-32]!
    81a0:	910003fd 	mov	x29, sp
    81a4:	a90153f3 	stp	x19, x20, [sp,#16]
    81a8:	2a0203f4 	mov	w20, w2
    81ac:	2a0103f3 	mov	w19, w1
/home/xiang/rockpi4-android/optee_os/lib/libmbedtls/mbedtls/library/constant_time.c:261
    81b0:	97ffffe6 	bl	8148 <mbedtls_ct_uint_mask>
/home/xiang/rockpi4-android/optee_os/lib/libmbedtls/mbedtls/library/constant_time.c:262
    81b4:	4a140273 	eor	w19, w19, w20
    81b8:	0a000260 	and	w0, w19, w0
/home/xiang/rockpi4-android/optee_os/lib/libmbedtls/mbedtls/library/constant_time.c:263
    81bc:	4a140000 	eor	w0, w0, w20
    81c0:	a94153f3 	ldp	x19, x20, [sp,#16]
    81c4:	a8c27bfd 	ldp	x29, x30, [sp],#32
    81c8:	d65f03c0 	ret

00000000000081cc <mbedtls_ct_mpi_uint_cond_assign>:
mbedtls_ct_mpi_uint_cond_assign():
/home/xiang/rockpi4-android/optee_os/lib/libmbedtls/mbedtls/library/constant_time.c:305
    81cc:	12001c63 	and	w3, w3, #0xff
/home/xiang/rockpi4-android/optee_os/lib/libmbedtls/mbedtls/library/constant_time.c:322
    81d0:	d2800004 	mov	x4, #0x0                   	// #0
/home/xiang/rockpi4-android/optee_os/lib/libmbedtls/mbedtls/library/constant_time.c:316
    81d4:	4b0303e7 	neg	w7, w3
/home/xiang/rockpi4-android/optee_os/lib/libmbedtls/mbedtls/library/constant_time.c:323
    81d8:	51000463 	sub	w3, w3, #0x1
/home/xiang/rockpi4-android/optee_os/lib/libmbedtls/mbedtls/library/constant_time.c:322 (discriminator 1)
    81dc:	eb00009f 	cmp	x4, x0
    81e0:	54000041 	b.ne	81e8 <mbedtls_ct_mpi_uint_cond_assign+0x1c>
/home/xiang/rockpi4-android/optee_os/lib/libmbedtls/mbedtls/library/constant_time.c:324
    81e4:	d65f03c0 	ret
/home/xiang/rockpi4-android/optee_os/lib/libmbedtls/mbedtls/library/constant_time.c:323 (discriminator 3)
    81e8:	b8647825 	ldr	w5, [x1,x4,lsl #2]
    81ec:	b8647846 	ldr	w6, [x2,x4,lsl #2]
    81f0:	0a050065 	and	w5, w3, w5
    81f4:	0a0600e6 	and	w6, w7, w6
    81f8:	2a0600a5 	orr	w5, w5, w6
    81fc:	b8247825 	str	w5, [x1,x4,lsl #2]
/home/xiang/rockpi4-android/optee_os/lib/libmbedtls/mbedtls/library/constant_time.c:322 (discriminator 3)
    8200:	91000484 	add	x4, x4, #0x1
    8204:	17fffff6 	b	81dc <mbedtls_ct_mpi_uint_cond_assign+0x10>

0000000000008208 <mbedtls_ct_base64_enc_char>:
mbedtls_ct_base64_enc_char():
/home/xiang/rockpi4-android/optee_os/lib/libmbedtls/mbedtls/library/constant_time.c:331
    8208:	a9bd7bfd 	stp	x29, x30, [sp,#-48]!
/home/xiang/rockpi4-android/optee_os/lib/libmbedtls/mbedtls/library/constant_time.c:336
    820c:	52800321 	mov	w1, #0x19                  	// #25
/home/xiang/rockpi4-android/optee_os/lib/libmbedtls/mbedtls/library/constant_time.c:331
    8210:	910003fd 	mov	x29, sp
    8214:	a90153f3 	stp	x19, x20, [sp,#16]
    8218:	12001c13 	and	w19, w0, #0xff
    821c:	a9025bf5 	stp	x21, x22, [sp,#32]
/home/xiang/rockpi4-android/optee_os/lib/libmbedtls/mbedtls/library/constant_time.c:336
    8220:	2a1303e2 	mov	w2, w19
    8224:	52800000 	mov	w0, #0x0                   	// #0
    8228:	97ffffae 	bl	80e0 <mbedtls_ct_uchar_mask_of_range>
/home/xiang/rockpi4-android/optee_os/lib/libmbedtls/mbedtls/library/constant_time.c:337
    822c:	2a1303e2 	mov	w2, w19
/home/xiang/rockpi4-android/optee_os/lib/libmbedtls/mbedtls/library/constant_time.c:336
    8230:	12001c14 	and	w20, w0, #0xff
/home/xiang/rockpi4-android/optee_os/lib/libmbedtls/mbedtls/library/constant_time.c:337
    8234:	52800661 	mov	w1, #0x33                  	// #51
    8238:	52800340 	mov	w0, #0x1a                  	// #26
    823c:	97ffffa9 	bl	80e0 <mbedtls_ct_uchar_mask_of_range>
    8240:	12001c01 	and	w1, w0, #0xff
/home/xiang/rockpi4-android/optee_os/lib/libmbedtls/mbedtls/library/constant_time.c:336
    8244:	11010664 	add	w4, w19, #0x41
/home/xiang/rockpi4-android/optee_os/lib/libmbedtls/mbedtls/library/constant_time.c:337
    8248:	11011e60 	add	w0, w19, #0x47
    824c:	0a010000 	and	w0, w0, w1
/home/xiang/rockpi4-android/optee_os/lib/libmbedtls/mbedtls/library/constant_time.c:336
    8250:	0a140084 	and	w4, w4, w20
    8254:	2a000084 	orr	w4, w4, w0
/home/xiang/rockpi4-android/optee_os/lib/libmbedtls/mbedtls/library/constant_time.c:338
    8258:	2a1303e2 	mov	w2, w19
    825c:	13001c96 	sxtb	w22, w4
    8260:	528007a1 	mov	w1, #0x3d                  	// #61
    8264:	52800680 	mov	w0, #0x34                  	// #52
    8268:	97ffff9e 	bl	80e0 <mbedtls_ct_uchar_mask_of_range>
    826c:	12001c14 	and	w20, w0, #0xff
/home/xiang/rockpi4-android/optee_os/lib/libmbedtls/mbedtls/library/constant_time.c:339
    8270:	2a1303e2 	mov	w2, w19
    8274:	528007c1 	mov	w1, #0x3e                  	// #62
    8278:	2a0103e0 	mov	w0, w1
    827c:	97ffff99 	bl	80e0 <mbedtls_ct_uchar_mask_of_range>
/home/xiang/rockpi4-android/optee_os/lib/libmbedtls/mbedtls/library/constant_time.c:340
    8280:	2a1303e2 	mov	w2, w19
/home/xiang/rockpi4-android/optee_os/lib/libmbedtls/mbedtls/library/constant_time.c:339
    8284:	12001c15 	and	w21, w0, #0xff
/home/xiang/rockpi4-android/optee_os/lib/libmbedtls/mbedtls/library/constant_time.c:340
    8288:	528007e1 	mov	w1, #0x3f                  	// #63
    828c:	2a0103e0 	mov	w0, w1
    8290:	97ffff94 	bl	80e0 <mbedtls_ct_uchar_mask_of_range>
/home/xiang/rockpi4-android/optee_os/lib/libmbedtls/mbedtls/library/constant_time.c:339
    8294:	52800561 	mov	w1, #0x2b                  	// #43
    8298:	0a0102a5 	and	w5, w21, w1
/home/xiang/rockpi4-android/optee_os/lib/libmbedtls/mbedtls/library/constant_time.c:340
    829c:	528005e1 	mov	w1, #0x2f                  	// #47
    82a0:	0a010000 	and	w0, w0, w1
    82a4:	2a0000a5 	orr	w5, w5, w0
/home/xiang/rockpi4-android/optee_os/lib/libmbedtls/mbedtls/library/constant_time.c:338
    82a8:	51001263 	sub	w3, w19, #0x4
/home/xiang/rockpi4-android/optee_os/lib/libmbedtls/mbedtls/library/constant_time.c:340
    82ac:	2a0502c0 	orr	w0, w22, w5
/home/xiang/rockpi4-android/optee_os/lib/libmbedtls/mbedtls/library/constant_time.c:338
    82b0:	0a140063 	and	w3, w3, w20
/home/xiang/rockpi4-android/optee_os/lib/libmbedtls/mbedtls/library/constant_time.c:342
    82b4:	2a030000 	orr	w0, w0, w3
    82b8:	a94153f3 	ldp	x19, x20, [sp,#16]
    82bc:	a9425bf5 	ldp	x21, x22, [sp,#32]
    82c0:	a8c37bfd 	ldp	x29, x30, [sp],#48
    82c4:	d65f03c0 	ret

00000000000082c8 <mbedtls_ct_base64_dec_value>:
mbedtls_ct_base64_dec_value():
/home/xiang/rockpi4-android/optee_os/lib/libmbedtls/mbedtls/library/constant_time.c:345
    82c8:	a9bd7bfd 	stp	x29, x30, [sp,#-48]!
/home/xiang/rockpi4-android/optee_os/lib/libmbedtls/mbedtls/library/constant_time.c:351
    82cc:	52800b41 	mov	w1, #0x5a                  	// #90
/home/xiang/rockpi4-android/optee_os/lib/libmbedtls/mbedtls/library/constant_time.c:345
    82d0:	910003fd 	mov	x29, sp
    82d4:	a90153f3 	stp	x19, x20, [sp,#16]
    82d8:	12001c13 	and	w19, w0, #0xff
    82dc:	f90013f5 	str	x21, [sp,#32]
/home/xiang/rockpi4-android/optee_os/lib/libmbedtls/mbedtls/library/constant_time.c:351
    82e0:	2a1303e2 	mov	w2, w19
    82e4:	52800820 	mov	w0, #0x41                  	// #65
    82e8:	97ffff7e 	bl	80e0 <mbedtls_ct_uchar_mask_of_range>
/home/xiang/rockpi4-android/optee_os/lib/libmbedtls/mbedtls/library/constant_time.c:352
    82ec:	2a1303e2 	mov	w2, w19
/home/xiang/rockpi4-android/optee_os/lib/libmbedtls/mbedtls/library/constant_time.c:351
    82f0:	12001c14 	and	w20, w0, #0xff
/home/xiang/rockpi4-android/optee_os/lib/libmbedtls/mbedtls/library/constant_time.c:352
    82f4:	52800f41 	mov	w1, #0x7a                  	// #122
    82f8:	52800c20 	mov	w0, #0x61                  	// #97
    82fc:	97ffff79 	bl	80e0 <mbedtls_ct_uchar_mask_of_range>
    8300:	12001c01 	and	w1, w0, #0xff
/home/xiang/rockpi4-android/optee_os/lib/libmbedtls/mbedtls/library/constant_time.c:351
    8304:	51010263 	sub	w3, w19, #0x40
/home/xiang/rockpi4-android/optee_os/lib/libmbedtls/mbedtls/library/constant_time.c:352
    8308:	51011a60 	sub	w0, w19, #0x46
    830c:	0a010000 	and	w0, w0, w1
/home/xiang/rockpi4-android/optee_os/lib/libmbedtls/mbedtls/library/constant_time.c:351
    8310:	0a140063 	and	w3, w3, w20
    8314:	2a000063 	orr	w3, w3, w0
/home/xiang/rockpi4-android/optee_os/lib/libmbedtls/mbedtls/library/constant_time.c:353
    8318:	2a1303e2 	mov	w2, w19
    831c:	13001c75 	sxtb	w21, w3
    8320:	52800721 	mov	w1, #0x39                  	// #57
    8324:	52800600 	mov	w0, #0x30                  	// #48
    8328:	97ffff6e 	bl	80e0 <mbedtls_ct_uchar_mask_of_range>
    832c:	12001c14 	and	w20, w0, #0xff
/home/xiang/rockpi4-android/optee_os/lib/libmbedtls/mbedtls/library/constant_time.c:354
    8330:	2a1303e2 	mov	w2, w19
    8334:	52800561 	mov	w1, #0x2b                  	// #43
    8338:	2a0103e0 	mov	w0, w1
    833c:	97ffff69 	bl	80e0 <mbedtls_ct_uchar_mask_of_range>
/home/xiang/rockpi4-android/optee_os/lib/libmbedtls/mbedtls/library/constant_time.c:353
    8340:	11001661 	add	w1, w19, #0x5
/home/xiang/rockpi4-android/optee_os/lib/libmbedtls/mbedtls/library/constant_time.c:354
    8344:	12001c02 	and	w2, w0, #0xff
    8348:	11005260 	add	w0, w19, #0x14
/home/xiang/rockpi4-android/optee_os/lib/libmbedtls/mbedtls/library/constant_time.c:353
    834c:	0a140021 	and	w1, w1, w20
/home/xiang/rockpi4-android/optee_os/lib/libmbedtls/mbedtls/library/constant_time.c:354
    8350:	0a020000 	and	w0, w0, w2
/home/xiang/rockpi4-android/optee_os/lib/libmbedtls/mbedtls/library/constant_time.c:355
    8354:	2a1303e2 	mov	w2, w19
    8358:	2a000020 	orr	w0, w1, w0
    835c:	528005e1 	mov	w1, #0x2f                  	// #47
    8360:	2a0002a3 	orr	w3, w21, w0
    8364:	2a0103e0 	mov	w0, w1
    8368:	13001c74 	sxtb	w20, w3
    836c:	97ffff5d 	bl	80e0 <mbedtls_ct_uchar_mask_of_range>
    8370:	12001c01 	and	w1, w0, #0xff
    8374:	11004660 	add	w0, w19, #0x11
/home/xiang/rockpi4-android/optee_os/lib/libmbedtls/mbedtls/library/constant_time.c:359
    8378:	f94013f5 	ldr	x21, [sp,#32]
/home/xiang/rockpi4-android/optee_os/lib/libmbedtls/mbedtls/library/constant_time.c:355
    837c:	0a010000 	and	w0, w0, w1
    8380:	2a000280 	orr	w0, w20, w0
/home/xiang/rockpi4-android/optee_os/lib/libmbedtls/mbedtls/library/constant_time.c:358
    8384:	51000400 	sub	w0, w0, #0x1
/home/xiang/rockpi4-android/optee_os/lib/libmbedtls/mbedtls/library/constant_time.c:359
    8388:	a94153f3 	ldp	x19, x20, [sp,#16]
    838c:	a8c37bfd 	ldp	x29, x30, [sp],#48
    8390:	d65f03c0 	ret

0000000000008394 <mbedtls_mpi_safe_cond_assign>:
mbedtls_mpi_safe_cond_assign():
/home/xiang/rockpi4-android/optee_os/lib/libmbedtls/mbedtls/library/constant_time.c:552
    8394:	a9bc7bfd 	stp	x29, x30, [sp,#-64]!
    8398:	910003fd 	mov	x29, sp
    839c:	a90153f3 	stp	x19, x20, [sp,#16]
    83a0:	aa0103f4 	mov	x20, x1
    83a4:	a9025bf5 	stp	x21, x22, [sp,#32]
    83a8:	12001c56 	and	w22, w2, #0xff
    83ac:	aa0003f3 	mov	x19, x0
    83b0:	f9001bf7 	str	x23, [sp,#48]
/home/xiang/rockpi4-android/optee_os/lib/libmbedtls/mbedtls/library/constant_time.c:560
    83b4:	2a1603e0 	mov	w0, w22
    83b8:	97ffff68 	bl	8158 <mbedtls_ct_mpi_uint_mask>
/home/xiang/rockpi4-android/optee_os/lib/libmbedtls/mbedtls/library/constant_time.c:562
    83bc:	f9400681 	ldr	x1, [x20,#8]
/home/xiang/rockpi4-android/optee_os/lib/libmbedtls/mbedtls/library/constant_time.c:560
    83c0:	2a0003f5 	mov	w21, w0
/home/xiang/rockpi4-android/optee_os/lib/libmbedtls/mbedtls/library/constant_time.c:562
    83c4:	aa1303e0 	mov	x0, x19
    83c8:	97fff1b1 	bl	4a8c <mbedtls_mpi_grow>
    83cc:	2a0003f7 	mov	w23, w0
    83d0:	35000280 	cbnz	w0, 8420 <mbedtls_mpi_safe_cond_assign+0x8c>
/home/xiang/rockpi4-android/optee_os/lib/libmbedtls/mbedtls/library/constant_time.c:564
    83d4:	79c00260 	ldrsh	w0, [x19]
/home/xiang/rockpi4-android/optee_os/lib/libmbedtls/mbedtls/library/constant_time.c:566
    83d8:	2a1603e3 	mov	w3, w22
/home/xiang/rockpi4-android/optee_os/lib/libmbedtls/mbedtls/library/constant_time.c:569
    83dc:	2a3503f5 	mvn	w21, w21
mbedtls_ct_cond_select_sign():
/home/xiang/rockpi4-android/optee_os/lib/libmbedtls/mbedtls/library/constant_time.c:289
    83e0:	11000401 	add	w1, w0, #0x1
mbedtls_mpi_safe_cond_assign():
/home/xiang/rockpi4-android/optee_os/lib/libmbedtls/mbedtls/library/constant_time.c:564
    83e4:	79c00280 	ldrsh	w0, [x20]
mbedtls_ct_cond_select_sign():
/home/xiang/rockpi4-android/optee_os/lib/libmbedtls/mbedtls/library/constant_time.c:288
    83e8:	11000400 	add	w0, w0, #0x1
/home/xiang/rockpi4-android/optee_os/lib/libmbedtls/mbedtls/library/constant_time.c:295
    83ec:	4a010000 	eor	w0, w0, w1
    83f0:	0a160400 	and	w0, w0, w22, lsl #1
    83f4:	4a010000 	eor	w0, w0, w1
mbedtls_mpi_safe_cond_assign():
/home/xiang/rockpi4-android/optee_os/lib/libmbedtls/mbedtls/library/constant_time.c:566
    83f8:	f9400a61 	ldr	x1, [x19,#16]
mbedtls_ct_cond_select_sign():
/home/xiang/rockpi4-android/optee_os/lib/libmbedtls/mbedtls/library/constant_time.c:298
    83fc:	51000400 	sub	w0, w0, #0x1
mbedtls_mpi_safe_cond_assign():
/home/xiang/rockpi4-android/optee_os/lib/libmbedtls/mbedtls/library/constant_time.c:564
    8400:	79000260 	strh	w0, [x19]
/home/xiang/rockpi4-android/optee_os/lib/libmbedtls/mbedtls/library/constant_time.c:566
    8404:	a9408a80 	ldp	x0, x2, [x20,#8]
    8408:	97ffff71 	bl	81cc <mbedtls_ct_mpi_uint_cond_assign>
/home/xiang/rockpi4-android/optee_os/lib/libmbedtls/mbedtls/library/constant_time.c:568
    840c:	f9400681 	ldr	x1, [x20,#8]
    8410:	f9400664 	ldr	x4, [x19,#8]
    8414:	d37ef420 	lsl	x0, x1, #2
/home/xiang/rockpi4-android/optee_os/lib/libmbedtls/mbedtls/library/constant_time.c:568 (discriminator 1)
    8418:	eb04003f 	cmp	x1, x4
    841c:	540000e3 	b.cc	8438 <mbedtls_mpi_safe_cond_assign+0xa4>
/home/xiang/rockpi4-android/optee_os/lib/libmbedtls/mbedtls/library/constant_time.c:573
    8420:	2a1703e0 	mov	w0, w23
    8424:	f9401bf7 	ldr	x23, [sp,#48]
    8428:	a94153f3 	ldp	x19, x20, [sp,#16]
    842c:	a9425bf5 	ldp	x21, x22, [sp,#32]
    8430:	a8c47bfd 	ldp	x29, x30, [sp],#64
    8434:	d65f03c0 	ret
/home/xiang/rockpi4-android/optee_os/lib/libmbedtls/mbedtls/library/constant_time.c:569 (discriminator 3)
    8438:	f9400a63 	ldr	x3, [x19,#16]
/home/xiang/rockpi4-android/optee_os/lib/libmbedtls/mbedtls/library/constant_time.c:568 (discriminator 3)
    843c:	91000421 	add	x1, x1, #0x1
/home/xiang/rockpi4-android/optee_os/lib/libmbedtls/mbedtls/library/constant_time.c:569 (discriminator 3)
    8440:	b8606862 	ldr	w2, [x3,x0]
    8444:	0a150042 	and	w2, w2, w21
    8448:	b8206862 	str	w2, [x3,x0]
    844c:	91001000 	add	x0, x0, #0x4
    8450:	17fffff2 	b	8418 <mbedtls_mpi_safe_cond_assign+0x84>

0000000000008454 <mbedtls_mpi_safe_cond_swap>:
mbedtls_mpi_safe_cond_swap():
/home/xiang/rockpi4-android/optee_os/lib/libmbedtls/mbedtls/library/constant_time.c:592
    8454:	eb01001f 	cmp	x0, x1
    8458:	54000061 	b.ne	8464 <mbedtls_mpi_safe_cond_swap+0x10>
/home/xiang/rockpi4-android/optee_os/lib/libmbedtls/mbedtls/library/constant_time.c:593
    845c:	52800000 	mov	w0, #0x0                   	// #0
/home/xiang/rockpi4-android/optee_os/lib/libmbedtls/mbedtls/library/constant_time.c:615
    8460:	d65f03c0 	ret
/home/xiang/rockpi4-android/optee_os/lib/libmbedtls/mbedtls/library/constant_time.c:584
    8464:	a9bd7bfd 	stp	x29, x30, [sp,#-48]!
    8468:	910003fd 	mov	x29, sp
    846c:	a9025bf5 	stp	x21, x22, [sp,#32]
    8470:	aa0103f5 	mov	x21, x1
    8474:	12001c56 	and	w22, w2, #0xff
    8478:	a90153f3 	stp	x19, x20, [sp,#16]
    847c:	aa0003f4 	mov	x20, x0
/home/xiang/rockpi4-android/optee_os/lib/libmbedtls/mbedtls/library/constant_time.c:596
    8480:	2a1603e0 	mov	w0, w22
    8484:	97ffff35 	bl	8158 <mbedtls_ct_mpi_uint_mask>
    8488:	2a0003f3 	mov	w19, w0
/home/xiang/rockpi4-android/optee_os/lib/libmbedtls/mbedtls/library/constant_time.c:598
    848c:	f94006a1 	ldr	x1, [x21,#8]
    8490:	aa1403e0 	mov	x0, x20
    8494:	97fff17e 	bl	4a8c <mbedtls_mpi_grow>
    8498:	35000360 	cbnz	w0, 8504 <mbedtls_mpi_safe_cond_swap+0xb0>
/home/xiang/rockpi4-android/optee_os/lib/libmbedtls/mbedtls/library/constant_time.c:599
    849c:	f9400681 	ldr	x1, [x20,#8]
    84a0:	aa1503e0 	mov	x0, x21
    84a4:	97fff17a 	bl	4a8c <mbedtls_mpi_grow>
    84a8:	350002e0 	cbnz	w0, 8504 <mbedtls_mpi_safe_cond_swap+0xb0>
/home/xiang/rockpi4-android/optee_os/lib/libmbedtls/mbedtls/library/constant_time.c:601
    84ac:	79c00283 	ldrsh	w3, [x20]
mbedtls_ct_cond_select_sign():
/home/xiang/rockpi4-android/optee_os/lib/libmbedtls/mbedtls/library/constant_time.c:292
    84b0:	531f7ad6 	lsl	w22, w22, #1
mbedtls_mpi_safe_cond_swap():
/home/xiang/rockpi4-android/optee_os/lib/libmbedtls/mbedtls/library/constant_time.c:602
    84b4:	79c002a4 	ldrsh	w4, [x21]
mbedtls_ct_cond_select_sign():
/home/xiang/rockpi4-android/optee_os/lib/libmbedtls/mbedtls/library/constant_time.c:289
    84b8:	11000463 	add	w3, w3, #0x1
mbedtls_mpi_safe_cond_swap():
/home/xiang/rockpi4-android/optee_os/lib/libmbedtls/mbedtls/library/constant_time.c:606
    84bc:	f9400686 	ldr	x6, [x20,#8]
mbedtls_ct_cond_select_sign():
/home/xiang/rockpi4-android/optee_os/lib/libmbedtls/mbedtls/library/constant_time.c:288
    84c0:	11000484 	add	w4, w4, #0x1
/home/xiang/rockpi4-android/optee_os/lib/libmbedtls/mbedtls/library/constant_time.c:295
    84c4:	4a030084 	eor	w4, w4, w3
    84c8:	0a160084 	and	w4, w4, w22
    84cc:	4a030084 	eor	w4, w4, w3
/home/xiang/rockpi4-android/optee_os/lib/libmbedtls/mbedtls/library/constant_time.c:298
    84d0:	51000484 	sub	w4, w4, #0x1
mbedtls_mpi_safe_cond_swap():
/home/xiang/rockpi4-android/optee_os/lib/libmbedtls/mbedtls/library/constant_time.c:602
    84d4:	79000284 	strh	w4, [x20]
/home/xiang/rockpi4-android/optee_os/lib/libmbedtls/mbedtls/library/constant_time.c:603
    84d8:	79c002a0 	ldrsh	w0, [x21]
mbedtls_ct_cond_select_sign():
/home/xiang/rockpi4-android/optee_os/lib/libmbedtls/mbedtls/library/constant_time.c:289
    84dc:	11000400 	add	w0, w0, #0x1
/home/xiang/rockpi4-android/optee_os/lib/libmbedtls/mbedtls/library/constant_time.c:295
    84e0:	4a030003 	eor	w3, w0, w3
    84e4:	0a160063 	and	w3, w3, w22
    84e8:	4a000063 	eor	w3, w3, w0
/home/xiang/rockpi4-android/optee_os/lib/libmbedtls/mbedtls/library/constant_time.c:298
    84ec:	51000463 	sub	w3, w3, #0x1
mbedtls_mpi_safe_cond_swap():
/home/xiang/rockpi4-android/optee_os/lib/libmbedtls/mbedtls/library/constant_time.c:603
    84f0:	790002a3 	strh	w3, [x21]
/home/xiang/rockpi4-android/optee_os/lib/libmbedtls/mbedtls/library/constant_time.c:606
    84f4:	d2800003 	mov	x3, #0x0                   	// #0
/home/xiang/rockpi4-android/optee_os/lib/libmbedtls/mbedtls/library/constant_time.c:606 (discriminator 1)
    84f8:	eb06007f 	cmp	x3, x6
    84fc:	540000c1 	b.ne	8514 <mbedtls_mpi_safe_cond_swap+0xc0>
/home/xiang/rockpi4-android/optee_os/lib/libmbedtls/mbedtls/library/constant_time.c:593
    8500:	52800000 	mov	w0, #0x0                   	// #0
/home/xiang/rockpi4-android/optee_os/lib/libmbedtls/mbedtls/library/constant_time.c:615
    8504:	a94153f3 	ldp	x19, x20, [sp,#16]
    8508:	a9425bf5 	ldp	x21, x22, [sp,#32]
    850c:	a8c37bfd 	ldp	x29, x30, [sp],#48
    8510:	d65f03c0 	ret
/home/xiang/rockpi4-android/optee_os/lib/libmbedtls/mbedtls/library/constant_time.c:609 (discriminator 3)
    8514:	f9400aa4 	ldr	x4, [x21,#16]
    8518:	d37ef462 	lsl	x2, x3, #2
/home/xiang/rockpi4-android/optee_os/lib/libmbedtls/mbedtls/library/constant_time.c:608 (discriminator 3)
    851c:	f9400a85 	ldr	x5, [x20,#16]
/home/xiang/rockpi4-android/optee_os/lib/libmbedtls/mbedtls/library/constant_time.c:606 (discriminator 3)
    8520:	91000463 	add	x3, x3, #0x1
/home/xiang/rockpi4-android/optee_os/lib/libmbedtls/mbedtls/library/constant_time.c:609 (discriminator 3)
    8524:	b8626881 	ldr	w1, [x4,x2]
/home/xiang/rockpi4-android/optee_os/lib/libmbedtls/mbedtls/library/constant_time.c:608 (discriminator 3)
    8528:	b86268a0 	ldr	w0, [x5,x2]
/home/xiang/rockpi4-android/optee_os/lib/libmbedtls/mbedtls/library/constant_time.c:609 (discriminator 3)
    852c:	4a010001 	eor	w1, w0, w1
    8530:	0a130021 	and	w1, w1, w19
    8534:	4a000021 	eor	w1, w1, w0
    8538:	b82268a1 	str	w1, [x5,x2]
/home/xiang/rockpi4-android/optee_os/lib/libmbedtls/mbedtls/library/constant_time.c:610 (discriminator 3)
    853c:	b8626881 	ldr	w1, [x4,x2]
    8540:	4a010000 	eor	w0, w0, w1
    8544:	0a130000 	and	w0, w0, w19
    8548:	4a010000 	eor	w0, w0, w1
    854c:	b8226880 	str	w0, [x4,x2]
    8550:	17ffffea 	b	84f8 <mbedtls_mpi_safe_cond_swap+0xa4>

0000000000008554 <mbedtls_mpi_lt_mpi_ct>:
mbedtls_mpi_lt_mpi_ct():
/home/xiang/rockpi4-android/optee_os/lib/libmbedtls/mbedtls/library/constant_time.c:623
    8554:	a9ba7bfd 	stp	x29, x30, [sp,#-96]!
    8558:	910003fd 	mov	x29, sp
    855c:	a90363f7 	stp	x23, x24, [sp,#48]
/home/xiang/rockpi4-android/optee_os/lib/libmbedtls/mbedtls/library/constant_time.c:632
    8560:	f9400423 	ldr	x3, [x1,#8]
    8564:	f9400418 	ldr	x24, [x0,#8]
/home/xiang/rockpi4-android/optee_os/lib/libmbedtls/mbedtls/library/constant_time.c:623
    8568:	a90153f3 	stp	x19, x20, [sp,#16]
    856c:	a9025bf5 	stp	x21, x22, [sp,#32]
/home/xiang/rockpi4-android/optee_os/lib/libmbedtls/mbedtls/library/constant_time.c:632
    8570:	eb03031f 	cmp	x24, x3
/home/xiang/rockpi4-android/optee_os/lib/libmbedtls/mbedtls/library/constant_time.c:623
    8574:	a9046bf9 	stp	x25, x26, [sp,#64]
    8578:	f9002bfb 	str	x27, [sp,#80]
/home/xiang/rockpi4-android/optee_os/lib/libmbedtls/mbedtls/library/constant_time.c:632
    857c:	54000681 	b.ne	864c <mbedtls_mpi_lt_mpi_ct+0xf8>
    8580:	aa0103f7 	mov	x23, x1
    8584:	aa0003f6 	mov	x22, x0
/home/xiang/rockpi4-android/optee_os/lib/libmbedtls/mbedtls/library/constant_time.c:639
    8588:	79400000 	ldrh	w0, [x0]
    858c:	d37ef713 	lsl	x19, x24, #2
/home/xiang/rockpi4-android/optee_os/lib/libmbedtls/mbedtls/library/constant_time.c:666
    8590:	5280003a 	mov	w26, #0x1                   	// #1
    8594:	aa0203f4 	mov	x20, x2
    8598:	d1001273 	sub	x19, x19, #0x4
/home/xiang/rockpi4-android/optee_os/lib/libmbedtls/mbedtls/library/constant_time.c:639
    859c:	13017c01 	asr	w1, w0, #1
/home/xiang/rockpi4-android/optee_os/lib/libmbedtls/mbedtls/library/constant_time.c:640
    85a0:	794002e0 	ldrh	w0, [x23]
/home/xiang/rockpi4-android/optee_os/lib/libmbedtls/mbedtls/library/constant_time.c:639
    85a4:	12000039 	and	w25, w1, #0x1
/home/xiang/rockpi4-android/optee_os/lib/libmbedtls/mbedtls/library/constant_time.c:677
    85a8:	4b19035b 	sub	w27, w26, w25
    85ac:	4a400420 	eor	w0, w1, w0, lsr #1
/home/xiang/rockpi4-android/optee_os/lib/libmbedtls/mbedtls/library/constant_time.c:647
    85b0:	12000015 	and	w21, w0, #0x1
/home/xiang/rockpi4-android/optee_os/lib/libmbedtls/mbedtls/library/constant_time.c:648
    85b4:	0a190000 	and	w0, w0, w25
    85b8:	b9000040 	str	w0, [x2]
/home/xiang/rockpi4-android/optee_os/lib/libmbedtls/mbedtls/library/constant_time.c:656 (discriminator 1)
    85bc:	b5000138 	cbnz	x24, 85e0 <mbedtls_mpi_lt_mpi_ct+0x8c>
/home/xiang/rockpi4-android/optee_os/lib/libmbedtls/mbedtls/library/constant_time.c:681
    85c0:	52800000 	mov	w0, #0x0                   	// #0
/home/xiang/rockpi4-android/optee_os/lib/libmbedtls/mbedtls/library/constant_time.c:682
    85c4:	a94153f3 	ldp	x19, x20, [sp,#16]
    85c8:	a9425bf5 	ldp	x21, x22, [sp,#32]
    85cc:	a94363f7 	ldp	x23, x24, [sp,#48]
    85d0:	a9446bf9 	ldp	x25, x26, [sp,#64]
    85d4:	f9402bfb 	ldr	x27, [sp,#80]
    85d8:	a8c67bfd 	ldp	x29, x30, [sp],#96
    85dc:	d65f03c0 	ret
/home/xiang/rockpi4-android/optee_os/lib/libmbedtls/mbedtls/library/constant_time.c:665 (discriminator 3)
    85e0:	f9400ac1 	ldr	x1, [x22,#16]
/home/xiang/rockpi4-android/optee_os/lib/libmbedtls/mbedtls/library/constant_time.c:656 (discriminator 3)
    85e4:	d1000718 	sub	x24, x24, #0x1
/home/xiang/rockpi4-android/optee_os/lib/libmbedtls/mbedtls/library/constant_time.c:665 (discriminator 3)
    85e8:	f9400ae0 	ldr	x0, [x23,#16]
    85ec:	b8736821 	ldr	w1, [x1,x19]
    85f0:	b8736800 	ldr	w0, [x0,x19]
    85f4:	97fffee3 	bl	8180 <mbedtls_ct_mpi_uint_lt>
/home/xiang/rockpi4-android/optee_os/lib/libmbedtls/mbedtls/library/constant_time.c:666 (discriminator 3)
    85f8:	4b150341 	sub	w1, w26, w21
    85fc:	b9400282 	ldr	w2, [x20]
    8600:	0a190021 	and	w1, w1, w25
/home/xiang/rockpi4-android/optee_os/lib/libmbedtls/mbedtls/library/constant_time.c:667 (discriminator 3)
    8604:	2a0002b5 	orr	w21, w21, w0
/home/xiang/rockpi4-android/optee_os/lib/libmbedtls/mbedtls/library/constant_time.c:666 (discriminator 3)
    8608:	0a000021 	and	w1, w1, w0
/home/xiang/rockpi4-android/optee_os/lib/libmbedtls/mbedtls/library/constant_time.c:676 (discriminator 3)
    860c:	f9400ac0 	ldr	x0, [x22,#16]
/home/xiang/rockpi4-android/optee_os/lib/libmbedtls/mbedtls/library/constant_time.c:666 (discriminator 3)
    8610:	2a010041 	orr	w1, w2, w1
    8614:	b9000281 	str	w1, [x20]
/home/xiang/rockpi4-android/optee_os/lib/libmbedtls/mbedtls/library/constant_time.c:676 (discriminator 3)
    8618:	f9400ae1 	ldr	x1, [x23,#16]
    861c:	b8736800 	ldr	w0, [x0,x19]
    8620:	b8736821 	ldr	w1, [x1,x19]
    8624:	d1001273 	sub	x19, x19, #0x4
    8628:	97fffed6 	bl	8180 <mbedtls_ct_mpi_uint_lt>
/home/xiang/rockpi4-android/optee_os/lib/libmbedtls/mbedtls/library/constant_time.c:677 (discriminator 3)
    862c:	0a000361 	and	w1, w27, w0
    8630:	4b150342 	sub	w2, w26, w21
/home/xiang/rockpi4-android/optee_os/lib/libmbedtls/mbedtls/library/constant_time.c:678 (discriminator 3)
    8634:	2a0002b5 	orr	w21, w21, w0
/home/xiang/rockpi4-android/optee_os/lib/libmbedtls/mbedtls/library/constant_time.c:677 (discriminator 3)
    8638:	0a020022 	and	w2, w1, w2
    863c:	b9400281 	ldr	w1, [x20]
    8640:	2a020021 	orr	w1, w1, w2
    8644:	b9000281 	str	w1, [x20]
    8648:	17ffffdd 	b	85bc <mbedtls_mpi_lt_mpi_ct+0x68>
/home/xiang/rockpi4-android/optee_os/lib/libmbedtls/mbedtls/library/constant_time.c:633
    864c:	12800060 	mov	w0, #0xfffffffc            	// #-4
    8650:	17ffffdd 	b	85c4 <mbedtls_mpi_lt_mpi_ct+0x70>

0000000000008654 <mbedtls_ct_rsaes_pkcs1_v15_unpadding>:
mbedtls_ct_rsaes_pkcs1_v15_unpadding():
/home/xiang/rockpi4-android/optee_os/lib/libmbedtls/mbedtls/library/constant_time.c:694
    8654:	a9b87bfd 	stp	x29, x30, [sp,#-128]!
    8658:	910003fd 	mov	x29, sp
    865c:	a9025bf5 	stp	x21, x22, [sp,#32]
    8660:	aa0203f5 	mov	x21, x2
    8664:	a90153f3 	stp	x19, x20, [sp,#16]
/home/xiang/rockpi4-android/optee_os/lib/libmbedtls/mbedtls/library/constant_time.c:714
    8668:	d1002c54 	sub	x20, x2, #0xb
/home/xiang/rockpi4-android/optee_os/lib/libmbedtls/mbedtls/library/constant_time.c:694
    866c:	a90363f7 	stp	x23, x24, [sp,#48]
/home/xiang/rockpi4-android/optee_os/lib/libmbedtls/mbedtls/library/constant_time.c:714
    8670:	eb04029f 	cmp	x20, x4
/home/xiang/rockpi4-android/optee_os/lib/libmbedtls/mbedtls/library/constant_time.c:694
    8674:	a9046bf9 	stp	x25, x26, [sp,#64]
/home/xiang/rockpi4-android/optee_os/lib/libmbedtls/mbedtls/library/constant_time.c:714
    8678:	9a849294 	csel	x20, x20, x4, ls
/home/xiang/rockpi4-android/optee_os/lib/libmbedtls/mbedtls/library/constant_time.c:694
    867c:	a90573fb 	stp	x27, x28, [sp,#80]
/home/xiang/rockpi4-android/optee_os/lib/libmbedtls/mbedtls/library/constant_time.c:721
    8680:	7100041f 	cmp	w0, #0x1
/home/xiang/rockpi4-android/optee_os/lib/libmbedtls/mbedtls/library/constant_time.c:694
    8684:	f9003fa5 	str	x5, [x29,#120]
    8688:	aa0103f9 	mov	x25, x1
    868c:	aa0303f8 	mov	x24, x3
    8690:	aa0403f6 	mov	x22, x4
/home/xiang/rockpi4-android/optee_os/lib/libmbedtls/mbedtls/library/constant_time.c:719
    8694:	39400033 	ldrb	w19, [x1]
    8698:	39400420 	ldrb	w0, [x1,#1]
/home/xiang/rockpi4-android/optee_os/lib/libmbedtls/mbedtls/library/constant_time.c:721
    869c:	54000981 	b.ne	87cc <mbedtls_ct_rsaes_pkcs1_v15_unpadding+0x178>
/home/xiang/rockpi4-android/optee_os/lib/libmbedtls/mbedtls/library/constant_time.c:725
    86a0:	521f0000 	eor	w0, w0, #0x2
/home/xiang/rockpi4-android/optee_os/lib/libmbedtls/mbedtls/library/constant_time.c:710
    86a4:	5280001a 	mov	w26, #0x0                   	// #0
/home/xiang/rockpi4-android/optee_os/lib/libmbedtls/mbedtls/library/constant_time.c:725
    86a8:	2a000273 	orr	w19, w19, w0
/home/xiang/rockpi4-android/optee_os/lib/libmbedtls/mbedtls/library/constant_time.c:708
    86ac:	d280001b 	mov	x27, #0x0                   	// #0
/home/xiang/rockpi4-android/optee_os/lib/libmbedtls/mbedtls/library/constant_time.c:725
    86b0:	12001e73 	and	w19, w19, #0xff
/home/xiang/rockpi4-android/optee_os/lib/libmbedtls/mbedtls/library/constant_time.c:729
    86b4:	d2800041 	mov	x1, #0x2                   	// #2
/home/xiang/rockpi4-android/optee_os/lib/libmbedtls/mbedtls/library/constant_time.c:729 (discriminator 1)
    86b8:	eb15003f 	cmp	x1, x21
    86bc:	540006e3 	b.cc	8798 <mbedtls_ct_rsaes_pkcs1_v15_unpadding+0x144>
/home/xiang/rockpi4-android/optee_os/lib/libmbedtls/mbedtls/library/constant_time.c:753
    86c0:	52800022 	mov	w2, #0x1                   	// #1
    86c4:	52800001 	mov	w1, #0x0                   	// #0
    86c8:	2a1a03e0 	mov	w0, w26
    86cc:	97fffeb4 	bl	819c <mbedtls_ct_uint_if>
mbedtls_ct_size_gt():
/home/xiang/rockpi4-android/optee_os/lib/libmbedtls/mbedtls/library/constant_time.c:220
    86d0:	d1002361 	sub	x1, x27, #0x8
mbedtls_ct_rsaes_pkcs1_v15_unpadding():
/home/xiang/rockpi4-android/optee_os/lib/libmbedtls/mbedtls/library/constant_time.c:753
    86d4:	2a000273 	orr	w19, w19, w0
mbedtls_ct_size_gt():
/home/xiang/rockpi4-android/optee_os/lib/libmbedtls/mbedtls/library/constant_time.c:220
    86d8:	d37ffc20 	lsr	x0, x1, #63
mbedtls_ct_rsaes_pkcs1_v15_unpadding():
/home/xiang/rockpi4-android/optee_os/lib/libmbedtls/mbedtls/library/constant_time.c:765
    86dc:	51000ea2 	sub	w2, w21, #0x3
/home/xiang/rockpi4-android/optee_os/lib/libmbedtls/mbedtls/library/constant_time.c:756
    86e0:	2a000273 	orr	w19, w19, w0
/home/xiang/rockpi4-android/optee_os/lib/libmbedtls/mbedtls/library/constant_time.c:765
    86e4:	4b1b0042 	sub	w2, w2, w27
    86e8:	2a1403e1 	mov	w1, w20
    86ec:	2a1303e0 	mov	w0, w19
    86f0:	97fffeab 	bl	819c <mbedtls_ct_uint_if>
mbedtls_ct_size_gt():
/home/xiang/rockpi4-android/optee_os/lib/libmbedtls/mbedtls/library/constant_time.c:220
    86f4:	cb20429b 	sub	x27, x20, w0, uxtw
    86f8:	d37fff77 	lsr	x23, x27, #63
mbedtls_ct_rsaes_pkcs1_v15_unpadding():
/home/xiang/rockpi4-android/optee_os/lib/libmbedtls/mbedtls/library/constant_time.c:779
    86fc:	52800002 	mov	w2, #0x0                   	// #0
    8700:	52888001 	mov	w1, #0x4400                	// #17408
/home/xiang/rockpi4-android/optee_os/lib/libmbedtls/mbedtls/library/constant_time.c:765
    8704:	2a0003fc 	mov	w28, w0
/home/xiang/rockpi4-android/optee_os/lib/libmbedtls/mbedtls/library/constant_time.c:779
    8708:	2a1703e0 	mov	w0, w23
    870c:	97fffea4 	bl	819c <mbedtls_ct_uint_if>
    8710:	2a0003e2 	mov	w2, w0
    8714:	52882001 	mov	w1, #0x4100                	// #16640
    8718:	2a1303e0 	mov	w0, w19
    871c:	97fffea0 	bl	819c <mbedtls_ct_uint_if>
    8720:	4b0003fa 	neg	w26, w0
/home/xiang/rockpi4-android/optee_os/lib/libmbedtls/mbedtls/library/constant_time.c:791
    8724:	2a170260 	orr	w0, w19, w23
    8728:	97fffe88 	bl	8148 <mbedtls_ct_uint_mask>
/home/xiang/rockpi4-android/optee_os/lib/libmbedtls/mbedtls/library/constant_time.c:793
    872c:	2a2003e0 	mvn	w0, w0
/home/xiang/rockpi4-android/optee_os/lib/libmbedtls/mbedtls/library/constant_time.c:792
    8730:	d2800161 	mov	x1, #0xb                   	// #11
/home/xiang/rockpi4-android/optee_os/lib/libmbedtls/mbedtls/library/constant_time.c:792 (discriminator 1)
    8734:	eb15003f 	cmp	x1, x21
    8738:	54000823 	b.cc	883c <mbedtls_ct_rsaes_pkcs1_v15_unpadding+0x1e8>
/home/xiang/rockpi4-android/optee_os/lib/libmbedtls/mbedtls/library/constant_time.c:809
    873c:	cb1402b5 	sub	x21, x21, x20
/home/xiang/rockpi4-android/optee_os/lib/libmbedtls/mbedtls/library/constant_time.c:799
    8740:	2a1c03e2 	mov	w2, w28
    8744:	2a1403e1 	mov	w1, w20
    8748:	2a1703e0 	mov	w0, w23
/home/xiang/rockpi4-android/optee_os/lib/libmbedtls/mbedtls/library/constant_time.c:809
    874c:	8b150339 	add	x25, x25, x21
/home/xiang/rockpi4-android/optee_os/lib/libmbedtls/mbedtls/library/constant_time.c:799
    8750:	97fffe93 	bl	819c <mbedtls_ct_uint_if>
    8754:	2a0003f3 	mov	w19, w0
mbedtls_ct_mem_move_to_left():
/home/xiang/rockpi4-android/optee_os/lib/libmbedtls/mbedtls/library/constant_time.c:387
    8758:	b50007d4 	cbnz	x20, 8850 <mbedtls_ct_rsaes_pkcs1_v15_unpadding+0x1fc>
mbedtls_ct_rsaes_pkcs1_v15_unpadding():
/home/xiang/rockpi4-android/optee_os/lib/libmbedtls/mbedtls/library/constant_time.c:820
    875c:	b40000b6 	cbz	x22, 8770 <mbedtls_ct_rsaes_pkcs1_v15_unpadding+0x11c>
/home/xiang/rockpi4-android/optee_os/lib/libmbedtls/mbedtls/library/constant_time.c:821
    8760:	aa1403e2 	mov	x2, x20
    8764:	aa1903e1 	mov	x1, x25
    8768:	aa1803e0 	mov	x0, x24
    876c:	97ffde2d 	bl	20 <memcpy>
/home/xiang/rockpi4-android/optee_os/lib/libmbedtls/mbedtls/library/constant_time.c:827
    8770:	f9403fa0 	ldr	x0, [x29,#120]
/home/xiang/rockpi4-android/optee_os/lib/libmbedtls/mbedtls/library/constant_time.c:830
    8774:	a9425bf5 	ldp	x21, x22, [sp,#32]
    8778:	a94363f7 	ldp	x23, x24, [sp,#48]
    877c:	a94573fb 	ldp	x27, x28, [sp,#80]
/home/xiang/rockpi4-android/optee_os/lib/libmbedtls/mbedtls/library/constant_time.c:827
    8780:	f9000013 	str	x19, [x0]
/home/xiang/rockpi4-android/optee_os/lib/libmbedtls/mbedtls/library/constant_time.c:830
    8784:	2a1a03e0 	mov	w0, w26
    8788:	a94153f3 	ldp	x19, x20, [sp,#16]
    878c:	a9446bf9 	ldp	x25, x26, [sp,#64]
    8790:	a8c87bfd 	ldp	x29, x30, [sp],#128
    8794:	d65f03c0 	ret
/home/xiang/rockpi4-android/optee_os/lib/libmbedtls/mbedtls/library/constant_time.c:731 (discriminator 3)
    8798:	38616b20 	ldrb	w0, [x25,x1]
/home/xiang/rockpi4-android/optee_os/lib/libmbedtls/mbedtls/library/constant_time.c:729 (discriminator 3)
    879c:	91000421 	add	x1, x1, #0x1
/home/xiang/rockpi4-android/optee_os/lib/libmbedtls/mbedtls/library/constant_time.c:731 (discriminator 3)
    87a0:	4b0003e2 	neg	w2, w0
    87a4:	2a020000 	orr	w0, w0, w2
    87a8:	d3471c00 	ubfx	x0, x0, #7, #1
    87ac:	52000000 	eor	w0, w0, #0x1
    87b0:	2a00035a 	orr	w26, w26, w0
/home/xiang/rockpi4-android/optee_os/lib/libmbedtls/mbedtls/library/constant_time.c:732 (discriminator 3)
    87b4:	4b1a03e0 	neg	w0, w26
    87b8:	2a000340 	orr	w0, w26, w0
    87bc:	d2790000 	eor	x0, x0, #0x80
    87c0:	d3471c00 	ubfx	x0, x0, #7, #1
    87c4:	8b00037b 	add	x27, x27, x0
    87c8:	17ffffbc 	b	86b8 <mbedtls_ct_rsaes_pkcs1_v15_unpadding+0x64>
/home/xiang/rockpi4-android/optee_os/lib/libmbedtls/mbedtls/library/constant_time.c:739
    87cc:	52000000 	eor	w0, w0, #0x1
/home/xiang/rockpi4-android/optee_os/lib/libmbedtls/mbedtls/library/constant_time.c:710
    87d0:	5280001a 	mov	w26, #0x0                   	// #0
/home/xiang/rockpi4-android/optee_os/lib/libmbedtls/mbedtls/library/constant_time.c:739
    87d4:	2a000273 	orr	w19, w19, w0
/home/xiang/rockpi4-android/optee_os/lib/libmbedtls/mbedtls/library/constant_time.c:708
    87d8:	d280001b 	mov	x27, #0x0                   	// #0
/home/xiang/rockpi4-android/optee_os/lib/libmbedtls/mbedtls/library/constant_time.c:739
    87dc:	12001e73 	and	w19, w19, #0xff
/home/xiang/rockpi4-android/optee_os/lib/libmbedtls/mbedtls/library/constant_time.c:744
    87e0:	d280005c 	mov	x28, #0x2                   	// #2
/home/xiang/rockpi4-android/optee_os/lib/libmbedtls/mbedtls/library/constant_time.c:744 (discriminator 1)
    87e4:	eb15039f 	cmp	x28, x21
    87e8:	54fff6c2 	b.cs	86c0 <mbedtls_ct_rsaes_pkcs1_v15_unpadding+0x6c>
/home/xiang/rockpi4-android/optee_os/lib/libmbedtls/mbedtls/library/constant_time.c:746 (discriminator 3)
    87ec:	387c6b20 	ldrb	w0, [x25,x28]
    87f0:	52800022 	mov	w2, #0x1                   	// #1
    87f4:	52800001 	mov	w1, #0x0                   	// #0
    87f8:	97fffe69 	bl	819c <mbedtls_ct_uint_if>
    87fc:	2a00035a 	orr	w26, w26, w0
    8800:	12001f5a 	and	w26, w26, #0xff
/home/xiang/rockpi4-android/optee_os/lib/libmbedtls/mbedtls/library/constant_time.c:747 (discriminator 3)
    8804:	52800022 	mov	w2, #0x1                   	// #1
    8808:	52800001 	mov	w1, #0x0                   	// #0
    880c:	2a1a03e0 	mov	w0, w26
    8810:	97fffe63 	bl	819c <mbedtls_ct_uint_if>
    8814:	8b20437b 	add	x27, x27, w0, uxtw
/home/xiang/rockpi4-android/optee_os/lib/libmbedtls/mbedtls/library/constant_time.c:748 (discriminator 3)
    8818:	387c6b22 	ldrb	w2, [x25,x28]
    881c:	52800001 	mov	w1, #0x0                   	// #0
    8820:	2a1a03e0 	mov	w0, w26
/home/xiang/rockpi4-android/optee_os/lib/libmbedtls/mbedtls/library/constant_time.c:744 (discriminator 3)
    8824:	9100079c 	add	x28, x28, #0x1
/home/xiang/rockpi4-android/optee_os/lib/libmbedtls/mbedtls/library/constant_time.c:748 (discriminator 3)
    8828:	2a2203e2 	mvn	w2, w2
    882c:	12001c42 	and	w2, w2, #0xff
    8830:	97fffe5b 	bl	819c <mbedtls_ct_uint_if>
    8834:	2a000273 	orr	w19, w19, w0
    8838:	17ffffeb 	b	87e4 <mbedtls_ct_rsaes_pkcs1_v15_unpadding+0x190>
/home/xiang/rockpi4-android/optee_os/lib/libmbedtls/mbedtls/library/constant_time.c:793 (discriminator 3)
    883c:	38616b22 	ldrb	w2, [x25,x1]
    8840:	0a020002 	and	w2, w0, w2
    8844:	38216b22 	strb	w2, [x25,x1]
/home/xiang/rockpi4-android/optee_os/lib/libmbedtls/mbedtls/library/constant_time.c:792 (discriminator 3)
    8848:	91000421 	add	x1, x1, #0x1
    884c:	17ffffba 	b	8734 <mbedtls_ct_rsaes_pkcs1_v15_unpadding+0xe0>
mbedtls_ct_mem_move_to_left():
/home/xiang/rockpi4-android/optee_os/lib/libmbedtls/mbedtls/library/constant_time.c:395
    8850:	d1000697 	sub	x23, x20, #0x1
/home/xiang/rockpi4-android/optee_os/lib/libmbedtls/mbedtls/library/constant_time.c:387
    8854:	d280001b 	mov	x27, #0x0                   	// #0
mbedtls_ct_size_gt():
/home/xiang/rockpi4-android/optee_os/lib/libmbedtls/mbedtls/library/constant_time.c:220
    8858:	cb13037c 	sub	x28, x27, x19
mbedtls_ct_mem_move_to_left():
/home/xiang/rockpi4-android/optee_os/lib/libmbedtls/mbedtls/library/constant_time.c:395
    885c:	d2800015 	mov	x21, #0x0                   	// #0
mbedtls_ct_size_gt():
/home/xiang/rockpi4-android/optee_os/lib/libmbedtls/mbedtls/library/constant_time.c:220
    8860:	d37fff80 	lsr	x0, x28, #63
    8864:	aa0003fc 	mov	x28, x0
    8868:	2a0003e5 	mov	w5, w0
mbedtls_ct_mem_move_to_left():
/home/xiang/rockpi4-android/optee_os/lib/libmbedtls/mbedtls/library/constant_time.c:395
    886c:	eb1702bf 	cmp	x21, x23
    8870:	54000183 	b.cc	88a0 <mbedtls_ct_rsaes_pkcs1_v15_unpadding+0x24c>
/home/xiang/rockpi4-android/optee_os/lib/libmbedtls/mbedtls/library/constant_time.c:401
    8874:	38776b21 	ldrb	w1, [x25,x23]
    8878:	52800002 	mov	w2, #0x0                   	// #0
    887c:	2a1c03e0 	mov	w0, w28
/home/xiang/rockpi4-android/optee_os/lib/libmbedtls/mbedtls/library/constant_time.c:389
    8880:	9100077b 	add	x27, x27, #0x1
/home/xiang/rockpi4-android/optee_os/lib/libmbedtls/mbedtls/library/constant_time.c:401
    8884:	12001c21 	and	w1, w1, #0xff
    8888:	97fffe45 	bl	819c <mbedtls_ct_uint_if>
    888c:	12001c00 	and	w0, w0, #0xff
    8890:	38376b20 	strb	w0, [x25,x23]
/home/xiang/rockpi4-android/optee_os/lib/libmbedtls/mbedtls/library/constant_time.c:389
    8894:	eb1b029f 	cmp	x20, x27
    8898:	54fffe01 	b.ne	8858 <mbedtls_ct_rsaes_pkcs1_v15_unpadding+0x204>
    889c:	17ffffb0 	b	875c <mbedtls_ct_rsaes_pkcs1_v15_unpadding+0x108>
/home/xiang/rockpi4-android/optee_os/lib/libmbedtls/mbedtls/library/constant_time.c:398
    88a0:	910006a4 	add	x4, x21, #0x1
/home/xiang/rockpi4-android/optee_os/lib/libmbedtls/mbedtls/library/constant_time.c:397
    88a4:	38756b21 	ldrb	w1, [x25,x21]
/home/xiang/rockpi4-android/optee_os/lib/libmbedtls/mbedtls/library/constant_time.c:399
    88a8:	2a0503e0 	mov	w0, w5
/home/xiang/rockpi4-android/optee_os/lib/libmbedtls/mbedtls/library/constant_time.c:398
    88ac:	f90037a4 	str	x4, [x29,#104]
/home/xiang/rockpi4-android/optee_os/lib/libmbedtls/mbedtls/library/constant_time.c:399
    88b0:	b90077a5 	str	w5, [x29,#116]
    88b4:	12001c21 	and	w1, w1, #0xff
/home/xiang/rockpi4-android/optee_os/lib/libmbedtls/mbedtls/library/constant_time.c:398
    88b8:	38646b22 	ldrb	w2, [x25,x4]
/home/xiang/rockpi4-android/optee_os/lib/libmbedtls/mbedtls/library/constant_time.c:399
    88bc:	12001c42 	and	w2, w2, #0xff
    88c0:	97fffe37 	bl	819c <mbedtls_ct_uint_if>
/home/xiang/rockpi4-android/optee_os/lib/libmbedtls/mbedtls/library/constant_time.c:395
    88c4:	f94037a4 	ldr	x4, [x29,#104]
/home/xiang/rockpi4-android/optee_os/lib/libmbedtls/mbedtls/library/constant_time.c:399
    88c8:	12001c00 	and	w0, w0, #0xff
/home/xiang/rockpi4-android/optee_os/lib/libmbedtls/mbedtls/library/constant_time.c:395
    88cc:	b94077a5 	ldr	w5, [x29,#116]
/home/xiang/rockpi4-android/optee_os/lib/libmbedtls/mbedtls/library/constant_time.c:399
    88d0:	38356b20 	strb	w0, [x25,x21]
/home/xiang/rockpi4-android/optee_os/lib/libmbedtls/mbedtls/library/constant_time.c:395
    88d4:	aa0403f5 	mov	x21, x4
    88d8:	17ffffe5 	b	886c <mbedtls_ct_rsaes_pkcs1_v15_unpadding+0x218>

00000000000088dc <mbedtls_platform_zeroize>:
mbedtls_platform_zeroize():
/home/xiang/rockpi4-android/optee_os/lib/libmbedtls/mbedtls/library/platform_util.c:71
    88dc:	b40000c1 	cbz	x1, 88f4 <mbedtls_platform_zeroize+0x18>
/home/xiang/rockpi4-android/optee_os/lib/libmbedtls/mbedtls/library/platform_util.c:72
    88e0:	b0000022 	adrp	x2, d000 <_DYNAMIC>
    88e4:	f9423043 	ldr	x3, [x2,#1120]
    88e8:	aa0103e2 	mov	x2, x1
    88ec:	52800001 	mov	w1, #0x0                   	// #0
    88f0:	d61f0060 	br	x3
    88f4:	d65f03c0 	ret

00000000000088f8 <raw_malloc_return_hook>:
raw_malloc_return_hook():
/home/xiang/rockpi4-android/optee_os/lib/libutils/isoc/bget_malloc.c:277
    88f8:	b9406c44 	ldr	w4, [x2,#108]
    88fc:	f9401043 	ldr	x3, [x2,#32]
    8900:	eb04007f 	cmp	x3, x4
    8904:	5400004d 	b.le	890c <raw_malloc_return_hook+0x14>
/home/xiang/rockpi4-android/optee_os/lib/libutils/isoc/bget_malloc.c:278
    8908:	b9006c43 	str	w3, [x2,#108]
/home/xiang/rockpi4-android/optee_os/lib/libutils/isoc/bget_malloc.c:280
    890c:	b5000100 	cbnz	x0, 892c <raw_malloc_return_hook+0x34>
/home/xiang/rockpi4-android/optee_os/lib/libutils/isoc/bget_malloc.c:281
    8910:	b9407444 	ldr	w4, [x2,#116]
    8914:	11000484 	add	w4, w4, #0x1
    8918:	b9007444 	str	w4, [x2,#116]
/home/xiang/rockpi4-android/optee_os/lib/libutils/isoc/bget_malloc.c:283
    891c:	b9407844 	ldr	w4, [x2,#120]
    8920:	eb04003f 	cmp	x1, x4
    8924:	54000049 	b.ls	892c <raw_malloc_return_hook+0x34>
/home/xiang/rockpi4-android/optee_os/lib/libutils/isoc/bget_malloc.c:285
    8928:	290f0c41 	stp	w1, w3, [x2,#120]
/home/xiang/rockpi4-android/optee_os/lib/libutils/isoc/bget_malloc.c:291
    892c:	d65f03c0 	ret

0000000000008930 <bget>:
bget():
/home/xiang/rockpi4-android/optee_os/lib/libutils/isoc/bget.c:612
    8930:	a9bf7bfd 	stp	x29, x30, [sp,#-16]!
/home/xiang/rockpi4-android/optee_os/lib/libutils/isoc/bget.c:625
    8934:	f100005f 	cmp	x2, #0x0
/home/xiang/rockpi4-android/optee_os/lib/libutils/isoc/bget.c:612
    8938:	910003fd 	mov	x29, sp
/home/xiang/rockpi4-android/optee_os/lib/libutils/isoc/bget.c:625
    893c:	5400016c 	b.gt	8968 <bget+0x38>
/home/xiang/rockpi4-android/optee_os/lib/libutils/isoc/bget.c:625 (discriminator 1)
    8940:	f0000003 	adrp	x3, b000 <small_prime+0x140>
    8944:	91062063 	add	x3, x3, #0x188
    8948:	f0000001 	adrp	x1, b000 <small_prime+0x140>
    894c:	f0000000 	adrp	x0, b000 <small_prime+0x140>
    8950:	91004063 	add	x3, x3, #0x10
    8954:	9129dc21 	add	x1, x1, #0xa77
    8958:	9133ec00 	add	x0, x0, #0xcfb
    895c:	52804e22 	mov	w2, #0x271                 	// #625
/home/xiang/rockpi4-android/optee_os/lib/libutils/isoc/bget.c:690 (discriminator 1)
    8960:	97ffed6a 	bl	3f08 <_assert_log>
    8964:	97ffed7a 	bl	3f4c <_assert_break>
/home/xiang/rockpi4-android/optee_os/lib/libutils/isoc/bget.c:628
    8968:	f100001f 	cmp	x0, #0x0
    896c:	5400026b 	b.lt	89b8 <bget+0x88>
/home/xiang/rockpi4-android/optee_os/lib/libutils/isoc/bget.c:628 (discriminator 1)
    8970:	54000080 	b.eq	8980 <bget+0x50>
/home/xiang/rockpi4-android/optee_os/lib/libutils/isoc/bget.c:628 (discriminator 3)
    8974:	cb0003e4 	neg	x4, x0
    8978:	ea24001f 	bics	xzr, x0, x4
    897c:	540001e1 	b.ne	89b8 <bget+0x88>
    8980:	91004028 	add	x8, x1, #0x10
/home/xiang/rockpi4-android/optee_os/lib/libutils/isoc/bget.c:630
    8984:	f2400c3f 	tst	x1, #0xf
    8988:	54000181 	b.ne	89b8 <bget+0x88>
/home/xiang/rockpi4-android/optee_os/lib/libutils/isoc/bget.c:640
    898c:	f100405f 	cmp	x2, #0x10
    8990:	d2800204 	mov	x4, #0x10                  	// #16
    8994:	9a84a042 	csel	x2, x2, x4, ge
    8998:	b1003c44 	adds	x4, x2, #0xf
    899c:	540000e4 	b.mi	89b8 <bget+0x88>
    89a0:	eb02009f 	cmp	x4, x2
    89a4:	540000a3 	b.cc	89b8 <bget+0x88>
/home/xiang/rockpi4-android/optee_os/lib/libutils/isoc/bget.c:643
    89a8:	927cec82 	and	x2, x4, #0xfffffffffffffff0
/home/xiang/rockpi4-android/optee_os/lib/libutils/isoc/bget.c:648
    89ac:	91004044 	add	x4, x2, #0x10
    89b0:	eb02009f 	cmp	x4, x2
    89b4:	5400006a 	b.ge	89c0 <bget+0x90>
/home/xiang/rockpi4-android/optee_os/lib/libutils/isoc/bget.c:629
    89b8:	d2800000 	mov	x0, #0x0                   	// #0
    89bc:	1400009b 	b	8c28 <bget+0x2f8>
/home/xiang/rockpi4-android/optee_os/lib/libutils/isoc/bget.c:650
    89c0:	8b010086 	add	x6, x4, x1
    89c4:	b7f80501 	tbnz	x1, #63, 8a64 <bget+0x134>
    89c8:	eb0400df 	cmp	x6, x4
    89cc:	54ffff6b 	b.lt	89b8 <bget+0x88>
/home/xiang/rockpi4-android/optee_os/lib/libutils/isoc/bget.c:660
    89d0:	f9400862 	ldr	x2, [x3,#16]
buf_get_pos():
/home/xiang/rockpi4-android/optee_os/lib/libutils/isoc/bget.c:599
    89d4:	9280040a 	mov	x10, #0xffffffffffffffdf    	// #-33
/home/xiang/rockpi4-android/optee_os/lib/libutils/isoc/bget.c:592
    89d8:	cb060108 	sub	x8, x8, x6
/home/xiang/rockpi4-android/optee_os/lib/libutils/isoc/bget.c:594
    89dc:	d2800209 	mov	x9, #0x10                  	// #16
/home/xiang/rockpi4-android/optee_os/lib/libutils/isoc/bget.c:599
    89e0:	f2efffea 	movk	x10, #0x7fff, lsl #48
bget():
/home/xiang/rockpi4-android/optee_os/lib/libutils/isoc/bget.c:684
    89e4:	eb03005f 	cmp	x2, x3
    89e8:	54fffe80 	b.eq	89b8 <bget+0x88>
buf_get_pos():
/home/xiang/rockpi4-android/optee_os/lib/libutils/isoc/bget.c:585
    89ec:	f9400445 	ldr	x5, [x2,#8]
    89f0:	eb0500df 	cmp	x6, x5
    89f4:	540011ec 	b.gt	8c30 <bget+0x300>
/home/xiang/rockpi4-android/optee_os/lib/libutils/isoc/bget.c:592
    89f8:	8b020104 	add	x4, x8, x2
/home/xiang/rockpi4-android/optee_os/lib/libutils/isoc/bget.c:594
    89fc:	f100401f 	cmp	x0, #0x10
/home/xiang/rockpi4-android/optee_os/lib/libutils/isoc/bget.c:592
    8a00:	8b050087 	add	x7, x4, x5
/home/xiang/rockpi4-android/optee_os/lib/libutils/isoc/bget.c:594
    8a04:	9a89a004 	csel	x4, x0, x9, ge
    8a08:	cb0403e4 	neg	x4, x4
    8a0c:	8a070084 	and	x4, x4, x7
/home/xiang/rockpi4-android/optee_os/lib/libutils/isoc/bget.c:595
    8a10:	cb020084 	sub	x4, x4, x2
    8a14:	cb010084 	sub	x4, x4, x1
/home/xiang/rockpi4-android/optee_os/lib/libutils/isoc/bget.c:597
    8a18:	f1004087 	subs	x7, x4, #0x10
    8a1c:	54000080 	b.eq	8a2c <bget+0xfc>
/home/xiang/rockpi4-android/optee_os/lib/libutils/isoc/bget.c:599
    8a20:	d100c084 	sub	x4, x4, #0x30
    8a24:	eb0a009f 	cmp	x4, x10
    8a28:	54001048 	b.hi	8c30 <bget+0x300>
bget():
/home/xiang/rockpi4-android/optee_os/lib/libutils/isoc/bget.c:690
    8a2c:	f8656841 	ldr	x1, [x2,x5]
/home/xiang/rockpi4-android/optee_os/lib/libutils/isoc/bget.c:687
    8a30:	8b070040 	add	x0, x2, x7
/home/xiang/rockpi4-android/optee_os/lib/libutils/isoc/bget.c:688
    8a34:	8b050048 	add	x8, x2, x5
/home/xiang/rockpi4-android/optee_os/lib/libutils/isoc/bget.c:690
    8a38:	eb05003f 	cmp	x1, x5
    8a3c:	540001a0 	b.eq	8a70 <bget+0x140>
/home/xiang/rockpi4-android/optee_os/lib/libutils/isoc/bget.c:690 (discriminator 1)
    8a40:	f0000003 	adrp	x3, b000 <small_prime+0x140>
    8a44:	91062063 	add	x3, x3, #0x188
    8a48:	f0000001 	adrp	x1, b000 <small_prime+0x140>
    8a4c:	f0000000 	adrp	x0, b000 <small_prime+0x140>
    8a50:	91004063 	add	x3, x3, #0x10
    8a54:	52805642 	mov	w2, #0x2b2                 	// #690
    8a58:	9129dc21 	add	x1, x1, #0xa77
    8a5c:	912a4000 	add	x0, x0, #0xa90
    8a60:	17ffffc0 	b	8960 <bget+0x30>
/home/xiang/rockpi4-android/optee_os/lib/libutils/isoc/bget.c:650
    8a64:	eb0400df 	cmp	x6, x4
    8a68:	54fffb4d 	b.le	89d0 <bget+0xa0>
    8a6c:	17ffffd3 	b	89b8 <bget+0x88>
/home/xiang/rockpi4-android/optee_os/lib/libutils/isoc/bget.c:698
    8a70:	f9400c41 	ldr	x1, [x2,#24]
/home/xiang/rockpi4-android/optee_os/lib/libutils/isoc/bget.c:696
    8a74:	f825685f 	str	xzr, [x2,x5]
/home/xiang/rockpi4-android/optee_os/lib/libutils/isoc/bget.c:698
    8a78:	f9400824 	ldr	x4, [x1,#16]
    8a7c:	eb04005f 	cmp	x2, x4
    8a80:	54000140 	b.eq	8aa8 <bget+0x178>
/home/xiang/rockpi4-android/optee_os/lib/libutils/isoc/bget.c:698 (discriminator 1)
    8a84:	f0000003 	adrp	x3, b000 <small_prime+0x140>
    8a88:	91062063 	add	x3, x3, #0x188
    8a8c:	f0000001 	adrp	x1, b000 <small_prime+0x140>
    8a90:	f0000000 	adrp	x0, b000 <small_prime+0x140>
    8a94:	91004063 	add	x3, x3, #0x10
    8a98:	52805742 	mov	w2, #0x2ba                 	// #698
    8a9c:	9129dc21 	add	x1, x1, #0xa77
    8aa0:	912ac000 	add	x0, x0, #0xab0
    8aa4:	17ffffaf 	b	8960 <bget+0x30>
/home/xiang/rockpi4-android/optee_os/lib/libutils/isoc/bget.c:699
    8aa8:	f9400844 	ldr	x4, [x2,#16]
    8aac:	f9400c89 	ldr	x9, [x4,#24]
    8ab0:	eb09005f 	cmp	x2, x9
    8ab4:	54000140 	b.eq	8adc <bget+0x1ac>
/home/xiang/rockpi4-android/optee_os/lib/libutils/isoc/bget.c:699 (discriminator 1)
    8ab8:	f0000003 	adrp	x3, b000 <small_prime+0x140>
    8abc:	91062063 	add	x3, x3, #0x188
    8ac0:	f0000001 	adrp	x1, b000 <small_prime+0x140>
    8ac4:	f0000000 	adrp	x0, b000 <small_prime+0x140>
    8ac8:	91004063 	add	x3, x3, #0x10
    8acc:	52805762 	mov	w2, #0x2bb                 	// #699
    8ad0:	9129dc21 	add	x1, x1, #0xa77
    8ad4:	912b2c00 	add	x0, x0, #0xacb
    8ad8:	17ffffa2 	b	8960 <bget+0x30>
/home/xiang/rockpi4-android/optee_os/lib/libutils/isoc/bget.c:701
    8adc:	b5000227 	cbnz	x7, 8b20 <bget+0x1f0>
/home/xiang/rockpi4-android/optee_os/lib/libutils/isoc/bget.c:706
    8ae0:	f9000824 	str	x4, [x1,#16]
/home/xiang/rockpi4-android/optee_os/lib/libutils/isoc/bget.c:710
    8ae4:	cb0503e5 	neg	x5, x5
/home/xiang/rockpi4-android/optee_os/lib/libutils/isoc/bget.c:707
    8ae8:	f9400844 	ldr	x4, [x2,#16]
    8aec:	f9000c81 	str	x1, [x4,#24]
/home/xiang/rockpi4-android/optee_os/lib/libutils/isoc/bget.c:710
    8af0:	f9000445 	str	x5, [x2,#8]
/home/xiang/rockpi4-android/optee_os/lib/libutils/isoc/bget.c:721
    8af4:	f9400402 	ldr	x2, [x0,#8]
    8af8:	b7f801c2 	tbnz	x2, #63, 8b30 <bget+0x200>
/home/xiang/rockpi4-android/optee_os/lib/libutils/isoc/bget.c:721 (discriminator 1)
    8afc:	f0000003 	adrp	x3, b000 <small_prime+0x140>
    8b00:	91062063 	add	x3, x3, #0x188
    8b04:	f0000001 	adrp	x1, b000 <small_prime+0x140>
    8b08:	f0000000 	adrp	x0, b000 <small_prime+0x140>
    8b0c:	91004063 	add	x3, x3, #0x10
    8b10:	52805a22 	mov	w2, #0x2d1                 	// #721
    8b14:	9129dc21 	add	x1, x1, #0xa77
    8b18:	912b9800 	add	x0, x0, #0xae6
    8b1c:	17ffff91 	b	8960 <bget+0x30>
/home/xiang/rockpi4-android/optee_os/lib/libutils/isoc/bget.c:716
    8b20:	cb0500e5 	sub	x5, x7, x5
    8b24:	a9001407 	stp	x7, x5, [x0]
/home/xiang/rockpi4-android/optee_os/lib/libutils/isoc/bget.c:718
    8b28:	f9000447 	str	x7, [x2,#8]
    8b2c:	17fffff2 	b	8af4 <bget+0x1c4>
/home/xiang/rockpi4-android/optee_os/lib/libutils/isoc/bget.c:727
    8b30:	cb0203e2 	neg	x2, x2
    8b34:	cb060042 	sub	x2, x2, x6
    8b38:	f100805f 	cmp	x2, #0x20
    8b3c:	54000669 	b.ls	8c08 <bget+0x2d8>
/home/xiang/rockpi4-android/optee_os/lib/libutils/isoc/bget.c:733
    8b40:	8b060001 	add	x1, x0, x6
/home/xiang/rockpi4-android/optee_os/lib/libutils/isoc/bget.c:734
    8b44:	f9000422 	str	x2, [x1,#8]
/home/xiang/rockpi4-android/optee_os/lib/libutils/isoc/bget.c:735
    8b48:	f826681f 	str	xzr, [x0,x6]
/home/xiang/rockpi4-android/optee_os/lib/libutils/isoc/bget.c:736
    8b4c:	f9400404 	ldr	x4, [x0,#8]
    8b50:	8b020082 	add	x2, x4, x2
    8b54:	f9000402 	str	x2, [x0,#8]
/home/xiang/rockpi4-android/optee_os/lib/libutils/isoc/bget.c:738
    8b58:	f9400c62 	ldr	x2, [x3,#24]
    8b5c:	f9400844 	ldr	x4, [x2,#16]
    8b60:	eb04007f 	cmp	x3, x4
    8b64:	54000140 	b.eq	8b8c <bget+0x25c>
/home/xiang/rockpi4-android/optee_os/lib/libutils/isoc/bget.c:738 (discriminator 1)
    8b68:	f0000003 	adrp	x3, b000 <small_prime+0x140>
    8b6c:	91062063 	add	x3, x3, #0x188
    8b70:	f0000001 	adrp	x1, b000 <small_prime+0x140>
    8b74:	f0000000 	adrp	x0, b000 <small_prime+0x140>
    8b78:	91004063 	add	x3, x3, #0x10
    8b7c:	52805c62 	mov	w2, #0x2e3                 	// #739
    8b80:	9129dc21 	add	x1, x1, #0xa77
    8b84:	912be400 	add	x0, x0, #0xaf9
    8b88:	17ffff76 	b	8960 <bget+0x30>
/home/xiang/rockpi4-android/optee_os/lib/libutils/isoc/bget.c:740
    8b8c:	f9400864 	ldr	x4, [x3,#16]
    8b90:	f9400c84 	ldr	x4, [x4,#24]
    8b94:	eb04007f 	cmp	x3, x4
    8b98:	54000140 	b.eq	8bc0 <bget+0x290>
/home/xiang/rockpi4-android/optee_os/lib/libutils/isoc/bget.c:740 (discriminator 1)
    8b9c:	f0000003 	adrp	x3, b000 <small_prime+0x140>
    8ba0:	91062063 	add	x3, x3, #0x188
    8ba4:	f0000001 	adrp	x1, b000 <small_prime+0x140>
    8ba8:	f0000000 	adrp	x0, b000 <small_prime+0x140>
    8bac:	91004063 	add	x3, x3, #0x10
    8bb0:	52805ca2 	mov	w2, #0x2e5                 	// #741
    8bb4:	9129dc21 	add	x1, x1, #0xa77
    8bb8:	912cd000 	add	x0, x0, #0xb34
    8bbc:	17ffff69 	b	8960 <bget+0x30>
/home/xiang/rockpi4-android/optee_os/lib/libutils/isoc/bget.c:743
    8bc0:	a9010823 	stp	x3, x2, [x1,#16]
/home/xiang/rockpi4-android/optee_os/lib/libutils/isoc/bget.c:744
    8bc4:	f9000c61 	str	x1, [x3,#24]
/home/xiang/rockpi4-android/optee_os/lib/libutils/isoc/bget.c:745
    8bc8:	f9400c22 	ldr	x2, [x1,#24]
    8bcc:	f9000841 	str	x1, [x2,#16]
/home/xiang/rockpi4-android/optee_os/lib/libutils/isoc/bget.c:747
    8bd0:	f9400422 	ldr	x2, [x1,#8]
    8bd4:	8b020021 	add	x1, x1, x2
    8bd8:	eb01011f 	cmp	x8, x1
    8bdc:	54000140 	b.eq	8c04 <bget+0x2d4>
/home/xiang/rockpi4-android/optee_os/lib/libutils/isoc/bget.c:747 (discriminator 1)
    8be0:	f0000003 	adrp	x3, b000 <small_prime+0x140>
    8be4:	91062063 	add	x3, x3, #0x188
    8be8:	f0000001 	adrp	x1, b000 <small_prime+0x140>
    8bec:	f0000000 	adrp	x0, b000 <small_prime+0x140>
    8bf0:	91004063 	add	x3, x3, #0x10
    8bf4:	52805d62 	mov	w2, #0x2eb                 	// #747
    8bf8:	9129dc21 	add	x1, x1, #0xa77
    8bfc:	912dbc00 	add	x0, x0, #0xb6f
    8c00:	17ffff58 	b	8960 <bget+0x30>
/home/xiang/rockpi4-android/optee_os/lib/libutils/isoc/bget.c:748
    8c04:	f9000102 	str	x2, [x8]
/home/xiang/rockpi4-android/optee_os/lib/libutils/isoc/bget.c:752
    8c08:	f9400402 	ldr	x2, [x0,#8]
/home/xiang/rockpi4-android/optee_os/lib/libutils/isoc/bget.c:755
    8c0c:	91004000 	add	x0, x0, #0x10
/home/xiang/rockpi4-android/optee_os/lib/libutils/isoc/bget.c:752
    8c10:	f9401061 	ldr	x1, [x3,#32]
    8c14:	cb020021 	sub	x1, x1, x2
    8c18:	f9001061 	str	x1, [x3,#32]
/home/xiang/rockpi4-android/optee_os/lib/libutils/isoc/bget.c:753
    8c1c:	f9401461 	ldr	x1, [x3,#40]
    8c20:	91000421 	add	x1, x1, #0x1
    8c24:	f9001461 	str	x1, [x3,#40]
/home/xiang/rockpi4-android/optee_os/lib/libutils/isoc/bget.c:837
    8c28:	a8c17bfd 	ldp	x29, x30, [sp],#16
    8c2c:	d65f03c0 	ret
/home/xiang/rockpi4-android/optee_os/lib/libutils/isoc/bget.c:758
    8c30:	f9400842 	ldr	x2, [x2,#16]
    8c34:	17ffff6c 	b	89e4 <bget+0xb4>

0000000000008c38 <bgetz>:
bgetz():
/home/xiang/rockpi4-android/optee_os/lib/libutils/isoc/bget.c:848
    8c38:	a9be7bfd 	stp	x29, x30, [sp,#-32]!
    8c3c:	910003fd 	mov	x29, sp
    8c40:	a90153f3 	stp	x19, x20, [sp,#16]
    8c44:	aa0203f4 	mov	x20, x2
/home/xiang/rockpi4-android/optee_os/lib/libutils/isoc/bget.c:849
    8c48:	97ffff3a 	bl	8930 <bget>
    8c4c:	aa0003f3 	mov	x19, x0
/home/xiang/rockpi4-android/optee_os/lib/libutils/isoc/bget.c:851
    8c50:	b4000300 	cbz	x0, 8cb0 <bgetz+0x78>
/home/xiang/rockpi4-android/optee_os/lib/libutils/isoc/bget.c:856
    8c54:	f85f8000 	ldur	x0, [x0,#-8]
/home/xiang/rockpi4-android/optee_os/lib/libutils/isoc/bget.c:857
    8c58:	b5000200 	cbnz	x0, 8c98 <bgetz+0x60>
/home/xiang/rockpi4-android/optee_os/lib/libutils/isoc/bget.c:861
    8c5c:	a97e0262 	ldp	x2, x0, [x19,#-32]
    8c60:	d1008042 	sub	x2, x2, #0x20
/home/xiang/rockpi4-android/optee_os/lib/libutils/isoc/bget.c:863
    8c64:	cb000042 	sub	x2, x2, x0
/home/xiang/rockpi4-android/optee_os/lib/libutils/isoc/bget.c:865
    8c68:	eb14005f 	cmp	x2, x20
    8c6c:	540001aa 	b.ge	8ca0 <bgetz+0x68>
    8c70:	f0000003 	adrp	x3, b000 <small_prime+0x140>
    8c74:	91062063 	add	x3, x3, #0x188
    8c78:	91006063 	add	x3, x3, #0x18
    8c7c:	f0000001 	adrp	x1, b000 <small_prime+0x140>
    8c80:	f0000000 	adrp	x0, b000 <small_prime+0x140>
    8c84:	9129dc21 	add	x1, x1, #0xa77
    8c88:	912e5400 	add	x0, x0, #0xb95
    8c8c:	52806c22 	mov	w2, #0x361                 	// #865
    8c90:	97ffec9e 	bl	3f08 <_assert_log>
    8c94:	97ffecae 	bl	3f4c <_assert_break>
/home/xiang/rockpi4-android/optee_os/lib/libutils/isoc/bget.c:863
    8c98:	928001e2 	mov	x2, #0xfffffffffffffff0    	// #-16
    8c9c:	17fffff2 	b	8c64 <bgetz+0x2c>
memset_unchecked():
/home/xiang/rockpi4-android/optee_os/lib/libutils/isoc/bget_malloc.c:115
    8ca0:	93407c42 	sxtw	x2, w2
    8ca4:	52800001 	mov	w1, #0x0                   	// #0
    8ca8:	aa1303e0 	mov	x0, x19
    8cac:	94000316 	bl	9904 <memset>
bgetz():
/home/xiang/rockpi4-android/optee_os/lib/libutils/isoc/bget.c:869
    8cb0:	aa1303e0 	mov	x0, x19
    8cb4:	a94153f3 	ldp	x19, x20, [sp,#16]
    8cb8:	a8c27bfd 	ldp	x29, x30, [sp],#32
    8cbc:	d65f03c0 	ret

0000000000008cc0 <brel>:
brel():
/home/xiang/rockpi4-android/optee_os/lib/libutils/isoc/bget.c:923
    8cc0:	a9be7bfd 	stp	x29, x30, [sp,#-32]!
    8cc4:	910003fd 	mov	x29, sp
/home/xiang/rockpi4-android/optee_os/lib/libutils/isoc/bget.c:928
    8cc8:	f9401823 	ldr	x3, [x1,#48]
/home/xiang/rockpi4-android/optee_os/lib/libutils/isoc/bget.c:923
    8ccc:	a90153f3 	stp	x19, x20, [sp,#16]
/home/xiang/rockpi4-android/optee_os/lib/libutils/isoc/bget.c:928
    8cd0:	91000463 	add	x3, x3, #0x1
    8cd4:	f9001823 	str	x3, [x1,#48]
/home/xiang/rockpi4-android/optee_os/lib/libutils/isoc/bget.c:930
    8cd8:	b5000160 	cbnz	x0, 8d04 <brel+0x44>
/home/xiang/rockpi4-android/optee_os/lib/libutils/isoc/bget.c:930 (discriminator 1)
    8cdc:	f0000003 	adrp	x3, b000 <small_prime+0x140>
    8ce0:	91062063 	add	x3, x3, #0x188
    8ce4:	f0000001 	adrp	x1, b000 <small_prime+0x140>
    8ce8:	f0000000 	adrp	x0, b000 <small_prime+0x140>
    8cec:	91008063 	add	x3, x3, #0x20
    8cf0:	9129dc21 	add	x1, x1, #0xa77
    8cf4:	912e8c00 	add	x0, x0, #0xba3
    8cf8:	52807442 	mov	w2, #0x3a2                 	// #930
/home/xiang/rockpi4-android/optee_os/lib/libutils/isoc/bget.c:963 (discriminator 1)
    8cfc:	97ffec83 	bl	3f08 <_assert_log>
    8d00:	97ffec93 	bl	3f4c <_assert_break>
/home/xiang/rockpi4-android/optee_os/lib/libutils/isoc/bget.c:960
    8d04:	f85f8003 	ldur	x3, [x0,#-8]
/home/xiang/rockpi4-android/optee_os/lib/libutils/isoc/bget.c:963
    8d08:	b7f80143 	tbnz	x3, #63, 8d30 <brel+0x70>
/home/xiang/rockpi4-android/optee_os/lib/libutils/isoc/bget.c:963 (discriminator 1)
    8d0c:	f0000003 	adrp	x3, b000 <small_prime+0x140>
    8d10:	91062063 	add	x3, x3, #0x188
    8d14:	f0000001 	adrp	x1, b000 <small_prime+0x140>
    8d18:	f0000000 	adrp	x0, b000 <small_prime+0x140>
    8d1c:	91008063 	add	x3, x3, #0x20
    8d20:	52807862 	mov	w2, #0x3c3                 	// #963
    8d24:	9129dc21 	add	x1, x1, #0xa77
    8d28:	912ebc00 	add	x0, x0, #0xbaf
    8d2c:	17fffff4 	b	8cfc <brel+0x3c>
    8d30:	d1004013 	sub	x19, x0, #0x10
/home/xiang/rockpi4-android/optee_os/lib/libutils/isoc/bget.c:968
    8d34:	cb030264 	sub	x4, x19, x3
    8d38:	f9400084 	ldr	x4, [x4]
    8d3c:	b4000144 	cbz	x4, 8d64 <brel+0xa4>
/home/xiang/rockpi4-android/optee_os/lib/libutils/isoc/bget.c:968 (discriminator 1)
    8d40:	f0000003 	adrp	x3, b000 <small_prime+0x140>
    8d44:	91062063 	add	x3, x3, #0x188
    8d48:	f0000001 	adrp	x1, b000 <small_prime+0x140>
    8d4c:	f0000000 	adrp	x0, b000 <small_prime+0x140>
    8d50:	91008063 	add	x3, x3, #0x20
    8d54:	52807902 	mov	w2, #0x3c8                 	// #968
    8d58:	9129dc21 	add	x1, x1, #0xa77
    8d5c:	912efc00 	add	x0, x0, #0xbbf
    8d60:	17ffffe7 	b	8cfc <brel+0x3c>
/home/xiang/rockpi4-android/optee_os/lib/libutils/isoc/bget.c:971
    8d64:	f9401024 	ldr	x4, [x1,#32]
    8d68:	8b040064 	add	x4, x3, x4
    8d6c:	f9001024 	str	x4, [x1,#32]
/home/xiang/rockpi4-android/optee_os/lib/libutils/isoc/bget.c:972
    8d70:	b6f80144 	tbz	x4, #63, 8d98 <brel+0xd8>
/home/xiang/rockpi4-android/optee_os/lib/libutils/isoc/bget.c:972 (discriminator 1)
    8d74:	f0000003 	adrp	x3, b000 <small_prime+0x140>
    8d78:	91062063 	add	x3, x3, #0x188
    8d7c:	f0000001 	adrp	x1, b000 <small_prime+0x140>
    8d80:	f0000000 	adrp	x0, b000 <small_prime+0x140>
    8d84:	91008063 	add	x3, x3, #0x20
    8d88:	52807982 	mov	w2, #0x3cc                 	// #972
    8d8c:	9129dc21 	add	x1, x1, #0xa77
    8d90:	912fac00 	add	x0, x0, #0xbeb
    8d94:	17ffffda 	b	8cfc <brel+0x3c>
/home/xiang/rockpi4-android/optee_os/lib/libutils/isoc/bget.c:977
    8d98:	f85f0004 	ldur	x4, [x0,#-16]
    8d9c:	b4000424 	cbz	x4, 8e20 <brel+0x160>
/home/xiang/rockpi4-android/optee_os/lib/libutils/isoc/bget.c:988
    8da0:	cb040273 	sub	x19, x19, x4
    8da4:	f9400660 	ldr	x0, [x19,#8]
    8da8:	eb00009f 	cmp	x4, x0
    8dac:	54000140 	b.eq	8dd4 <brel+0x114>
/home/xiang/rockpi4-android/optee_os/lib/libutils/isoc/bget.c:988 (discriminator 1)
    8db0:	f0000003 	adrp	x3, b000 <small_prime+0x140>
    8db4:	91062063 	add	x3, x3, #0x188
    8db8:	f0000001 	adrp	x1, b000 <small_prime+0x140>
    8dbc:	f0000000 	adrp	x0, b000 <small_prime+0x140>
    8dc0:	91008063 	add	x3, x3, #0x20
    8dc4:	52807b82 	mov	w2, #0x3dc                 	// #988
    8dc8:	9129dc21 	add	x1, x1, #0xa77
    8dcc:	91300800 	add	x0, x0, #0xc02
    8dd0:	17ffffcb 	b	8cfc <brel+0x3c>
/home/xiang/rockpi4-android/optee_os/lib/libutils/isoc/bget.c:990
    8dd4:	cb030083 	sub	x3, x4, x3
    8dd8:	f9000663 	str	x3, [x19,#8]
/home/xiang/rockpi4-android/optee_os/lib/libutils/isoc/bget.c:1010
    8ddc:	f9400660 	ldr	x0, [x19,#8]
    8de0:	8b000274 	add	x20, x19, x0
/home/xiang/rockpi4-android/optee_os/lib/libutils/isoc/bget.c:1011
    8de4:	f9400681 	ldr	x1, [x20,#8]
    8de8:	f100003f 	cmp	x1, #0x0
    8dec:	540009cd 	b.le	8f24 <brel+0x264>
/home/xiang/rockpi4-android/optee_os/lib/libutils/isoc/bget.c:1016
    8df0:	f8616a83 	ldr	x3, [x20,x1]
    8df4:	eb03003f 	cmp	x1, x3
    8df8:	54000560 	b.eq	8ea4 <brel+0x1e4>
/home/xiang/rockpi4-android/optee_os/lib/libutils/isoc/bget.c:1016 (discriminator 1)
    8dfc:	f0000003 	adrp	x3, b000 <small_prime+0x140>
    8e00:	91062063 	add	x3, x3, #0x188
    8e04:	f0000001 	adrp	x1, b000 <small_prime+0x140>
    8e08:	f0000000 	adrp	x0, b000 <small_prime+0x140>
    8e0c:	91008063 	add	x3, x3, #0x20
    8e10:	52807f02 	mov	w2, #0x3f8                 	// #1016
    8e14:	9129dc21 	add	x1, x1, #0xa77
    8e18:	9130ec00 	add	x0, x0, #0xc3b
    8e1c:	17ffffb8 	b	8cfc <brel+0x3c>
/home/xiang/rockpi4-android/optee_os/lib/libutils/isoc/bget.c:996
    8e20:	f9400c25 	ldr	x5, [x1,#24]
    8e24:	f94008a4 	ldr	x4, [x5,#16]
    8e28:	eb01009f 	cmp	x4, x1
    8e2c:	54000140 	b.eq	8e54 <brel+0x194>
/home/xiang/rockpi4-android/optee_os/lib/libutils/isoc/bget.c:996 (discriminator 1)
    8e30:	f0000003 	adrp	x3, b000 <small_prime+0x140>
    8e34:	91062063 	add	x3, x3, #0x188
    8e38:	f0000001 	adrp	x1, b000 <small_prime+0x140>
    8e3c:	f0000000 	adrp	x0, b000 <small_prime+0x140>
    8e40:	91008063 	add	x3, x3, #0x20
    8e44:	52807c82 	mov	w2, #0x3e4                 	// #996
    8e48:	9129dc21 	add	x1, x1, #0xa77
    8e4c:	912be400 	add	x0, x0, #0xaf9
    8e50:	17ffffab 	b	8cfc <brel+0x3c>
/home/xiang/rockpi4-android/optee_os/lib/libutils/isoc/bget.c:997
    8e54:	f9400881 	ldr	x1, [x4,#16]
    8e58:	f9400c21 	ldr	x1, [x1,#24]
    8e5c:	eb01009f 	cmp	x4, x1
    8e60:	54000140 	b.eq	8e88 <brel+0x1c8>
/home/xiang/rockpi4-android/optee_os/lib/libutils/isoc/bget.c:997 (discriminator 1)
    8e64:	f0000003 	adrp	x3, b000 <small_prime+0x140>
    8e68:	91062063 	add	x3, x3, #0x188
    8e6c:	f0000001 	adrp	x1, b000 <small_prime+0x140>
    8e70:	f0000000 	adrp	x0, b000 <small_prime+0x140>
    8e74:	91008063 	add	x3, x3, #0x20
    8e78:	52807ca2 	mov	w2, #0x3e5                 	// #997
    8e7c:	9129dc21 	add	x1, x1, #0xa77
    8e80:	912cd000 	add	x0, x0, #0xb34
    8e84:	17ffff9e 	b	8cfc <brel+0x3c>
/home/xiang/rockpi4-android/optee_os/lib/libutils/isoc/bget.c:999
    8e88:	a9011664 	stp	x4, x5, [x19,#16]
/home/xiang/rockpi4-android/optee_os/lib/libutils/isoc/bget.c:1002
    8e8c:	cb0303e3 	neg	x3, x3
/home/xiang/rockpi4-android/optee_os/lib/libutils/isoc/bget.c:1000
    8e90:	f9000c93 	str	x19, [x4,#24]
/home/xiang/rockpi4-android/optee_os/lib/libutils/isoc/bget.c:1001
    8e94:	f9400e61 	ldr	x1, [x19,#24]
    8e98:	f9000833 	str	x19, [x1,#16]
/home/xiang/rockpi4-android/optee_os/lib/libutils/isoc/bget.c:1002
    8e9c:	f81f8003 	stur	x3, [x0,#-8]
    8ea0:	17ffffcf 	b	8ddc <brel+0x11c>
/home/xiang/rockpi4-android/optee_os/lib/libutils/isoc/bget.c:1017
    8ea4:	f9400e83 	ldr	x3, [x20,#24]
    8ea8:	f9400864 	ldr	x4, [x3,#16]
    8eac:	eb04029f 	cmp	x20, x4
    8eb0:	54000140 	b.eq	8ed8 <brel+0x218>
/home/xiang/rockpi4-android/optee_os/lib/libutils/isoc/bget.c:1017 (discriminator 1)
    8eb4:	f0000003 	adrp	x3, b000 <small_prime+0x140>
    8eb8:	91062063 	add	x3, x3, #0x188
    8ebc:	f0000001 	adrp	x1, b000 <small_prime+0x140>
    8ec0:	f0000000 	adrp	x0, b000 <small_prime+0x140>
    8ec4:	91008063 	add	x3, x3, #0x20
    8ec8:	52807f22 	mov	w2, #0x3f9                 	// #1017
    8ecc:	9129dc21 	add	x1, x1, #0xa77
    8ed0:	9131d000 	add	x0, x0, #0xc74
    8ed4:	17ffff8a 	b	8cfc <brel+0x3c>
/home/xiang/rockpi4-android/optee_os/lib/libutils/isoc/bget.c:1018
    8ed8:	f9400a84 	ldr	x4, [x20,#16]
    8edc:	f9400c85 	ldr	x5, [x4,#24]
    8ee0:	eb05029f 	cmp	x20, x5
    8ee4:	54000140 	b.eq	8f0c <brel+0x24c>
/home/xiang/rockpi4-android/optee_os/lib/libutils/isoc/bget.c:1018 (discriminator 1)
    8ee8:	f0000003 	adrp	x3, b000 <small_prime+0x140>
    8eec:	91062063 	add	x3, x3, #0x188
    8ef0:	f0000001 	adrp	x1, b000 <small_prime+0x140>
    8ef4:	f0000000 	adrp	x0, b000 <small_prime+0x140>
    8ef8:	91008063 	add	x3, x3, #0x20
    8efc:	52807f42 	mov	w2, #0x3fa                 	// #1018
    8f00:	9129dc21 	add	x1, x1, #0xa77
    8f04:	91324400 	add	x0, x0, #0xc91
    8f08:	17ffff7d 	b	8cfc <brel+0x3c>
/home/xiang/rockpi4-android/optee_os/lib/libutils/isoc/bget.c:1019
    8f0c:	f9000864 	str	x4, [x3,#16]
/home/xiang/rockpi4-android/optee_os/lib/libutils/isoc/bget.c:1020
    8f10:	f9400a84 	ldr	x4, [x20,#16]
/home/xiang/rockpi4-android/optee_os/lib/libutils/isoc/bget.c:1021
    8f14:	8b010014 	add	x20, x0, x1
/home/xiang/rockpi4-android/optee_os/lib/libutils/isoc/bget.c:1020
    8f18:	f9000c83 	str	x3, [x4,#24]
/home/xiang/rockpi4-android/optee_os/lib/libutils/isoc/bget.c:1021
    8f1c:	f9000674 	str	x20, [x19,#8]
/home/xiang/rockpi4-android/optee_os/lib/libutils/isoc/bget.c:1030
    8f20:	8b140274 	add	x20, x19, x20
/home/xiang/rockpi4-android/optee_os/lib/libutils/isoc/bget.c:1032
    8f24:	340000e2 	cbz	w2, 8f40 <brel+0x280>
/home/xiang/rockpi4-android/optee_os/lib/libutils/isoc/bget.c:1034
    8f28:	f9400662 	ldr	x2, [x19,#8]
memset_unchecked():
/home/xiang/rockpi4-android/optee_os/lib/libutils/isoc/bget_malloc.c:115
    8f2c:	52800aa1 	mov	w1, #0x55                  	// #85
    8f30:	91008260 	add	x0, x19, #0x20
brel():
/home/xiang/rockpi4-android/optee_os/lib/libutils/isoc/bget.c:1034
    8f34:	51008042 	sub	w2, w2, #0x20
memset_unchecked():
/home/xiang/rockpi4-android/optee_os/lib/libutils/isoc/bget_malloc.c:115
    8f38:	93407c42 	sxtw	x2, w2
    8f3c:	94000272 	bl	9904 <memset>
brel():
/home/xiang/rockpi4-android/optee_os/lib/libutils/isoc/bget.c:1036
    8f40:	f9400680 	ldr	x0, [x20,#8]
    8f44:	b7f80140 	tbnz	x0, #63, 8f6c <brel+0x2ac>
/home/xiang/rockpi4-android/optee_os/lib/libutils/isoc/bget.c:1036 (discriminator 1)
    8f48:	f0000003 	adrp	x3, b000 <small_prime+0x140>
    8f4c:	91062063 	add	x3, x3, #0x188
    8f50:	f0000001 	adrp	x1, b000 <small_prime+0x140>
    8f54:	f0000000 	adrp	x0, b000 <small_prime+0x140>
    8f58:	91008063 	add	x3, x3, #0x20
    8f5c:	52808182 	mov	w2, #0x40c                 	// #1036
    8f60:	9129dc21 	add	x1, x1, #0xa77
    8f64:	9132b800 	add	x0, x0, #0xcae
    8f68:	17ffff65 	b	8cfc <brel+0x3c>
/home/xiang/rockpi4-android/optee_os/lib/libutils/isoc/bget.c:1041
    8f6c:	f9400660 	ldr	x0, [x19,#8]
    8f70:	f9000280 	str	x0, [x20]
/home/xiang/rockpi4-android/optee_os/lib/libutils/isoc/bget.c:1068
    8f74:	a94153f3 	ldp	x19, x20, [sp,#16]
    8f78:	a8c27bfd 	ldp	x29, x30, [sp],#32
    8f7c:	d65f03c0 	ret

0000000000008f80 <bgetr>:
bgetr():
/home/xiang/rockpi4-android/optee_os/lib/libutils/isoc/bget.c:882
    8f80:	a9bc7bfd 	stp	x29, x30, [sp,#-64]!
    8f84:	910003fd 	mov	x29, sp
    8f88:	a90153f3 	stp	x19, x20, [sp,#16]
    8f8c:	aa0303f4 	mov	x20, x3
    8f90:	a9025bf5 	stp	x21, x22, [sp,#32]
/home/xiang/rockpi4-android/optee_os/lib/libutils/isoc/bget.c:887
    8f94:	aa0403e3 	mov	x3, x4
/home/xiang/rockpi4-android/optee_os/lib/libutils/isoc/bget.c:882
    8f98:	f9001bf7 	str	x23, [sp,#48]
    8f9c:	aa0003f5 	mov	x21, x0
    8fa0:	aa0403f7 	mov	x23, x4
    8fa4:	aa0103e0 	mov	x0, x1
    8fa8:	aa0203e1 	mov	x1, x2
/home/xiang/rockpi4-android/optee_os/lib/libutils/isoc/bget.c:887
    8fac:	aa1403e2 	mov	x2, x20
    8fb0:	97fffe60 	bl	8930 <bget>
    8fb4:	aa0003f6 	mov	x22, x0
    8fb8:	b4000420 	cbz	x0, 903c <bgetr+0xbc>
/home/xiang/rockpi4-android/optee_os/lib/libutils/isoc/bget.c:890
    8fbc:	b4000415 	cbz	x21, 903c <bgetr+0xbc>
/home/xiang/rockpi4-android/optee_os/lib/libutils/isoc/bget.c:904
    8fc0:	f85f82a1 	ldur	x1, [x21,#-8]
    8fc4:	928001f3 	mov	x19, #0xfffffffffffffff0    	// #-16
    8fc8:	cb010273 	sub	x19, x19, x1
/home/xiang/rockpi4-android/optee_os/lib/libutils/isoc/bget.c:905
    8fcc:	f100027f 	cmp	x19, #0x0
    8fd0:	5400016c 	b.gt	8ffc <bgetr+0x7c>
/home/xiang/rockpi4-android/optee_os/lib/libutils/isoc/bget.c:905 (discriminator 1)
    8fd4:	f0000003 	adrp	x3, b000 <small_prime+0x140>
    8fd8:	91062063 	add	x3, x3, #0x188
    8fdc:	9100a063 	add	x3, x3, #0x28
    8fe0:	f0000001 	adrp	x1, b000 <small_prime+0x140>
    8fe4:	f0000000 	adrp	x0, b000 <small_prime+0x140>
    8fe8:	9129dc21 	add	x1, x1, #0xa77
    8fec:	9129b400 	add	x0, x0, #0xa6d
    8ff0:	52807122 	mov	w2, #0x389                 	// #905
    8ff4:	97ffebc5 	bl	3f08 <_assert_log>
    8ff8:	97ffebd5 	bl	3f4c <_assert_break>
/home/xiang/rockpi4-android/optee_os/lib/libutils/isoc/bget.c:906
    8ffc:	eb13029f 	cmp	x20, x19
    9000:	93407e81 	sxtw	x1, w20
    9004:	93407e62 	sxtw	x2, w19
memcpy_unchecked():
/home/xiang/rockpi4-android/optee_os/lib/libutils/isoc/bget_malloc.c:121
    9008:	9a81a042 	csel	x2, x2, x1, ge
    900c:	aa1503e1 	mov	x1, x21
    9010:	97ffdc04 	bl	20 <memcpy>
bgetr():
/home/xiang/rockpi4-android/optee_os/lib/libutils/isoc/bget.c:910
    9014:	eb13029f 	cmp	x20, x19
    9018:	540000ad 	b.le	902c <bgetr+0xac>
memset_unchecked():
/home/xiang/rockpi4-android/optee_os/lib/libutils/isoc/bget_malloc.c:115
    901c:	cb130282 	sub	x2, x20, x19
    9020:	52800001 	mov	w1, #0x0                   	// #0
    9024:	8b1302c0 	add	x0, x22, x19
    9028:	94000237 	bl	9904 <memset>
bgetr():
/home/xiang/rockpi4-android/optee_os/lib/libutils/isoc/bget.c:913
    902c:	52800002 	mov	w2, #0x0                   	// #0
    9030:	aa1703e1 	mov	x1, x23
    9034:	aa1503e0 	mov	x0, x21
    9038:	97ffff22 	bl	8cc0 <brel>
/home/xiang/rockpi4-android/optee_os/lib/libutils/isoc/bget.c:915
    903c:	aa1603e0 	mov	x0, x22
    9040:	f9401bf7 	ldr	x23, [sp,#48]
    9044:	a94153f3 	ldp	x19, x20, [sp,#16]
    9048:	a9425bf5 	ldp	x21, x22, [sp,#32]
    904c:	a8c47bfd 	ldp	x29, x30, [sp],#64
    9050:	d65f03c0 	ret

0000000000009054 <bpool>:
bpool():
/home/xiang/rockpi4-android/optee_os/lib/libutils/isoc/bget.c:1094
    9054:	a9bf7bfd 	stp	x29, x30, [sp,#-16]!
/home/xiang/rockpi4-android/optee_os/lib/libutils/isoc/bget.c:1099
    9058:	927cec21 	and	x1, x1, #0xfffffffffffffff0
/home/xiang/rockpi4-android/optee_os/lib/libutils/isoc/bget.c:1118
    905c:	f1004021 	subs	x1, x1, #0x10
/home/xiang/rockpi4-android/optee_os/lib/libutils/isoc/bget.c:1094
    9060:	910003fd 	mov	x29, sp
/home/xiang/rockpi4-android/optee_os/lib/libutils/isoc/bget.c:1118
    9064:	54000165 	b.pl	9090 <bpool+0x3c>
    9068:	d0000003 	adrp	x3, b000 <small_prime+0x140>
    906c:	91062063 	add	x3, x3, #0x188
    9070:	d0000001 	adrp	x1, b000 <small_prime+0x140>
    9074:	d0000000 	adrp	x0, b000 <small_prime+0x140>
    9078:	9100c063 	add	x3, x3, #0x30
    907c:	9129dc21 	add	x1, x1, #0xa77
    9080:	9132fc00 	add	x0, x0, #0xcbf
    9084:	52808bc2 	mov	w2, #0x45e                 	// #1118
/home/xiang/rockpi4-android/optee_os/lib/libutils/isoc/bget.c:1128 (discriminator 1)
    9088:	97ffeba0 	bl	3f08 <_assert_log>
    908c:	97ffebb0 	bl	3f4c <_assert_break>
/home/xiang/rockpi4-android/optee_os/lib/libutils/isoc/bget.c:1128
    9090:	f9400c44 	ldr	x4, [x2,#24]
    9094:	f9400883 	ldr	x3, [x4,#16]
/home/xiang/rockpi4-android/optee_os/lib/libutils/isoc/bget.c:1124
    9098:	f900001f 	str	xzr, [x0]
/home/xiang/rockpi4-android/optee_os/lib/libutils/isoc/bget.c:1128
    909c:	eb02007f 	cmp	x3, x2
    90a0:	54000140 	b.eq	90c8 <bpool+0x74>
/home/xiang/rockpi4-android/optee_os/lib/libutils/isoc/bget.c:1128 (discriminator 1)
    90a4:	d0000003 	adrp	x3, b000 <small_prime+0x140>
    90a8:	91062063 	add	x3, x3, #0x188
    90ac:	d0000001 	adrp	x1, b000 <small_prime+0x140>
    90b0:	d0000000 	adrp	x0, b000 <small_prime+0x140>
    90b4:	9100c063 	add	x3, x3, #0x30
    90b8:	52808d02 	mov	w2, #0x468                 	// #1128
    90bc:	9129dc21 	add	x1, x1, #0xa77
    90c0:	912be400 	add	x0, x0, #0xaf9
    90c4:	17fffff1 	b	9088 <bpool+0x34>
/home/xiang/rockpi4-android/optee_os/lib/libutils/isoc/bget.c:1129
    90c8:	f9400862 	ldr	x2, [x3,#16]
    90cc:	f9400c42 	ldr	x2, [x2,#24]
    90d0:	eb02007f 	cmp	x3, x2
    90d4:	54000140 	b.eq	90fc <bpool+0xa8>
/home/xiang/rockpi4-android/optee_os/lib/libutils/isoc/bget.c:1129 (discriminator 1)
    90d8:	d0000003 	adrp	x3, b000 <small_prime+0x140>
    90dc:	91062063 	add	x3, x3, #0x188
    90e0:	d0000001 	adrp	x1, b000 <small_prime+0x140>
    90e4:	d0000000 	adrp	x0, b000 <small_prime+0x140>
    90e8:	9100c063 	add	x3, x3, #0x30
    90ec:	52808d22 	mov	w2, #0x469                 	// #1129
    90f0:	9129dc21 	add	x1, x1, #0xa77
    90f4:	912cd000 	add	x0, x0, #0xb34
    90f8:	17ffffe4 	b	9088 <bpool+0x34>
/home/xiang/rockpi4-android/optee_os/lib/libutils/isoc/bget.c:1131
    90fc:	a9011003 	stp	x3, x4, [x0,#16]
/home/xiang/rockpi4-android/optee_os/lib/libutils/isoc/bget.c:1132
    9100:	f9000c60 	str	x0, [x3,#24]
/home/xiang/rockpi4-android/optee_os/lib/libutils/isoc/bget.c:1133
    9104:	f9400c02 	ldr	x2, [x0,#24]
    9108:	f9000840 	str	x0, [x2,#16]
/home/xiang/rockpi4-android/optee_os/lib/libutils/isoc/bget.c:1149
    910c:	8b010002 	add	x2, x0, x1
/home/xiang/rockpi4-android/optee_os/lib/libutils/isoc/bget.c:1144
    9110:	f9000401 	str	x1, [x0,#8]
/home/xiang/rockpi4-android/optee_os/lib/libutils/isoc/bget.c:1150
    9114:	f8216801 	str	x1, [x0,x1]
/home/xiang/rockpi4-android/optee_os/lib/libutils/isoc/bget.c:1153
    9118:	d2f00000 	mov	x0, #0x8000000000000000    	// #-9223372036854775808
    911c:	f9000440 	str	x0, [x2,#8]
/home/xiang/rockpi4-android/optee_os/lib/libutils/isoc/bget.c:1154
    9120:	a8c17bfd 	ldp	x29, x30, [sp],#16
    9124:	d65f03c0 	ret

0000000000009128 <bstats>:
bstats():
/home/xiang/rockpi4-android/optee_os/lib/libutils/isoc/bget.c:1167
    9128:	f94014a7 	ldr	x7, [x5,#40]
/home/xiang/rockpi4-android/optee_os/lib/libutils/isoc/bget.c:1165
    912c:	f94008a6 	ldr	x6, [x5,#16]
/home/xiang/rockpi4-android/optee_os/lib/libutils/isoc/bget.c:1167
    9130:	f9000067 	str	x7, [x3]
/home/xiang/rockpi4-android/optee_os/lib/libutils/isoc/bget.c:1168
    9134:	f94018a3 	ldr	x3, [x5,#48]
    9138:	f9000083 	str	x3, [x4]
/home/xiang/rockpi4-android/optee_os/lib/libutils/isoc/bget.c:1169
    913c:	f94010a3 	ldr	x3, [x5,#32]
    9140:	f9000003 	str	x3, [x0]
/home/xiang/rockpi4-android/optee_os/lib/libutils/isoc/bget.c:1171
    9144:	92800000 	mov	x0, #0xffffffffffffffff    	// #-1
/home/xiang/rockpi4-android/optee_os/lib/libutils/isoc/bget.c:1170
    9148:	f900003f 	str	xzr, [x1]
/home/xiang/rockpi4-android/optee_os/lib/libutils/isoc/bget.c:1171
    914c:	f9000040 	str	x0, [x2]
/home/xiang/rockpi4-android/optee_os/lib/libutils/isoc/bget.c:1172
    9150:	eb0500df 	cmp	x6, x5
    9154:	54000041 	b.ne	915c <bstats+0x34>
    9158:	d65f03c0 	ret
/home/xiang/rockpi4-android/optee_os/lib/libutils/isoc/bget.c:1173
    915c:	f94004c3 	ldr	x3, [x6,#8]
    9160:	f100007f 	cmp	x3, #0x0
    9164:	540001ac 	b.gt	9198 <bstats+0x70>
/home/xiang/rockpi4-android/optee_os/lib/libutils/isoc/bget.c:1173 (discriminator 1)
    9168:	d0000003 	adrp	x3, b000 <small_prime+0x140>
    916c:	91062063 	add	x3, x3, #0x188
    9170:	9100e063 	add	x3, x3, #0x38
    9174:	d0000001 	adrp	x1, b000 <small_prime+0x140>
    9178:	d0000000 	adrp	x0, b000 <small_prime+0x140>
    917c:	9129dc21 	add	x1, x1, #0xa77
    9180:	9133d000 	add	x0, x0, #0xcf4
/home/xiang/rockpi4-android/optee_os/lib/libutils/isoc/bget.c:1164 (discriminator 1)
    9184:	a9bf7bfd 	stp	x29, x30, [sp,#-16]!
/home/xiang/rockpi4-android/optee_os/lib/libutils/isoc/bget.c:1173 (discriminator 1)
    9188:	528092a2 	mov	w2, #0x495                 	// #1173
/home/xiang/rockpi4-android/optee_os/lib/libutils/isoc/bget.c:1164 (discriminator 1)
    918c:	910003fd 	mov	x29, sp
/home/xiang/rockpi4-android/optee_os/lib/libutils/isoc/bget.c:1173 (discriminator 1)
    9190:	97ffeb5e 	bl	3f08 <_assert_log>
    9194:	97ffeb6e 	bl	3f4c <_assert_break>
/home/xiang/rockpi4-android/optee_os/lib/libutils/isoc/bget.c:1174
    9198:	f9400020 	ldr	x0, [x1]
    919c:	8b030000 	add	x0, x0, x3
    91a0:	f9000020 	str	x0, [x1]
/home/xiang/rockpi4-android/optee_os/lib/libutils/isoc/bget.c:1175
    91a4:	f9400043 	ldr	x3, [x2]
    91a8:	f94004c0 	ldr	x0, [x6,#8]
    91ac:	eb03001f 	cmp	x0, x3
    91b0:	5400004d 	b.le	91b8 <bstats+0x90>
/home/xiang/rockpi4-android/optee_os/lib/libutils/isoc/bget.c:1176
    91b4:	f9000040 	str	x0, [x2]
/home/xiang/rockpi4-android/optee_os/lib/libutils/isoc/bget.c:1178
    91b8:	f94008c6 	ldr	x6, [x6,#16]
    91bc:	17ffffe5 	b	9150 <bstats+0x28>

00000000000091c0 <malloc_reset_stats>:
gen_malloc_reset_stats():
/home/xiang/rockpi4-android/optee_os/lib/libutils/isoc/bget_malloc.c:297
    91c0:	90000020 	adrp	x0, d000 <_DYNAMIC>
    91c4:	9111a000 	add	x0, x0, #0x468
    91c8:	b9006c1f 	str	wzr, [x0,#108]
/home/xiang/rockpi4-android/optee_os/lib/libutils/isoc/bget_malloc.c:299
    91cc:	290efc1f 	stp	wzr, wzr, [x0,#116]
/home/xiang/rockpi4-android/optee_os/lib/libutils/isoc/bget_malloc.c:300
    91d0:	b9007c1f 	str	wzr, [x0,#124]
    91d4:	d65f03c0 	ret

00000000000091d8 <malloc_get_stats>:
malloc_get_stats():
/home/xiang/rockpi4-android/optee_os/lib/libutils/isoc/bget_malloc.c:320
    91d8:	a9be7bfd 	stp	x29, x30, [sp,#-32]!
memcpy_unchecked():
/home/xiang/rockpi4-android/optee_os/lib/libutils/isoc/bget_malloc.c:121
    91dc:	d2800702 	mov	x2, #0x38                  	// #56
malloc_get_stats():
/home/xiang/rockpi4-android/optee_os/lib/libutils/isoc/bget_malloc.c:320
    91e0:	910003fd 	mov	x29, sp
    91e4:	f9000bf3 	str	x19, [sp,#16]
memcpy_unchecked():
/home/xiang/rockpi4-android/optee_os/lib/libutils/isoc/bget_malloc.c:121
    91e8:	90000033 	adrp	x19, d000 <_DYNAMIC>
    91ec:	9111a273 	add	x19, x19, #0x468
    91f0:	91012261 	add	x1, x19, #0x48
    91f4:	97ffdb8b 	bl	20 <memcpy>
    91f8:	aa0003e3 	mov	x3, x0
gen_malloc_get_stats():
/home/xiang/rockpi4-android/optee_os/lib/libutils/isoc/bget_malloc.c:315
    91fc:	f9401260 	ldr	x0, [x19,#32]
malloc_get_stats():
/home/xiang/rockpi4-android/optee_os/lib/libutils/isoc/bget_malloc.c:322
    9200:	f9400bf3 	ldr	x19, [sp,#16]
gen_malloc_get_stats():
/home/xiang/rockpi4-android/optee_os/lib/libutils/isoc/bget_malloc.c:315
    9204:	b9002060 	str	w0, [x3,#32]
malloc_get_stats():
/home/xiang/rockpi4-android/optee_os/lib/libutils/isoc/bget_malloc.c:322
    9208:	a8c27bfd 	ldp	x29, x30, [sp],#32
    920c:	d65f03c0 	ret

0000000000009210 <raw_memalign>:
raw_memalign():
/home/xiang/rockpi4-android/optee_os/lib/libutils/isoc/bget_malloc.c:425
    9210:	b4000382 	cbz	x2, 9280 <raw_memalign+0x70>
/home/xiang/rockpi4-android/optee_os/lib/libutils/isoc/bget_malloc.c:425 (discriminator 1)
    9214:	cb0203e5 	neg	x5, x2
    9218:	ea25005f 	bics	xzr, x2, x5
    921c:	54000321 	b.ne	9280 <raw_memalign+0x70>
/home/xiang/rockpi4-android/optee_os/lib/libutils/isoc/bget_malloc.c:421
    9220:	a9be7bfd 	stp	x29, x30, [sp,#-32]!
    9224:	aa0203e5 	mov	x5, x2
    9228:	910003fd 	mov	x29, sp
    922c:	a90153f3 	stp	x19, x20, [sp,#16]
    9230:	aa0303f3 	mov	x19, x3
    9234:	aa0103e3 	mov	x3, x1
    9238:	aa0403f4 	mov	x20, x4
    923c:	aa0003e1 	mov	x1, x0
/home/xiang/rockpi4-android/optee_os/lib/libutils/isoc/bget_malloc.c:431
    9240:	ab030262 	adds	x2, x19, x3
    9244:	540001a4 	b.mi	9278 <raw_memalign+0x68>
    9248:	eb03005f 	cmp	x2, x3
    924c:	54000163 	b.cc	9278 <raw_memalign+0x68>
/home/xiang/rockpi4-android/optee_os/lib/libutils/isoc/bget_malloc.c:436
    9250:	f100005f 	cmp	x2, #0x0
/home/xiang/rockpi4-android/optee_os/lib/libutils/isoc/bget_malloc.c:438
    9254:	aa0403e3 	mov	x3, x4
    9258:	9a9f1442 	csinc	x2, x2, xzr, ne
    925c:	aa0503e0 	mov	x0, x5
    9260:	97fffdb4 	bl	8930 <bget>
/home/xiang/rockpi4-android/optee_os/lib/libutils/isoc/bget_malloc.c:440
    9264:	aa1403e2 	mov	x2, x20
    9268:	aa1303e1 	mov	x1, x19
/home/xiang/rockpi4-android/optee_os/lib/libutils/isoc/bget_malloc.c:441
    926c:	a94153f3 	ldp	x19, x20, [sp,#16]
    9270:	a8c27bfd 	ldp	x29, x30, [sp],#32
/home/xiang/rockpi4-android/optee_os/lib/libutils/isoc/bget_malloc.c:440
    9274:	17fffda1 	b	88f8 <raw_malloc_return_hook>
/home/xiang/rockpi4-android/optee_os/lib/libutils/isoc/bget_malloc.c:422
    9278:	d2800000 	mov	x0, #0x0                   	// #0
    927c:	17fffffa 	b	9264 <raw_memalign+0x54>
/home/xiang/rockpi4-android/optee_os/lib/libutils/isoc/bget_malloc.c:441
    9280:	d2800000 	mov	x0, #0x0                   	// #0
    9284:	d65f03c0 	ret

0000000000009288 <raw_malloc>:
raw_malloc():
/home/xiang/rockpi4-android/optee_os/lib/libutils/isoc/bget_malloc.c:450
    9288:	aa0303e4 	mov	x4, x3
    928c:	aa0203e3 	mov	x3, x2
    9290:	d2800202 	mov	x2, #0x10                  	// #16
    9294:	17ffffdf 	b	9210 <raw_memalign>

0000000000009298 <raw_free>:
raw_free():
/home/xiang/rockpi4-android/optee_os/lib/libutils/isoc/bget_malloc.c:454
    9298:	12001c42 	and	w2, w2, #0xff
/home/xiang/rockpi4-android/optee_os/lib/libutils/isoc/bget_malloc.c:457
    929c:	b4000040 	cbz	x0, 92a4 <raw_free+0xc>
/home/xiang/rockpi4-android/optee_os/lib/libutils/isoc/bget_malloc.c:458
    92a0:	17fffe88 	b	8cc0 <brel>
    92a4:	d65f03c0 	ret

00000000000092a8 <raw_calloc>:
raw_calloc():
/home/xiang/rockpi4-android/optee_os/lib/libutils/isoc/bget_malloc.c:463
    92a8:	a9be7bfd 	stp	x29, x30, [sp,#-32]!
    92ac:	910003fd 	mov	x29, sp
    92b0:	a90153f3 	stp	x19, x20, [sp,#16]
/home/xiang/rockpi4-android/optee_os/lib/libutils/isoc/bget_malloc.c:470
    92b4:	9b037c53 	mul	x19, x2, x3
    92b8:	9bc37c42 	umulh	x2, x2, x3
/home/xiang/rockpi4-android/optee_os/lib/libutils/isoc/bget_malloc.c:463
    92bc:	aa0403f4 	mov	x20, x4
/home/xiang/rockpi4-android/optee_os/lib/libutils/isoc/bget_malloc.c:470
    92c0:	f100005f 	cmp	x2, #0x0
    92c4:	9a9f07e2 	cset	x2, ne
    92c8:	b7f80253 	tbnz	x19, #63, 9310 <raw_calloc+0x68>
    92cc:	b5000222 	cbnz	x2, 9310 <raw_calloc+0x68>
/home/xiang/rockpi4-android/optee_os/lib/libutils/isoc/bget_malloc.c:472
    92d0:	8b010262 	add	x2, x19, x1
    92d4:	d2f00003 	mov	x3, #0x8000000000000000    	// #-9223372036854775808
    92d8:	8b030043 	add	x3, x2, x3
    92dc:	eb01007f 	cmp	x3, x1
    92e0:	54000183 	b.cc	9310 <raw_calloc+0x68>
/home/xiang/rockpi4-android/optee_os/lib/libutils/isoc/bget_malloc.c:477
    92e4:	f100005f 	cmp	x2, #0x0
/home/xiang/rockpi4-android/optee_os/lib/libutils/isoc/bget_malloc.c:479
    92e8:	aa0003e1 	mov	x1, x0
    92ec:	aa0403e3 	mov	x3, x4
    92f0:	9a9f1442 	csinc	x2, x2, xzr, ne
    92f4:	d2800000 	mov	x0, #0x0                   	// #0
    92f8:	97fffe50 	bl	8c38 <bgetz>
/home/xiang/rockpi4-android/optee_os/lib/libutils/isoc/bget_malloc.c:481
    92fc:	aa1403e2 	mov	x2, x20
    9300:	aa1303e1 	mov	x1, x19
/home/xiang/rockpi4-android/optee_os/lib/libutils/isoc/bget_malloc.c:482
    9304:	a94153f3 	ldp	x19, x20, [sp,#16]
    9308:	a8c27bfd 	ldp	x29, x30, [sp],#32
/home/xiang/rockpi4-android/optee_os/lib/libutils/isoc/bget_malloc.c:481
    930c:	17fffd7b 	b	88f8 <raw_malloc_return_hook>
/home/xiang/rockpi4-android/optee_os/lib/libutils/isoc/bget_malloc.c:464
    9310:	d2800000 	mov	x0, #0x0                   	// #0
    9314:	17fffffa 	b	92fc <raw_calloc+0x54>

0000000000009318 <raw_realloc>:
raw_realloc():
/home/xiang/rockpi4-android/optee_os/lib/libutils/isoc/bget_malloc.c:486
    9318:	a9bc7bfd 	stp	x29, x30, [sp,#-64]!
    931c:	910003fd 	mov	x29, sp
    9320:	a90363f7 	stp	x23, x24, [sp,#48]
    9324:	aa0303f7 	mov	x23, x3
    9328:	a90153f3 	stp	x19, x20, [sp,#16]
    932c:	aa0403f8 	mov	x24, x4
    9330:	a9025bf5 	stp	x21, x22, [sp,#32]
/home/xiang/rockpi4-android/optee_os/lib/libutils/isoc/bget_malloc.c:491
    9334:	ab010073 	adds	x19, x3, x1
    9338:	54000124 	b.mi	935c <raw_realloc+0x44>
    933c:	eb01027f 	cmp	x19, x1
    9340:	540000e3 	b.cc	935c <raw_realloc+0x44>
/home/xiang/rockpi4-android/optee_os/lib/libutils/isoc/bget_malloc.c:493
    9344:	8b020273 	add	x19, x19, x2
    9348:	aa0003f6 	mov	x22, x0
    934c:	d2f00000 	mov	x0, #0x8000000000000000    	// #-9223372036854775808
    9350:	8b000260 	add	x0, x19, x0
    9354:	eb02001f 	cmp	x0, x2
    9358:	54000062 	b.cs	9364 <raw_realloc+0x4c>
/home/xiang/rockpi4-android/optee_os/lib/libutils/isoc/bget_malloc.c:487
    935c:	d2800015 	mov	x21, #0x0                   	// #0
    9360:	1400000c 	b	9390 <raw_realloc+0x78>
/home/xiang/rockpi4-android/optee_os/lib/libutils/isoc/bget_malloc.c:500
    9364:	f100027f 	cmp	x19, #0x0
/home/xiang/rockpi4-android/optee_os/lib/libutils/isoc/bget_malloc.c:502
    9368:	aa0403e3 	mov	x3, x4
/home/xiang/rockpi4-android/optee_os/lib/libutils/isoc/bget_malloc.c:500
    936c:	9a9f1673 	csinc	x19, x19, xzr, ne
/home/xiang/rockpi4-android/optee_os/lib/libutils/isoc/bget_malloc.c:502
    9370:	d2800001 	mov	x1, #0x0                   	// #0
    9374:	aa1303e2 	mov	x2, x19
    9378:	d2800000 	mov	x0, #0x0                   	// #0
    937c:	97fffd6d 	bl	8930 <bget>
/home/xiang/rockpi4-android/optee_os/lib/libutils/isoc/bget_malloc.c:504
    9380:	f100001f 	cmp	x0, #0x0
/home/xiang/rockpi4-android/optee_os/lib/libutils/isoc/bget_malloc.c:502
    9384:	aa0003f5 	mov	x21, x0
/home/xiang/rockpi4-android/optee_os/lib/libutils/isoc/bget_malloc.c:504
    9388:	fa401ac4 	ccmp	x22, #0x0, #0x4, ne
    938c:	54000121 	b.ne	93b0 <raw_realloc+0x98>
/home/xiang/rockpi4-android/optee_os/lib/libutils/isoc/bget_malloc.c:521
    9390:	aa1803e2 	mov	x2, x24
    9394:	aa1703e1 	mov	x1, x23
    9398:	aa1503e0 	mov	x0, x21
/home/xiang/rockpi4-android/optee_os/lib/libutils/isoc/bget_malloc.c:522
    939c:	a94153f3 	ldp	x19, x20, [sp,#16]
    93a0:	a9425bf5 	ldp	x21, x22, [sp,#32]
    93a4:	a94363f7 	ldp	x23, x24, [sp,#48]
    93a8:	a8c47bfd 	ldp	x29, x30, [sp],#64
/home/xiang/rockpi4-android/optee_os/lib/libutils/isoc/bget_malloc.c:521
    93ac:	17fffd53 	b	88f8 <raw_malloc_return_hook>
bget_buf_size():
/home/xiang/rockpi4-android/optee_os/lib/libutils/isoc/bget_malloc.c:207
    93b0:	f85f82c1 	ldur	x1, [x22,#-8]
    93b4:	928001f4 	mov	x20, #0xfffffffffffffff0    	// #-16
    93b8:	cb010294 	sub	x20, x20, x1
/home/xiang/rockpi4-android/optee_os/lib/libutils/isoc/bget_malloc.c:208
    93bc:	f100029f 	cmp	x20, #0x0
    93c0:	5400004c 	b.gt	93c8 <raw_realloc+0xb0>
    93c4:	940000ff 	bl	97c0 <bget_buf_size.part.7>
raw_realloc():
/home/xiang/rockpi4-android/optee_os/lib/libutils/isoc/bget_malloc.c:508
    93c8:	eb14027f 	cmp	x19, x20
    93cc:	540001ad 	b.le	9400 <raw_realloc+0xe8>
/home/xiang/rockpi4-android/optee_os/lib/libutils/isoc/bget_malloc.c:509
    93d0:	aa1403e2 	mov	x2, x20
    93d4:	aa1603e1 	mov	x1, x22
    93d8:	97ffdb12 	bl	20 <memcpy>
/home/xiang/rockpi4-android/optee_os/lib/libutils/isoc/bget_malloc.c:512
    93dc:	cb140262 	sub	x2, x19, x20
    93e0:	52800001 	mov	w1, #0x0                   	// #0
    93e4:	8b1402a0 	add	x0, x21, x20
    93e8:	94000147 	bl	9904 <memset>
/home/xiang/rockpi4-android/optee_os/lib/libutils/isoc/bget_malloc.c:518
    93ec:	52800002 	mov	w2, #0x0                   	// #0
    93f0:	aa1803e1 	mov	x1, x24
    93f4:	aa1603e0 	mov	x0, x22
    93f8:	97fffe32 	bl	8cc0 <brel>
    93fc:	17ffffe5 	b	9390 <raw_realloc+0x78>
/home/xiang/rockpi4-android/optee_os/lib/libutils/isoc/bget_malloc.c:515
    9400:	aa1303e2 	mov	x2, x19
    9404:	aa1603e1 	mov	x1, x22
    9408:	97ffdb06 	bl	20 <memcpy>
    940c:	17fffff8 	b	93ec <raw_realloc+0xd4>

0000000000009410 <gen_malloc_add_pool>:
gen_malloc_add_pool():
/home/xiang/rockpi4-android/optee_os/lib/libutils/isoc/bget_malloc.c:846
    9410:	a9bd7bfd 	stp	x29, x30, [sp,#-48]!
    9414:	910003fd 	mov	x29, sp
    9418:	a90153f3 	stp	x19, x20, [sp,#16]
/home/xiang/rockpi4-android/optee_os/lib/libutils/isoc/bget_malloc.c:851
    941c:	8b020034 	add	x20, x1, x2
/home/xiang/rockpi4-android/optee_os/lib/libutils/isoc/bget_malloc.c:846
    9420:	a9025bf5 	stp	x21, x22, [sp,#32]
/home/xiang/rockpi4-android/optee_os/lib/libutils/isoc/bget_malloc.c:854
    9424:	91003c21 	add	x1, x1, #0xf
    9428:	927cec35 	and	x21, x1, #0xfffffffffffffff0
/home/xiang/rockpi4-android/optee_os/lib/libutils/isoc/bget_malloc.c:855
    942c:	927cee94 	and	x20, x20, #0xfffffffffffffff0
/home/xiang/rockpi4-android/optee_os/lib/libutils/isoc/bget_malloc.c:857
    9430:	eb1402bf 	cmp	x21, x20
    9434:	54000528 	b.hi	94d8 <gen_malloc_add_pool+0xc8>
/home/xiang/rockpi4-android/optee_os/lib/libutils/isoc/bget_malloc.c:857 (discriminator 1)
    9438:	cb150294 	sub	x20, x20, x21
    943c:	f100be9f 	cmp	x20, #0x2f
    9440:	540004c9 	b.ls	94d8 <gen_malloc_add_pool+0xc8>
/home/xiang/rockpi4-android/optee_os/lib/libutils/isoc/bget_malloc.c:863
    9444:	f9402001 	ldr	x1, [x0,#64]
    9448:	b5000061 	cbnz	x1, 9454 <gen_malloc_add_pool+0x44>
/home/xiang/rockpi4-android/optee_os/lib/libutils/isoc/bget_malloc.c:863 (discriminator 1)
    944c:	f10ffe9f 	cmp	x20, #0x3ff
    9450:	54000449 	b.ls	94d8 <gen_malloc_add_pool+0xc8>
    9454:	aa0003f3 	mov	x19, x0
/home/xiang/rockpi4-android/optee_os/lib/libutils/isoc/bget_malloc.c:871
    9458:	aa0003e2 	mov	x2, x0
    945c:	aa1403e1 	mov	x1, x20
    9460:	aa1503e0 	mov	x0, x21
    9464:	97fffefc 	bl	9054 <bpool>
/home/xiang/rockpi4-android/optee_os/lib/libutils/isoc/bget_malloc.c:872
    9468:	a943da60 	ldp	x0, x22, [x19,#56]
realloc_unlocked():
/home/xiang/rockpi4-android/optee_os/lib/libutils/isoc/bget_malloc.c:804
    946c:	aa1303e4 	mov	x4, x19
    9470:	d2800002 	mov	x2, #0x0                   	// #0
    9474:	d2800001 	mov	x1, #0x0                   	// #0
gen_malloc_add_pool():
/home/xiang/rockpi4-android/optee_os/lib/libutils/isoc/bget_malloc.c:872
    9478:	910006d6 	add	x22, x22, #0x1
realloc_unlocked():
/home/xiang/rockpi4-android/optee_os/lib/libutils/isoc/bget_malloc.c:804
    947c:	d37ceec3 	lsl	x3, x22, #4
    9480:	97ffffa6 	bl	9318 <raw_realloc>
gen_malloc_add_pool():
/home/xiang/rockpi4-android/optee_os/lib/libutils/isoc/bget_malloc.c:874
    9484:	b5000160 	cbnz	x0, 94b0 <gen_malloc_add_pool+0xa0>
/home/xiang/rockpi4-android/optee_os/lib/libutils/isoc/bget_malloc.c:874 (discriminator 1)
    9488:	d0000003 	adrp	x3, b000 <small_prime+0x140>
    948c:	91062063 	add	x3, x3, #0x188
    9490:	91010063 	add	x3, x3, #0x40
    9494:	d0000001 	adrp	x1, b000 <small_prime+0x140>
    9498:	d0000000 	adrp	x0, b000 <small_prime+0x140>
    949c:	91293421 	add	x1, x1, #0xa4d
    94a0:	91341000 	add	x0, x0, #0xd04
    94a4:	52806d42 	mov	w2, #0x36a                 	// #874
    94a8:	97ffea98 	bl	3f08 <_assert_log>
    94ac:	97ffeaa8 	bl	3f4c <_assert_break>
/home/xiang/rockpi4-android/optee_os/lib/libutils/isoc/bget_malloc.c:876
    94b0:	f9402261 	ldr	x1, [x19,#64]
/home/xiang/rockpi4-android/optee_os/lib/libutils/isoc/bget_malloc.c:875
    94b4:	f9001e60 	str	x0, [x19,#56]
/home/xiang/rockpi4-android/optee_os/lib/libutils/isoc/bget_malloc.c:876
    94b8:	d37cec21 	lsl	x1, x1, #4
    94bc:	8b010002 	add	x2, x0, x1
    94c0:	f8216815 	str	x21, [x0,x1]
/home/xiang/rockpi4-android/optee_os/lib/libutils/isoc/bget_malloc.c:877
    94c4:	f9000454 	str	x20, [x2,#8]
/home/xiang/rockpi4-android/optee_os/lib/libutils/isoc/bget_malloc.c:879
    94c8:	b9407262 	ldr	w2, [x19,#112]
/home/xiang/rockpi4-android/optee_os/lib/libutils/isoc/bget_malloc.c:881
    94cc:	f9002276 	str	x22, [x19,#64]
/home/xiang/rockpi4-android/optee_os/lib/libutils/isoc/bget_malloc.c:879
    94d0:	0b140054 	add	w20, w2, w20
    94d4:	b9007274 	str	w20, [x19,#112]
/home/xiang/rockpi4-android/optee_os/lib/libutils/isoc/bget_malloc.c:883
    94d8:	a94153f3 	ldp	x19, x20, [sp,#16]
    94dc:	a9425bf5 	ldp	x21, x22, [sp,#32]
    94e0:	a8c37bfd 	ldp	x29, x30, [sp],#48
    94e4:	d65f03c0 	ret

00000000000094e8 <malloc>:
malloc():
/home/xiang/rockpi4-android/optee_os/lib/libutils/isoc/bget_malloc.c:778
    94e8:	aa0003e2 	mov	x2, x0
    94ec:	90000023 	adrp	x3, d000 <_DYNAMIC>
    94f0:	d2800001 	mov	x1, #0x0                   	// #0
    94f4:	9111a063 	add	x3, x3, #0x468
    94f8:	d2800000 	mov	x0, #0x0                   	// #0
    94fc:	17ffff63 	b	9288 <raw_malloc>

0000000000009500 <calloc>:
calloc():
/home/xiang/rockpi4-android/optee_os/lib/libutils/isoc/bget_malloc.c:796
    9500:	aa0103e3 	mov	x3, x1
    9504:	aa0003e2 	mov	x2, x0
    9508:	90000024 	adrp	x4, d000 <_DYNAMIC>
    950c:	d2800001 	mov	x1, #0x0                   	// #0
    9510:	9111a084 	add	x4, x4, #0x468
    9514:	d2800000 	mov	x0, #0x0                   	// #0
    9518:	17ffff64 	b	92a8 <raw_calloc>

000000000000951c <realloc>:
realloc_unlocked():
/home/xiang/rockpi4-android/optee_os/lib/libutils/isoc/bget_malloc.c:804
    951c:	aa0103e3 	mov	x3, x1
    9520:	90000024 	adrp	x4, d000 <_DYNAMIC>
    9524:	d2800002 	mov	x2, #0x0                   	// #0
    9528:	9111a084 	add	x4, x4, #0x468
    952c:	d2800001 	mov	x1, #0x0                   	// #0
    9530:	17ffff7a 	b	9318 <raw_realloc>

0000000000009534 <memalign>:
memalign():
/home/xiang/rockpi4-android/optee_os/lib/libutils/isoc/bget_malloc.c:822
    9534:	aa0103e3 	mov	x3, x1
    9538:	aa0003e2 	mov	x2, x0
    953c:	90000024 	adrp	x4, d000 <_DYNAMIC>
    9540:	d2800001 	mov	x1, #0x0                   	// #0
    9544:	9111a084 	add	x4, x4, #0x468
    9548:	d2800000 	mov	x0, #0x0                   	// #0
    954c:	17ffff31 	b	9210 <raw_memalign>

0000000000009550 <free>:
free_helper():
/home/xiang/rockpi4-android/optee_os/lib/libutils/isoc/bget_malloc.c:787
    9550:	52800002 	mov	w2, #0x0                   	// #0
    9554:	90000021 	adrp	x1, d000 <_DYNAMIC>
    9558:	9111a021 	add	x1, x1, #0x468
    955c:	17ffff4f 	b	9298 <raw_free>

0000000000009560 <free_wipe>:
    9560:	52800022 	mov	w2, #0x1                   	// #1
    9564:	90000021 	adrp	x1, d000 <_DYNAMIC>
    9568:	9111a021 	add	x1, x1, #0x468
    956c:	17ffff4b 	b	9298 <raw_free>

0000000000009570 <raw_malloc_get_ctx_size>:
raw_malloc_get_ctx_size():
/home/xiang/rockpi4-android/optee_os/lib/libutils/isoc/bget_malloc.c:955
    9570:	d2801000 	mov	x0, #0x80                  	// #128
    9574:	d65f03c0 	ret

0000000000009578 <raw_malloc_init_ctx>:
raw_malloc_init_ctx():
/home/xiang/rockpi4-android/optee_os/lib/libutils/isoc/bget_malloc.c:958
    9578:	a9be7bfd 	stp	x29, x30, [sp,#-32]!
/home/xiang/rockpi4-android/optee_os/lib/libutils/isoc/bget_malloc.c:959
    957c:	d2801002 	mov	x2, #0x80                  	// #128
    9580:	52800001 	mov	w1, #0x0                   	// #0
/home/xiang/rockpi4-android/optee_os/lib/libutils/isoc/bget_malloc.c:958
    9584:	910003fd 	mov	x29, sp
    9588:	f9000bf3 	str	x19, [sp,#16]
    958c:	aa0003f3 	mov	x19, x0
/home/xiang/rockpi4-android/optee_os/lib/libutils/isoc/bget_malloc.c:959
    9590:	940000dd 	bl	9904 <memset>
/home/xiang/rockpi4-android/optee_os/lib/libutils/isoc/bget_malloc.c:961
    9594:	a9014e73 	stp	x19, x19, [x19,#16]
/home/xiang/rockpi4-android/optee_os/lib/libutils/isoc/bget_malloc.c:962
    9598:	f9400bf3 	ldr	x19, [sp,#16]
    959c:	a8c27bfd 	ldp	x29, x30, [sp],#32
    95a0:	d65f03c0 	ret

00000000000095a4 <raw_malloc_add_pool>:
raw_malloc_add_pool():
/home/xiang/rockpi4-android/optee_os/lib/libutils/isoc/bget_malloc.c:966
    95a4:	17ffff9b 	b	9410 <gen_malloc_add_pool>

00000000000095a8 <raw_malloc_get_stats>:
raw_malloc_get_stats():
/home/xiang/rockpi4-android/optee_os/lib/libutils/isoc/bget_malloc.c:971
    95a8:	a9be7bfd 	stp	x29, x30, [sp,#-32]!
    95ac:	aa0103e3 	mov	x3, x1
memcpy_unchecked():
/home/xiang/rockpi4-android/optee_os/lib/libutils/isoc/bget_malloc.c:121
    95b0:	d2800702 	mov	x2, #0x38                  	// #56
    95b4:	91012001 	add	x1, x0, #0x48
raw_malloc_get_stats():
/home/xiang/rockpi4-android/optee_os/lib/libutils/isoc/bget_malloc.c:971
    95b8:	910003fd 	mov	x29, sp
    95bc:	f9000bf3 	str	x19, [sp,#16]
    95c0:	aa0003f3 	mov	x19, x0
memcpy_unchecked():
/home/xiang/rockpi4-android/optee_os/lib/libutils/isoc/bget_malloc.c:121
    95c4:	aa0303e0 	mov	x0, x3
    95c8:	97ffda96 	bl	20 <memcpy>
    95cc:	aa0003e3 	mov	x3, x0
gen_malloc_get_stats():
/home/xiang/rockpi4-android/optee_os/lib/libutils/isoc/bget_malloc.c:315
    95d0:	f9401260 	ldr	x0, [x19,#32]
raw_malloc_get_stats():
/home/xiang/rockpi4-android/optee_os/lib/libutils/isoc/bget_malloc.c:973
    95d4:	f9400bf3 	ldr	x19, [sp,#16]
gen_malloc_get_stats():
/home/xiang/rockpi4-android/optee_os/lib/libutils/isoc/bget_malloc.c:315
    95d8:	b9002060 	str	w0, [x3,#32]
raw_malloc_get_stats():
/home/xiang/rockpi4-android/optee_os/lib/libutils/isoc/bget_malloc.c:973
    95dc:	a8c27bfd 	ldp	x29, x30, [sp],#32
    95e0:	d65f03c0 	ret

00000000000095e4 <malloc_add_pool>:
malloc_add_pool():
/home/xiang/rockpi4-android/optee_os/lib/libutils/isoc/bget_malloc.c:978
    95e4:	aa0103e2 	mov	x2, x1
    95e8:	aa0003e1 	mov	x1, x0
    95ec:	90000020 	adrp	x0, d000 <_DYNAMIC>
    95f0:	9111a000 	add	x0, x0, #0x468
    95f4:	17ffff87 	b	9410 <gen_malloc_add_pool>

00000000000095f8 <malloc_buffer_is_within_alloced>:
gen_malloc_buffer_is_within_alloced():
/home/xiang/rockpi4-android/optee_os/lib/libutils/isoc/bget_malloc.c:891
    95f8:	8b010001 	add	x1, x0, x1
/home/xiang/rockpi4-android/optee_os/lib/libutils/isoc/bget_malloc.c:898
    95fc:	eb01001f 	cmp	x0, x1
    9600:	54000a68 	b.hi	974c <malloc_buffer_is_within_alloced+0x154>
    9604:	aa0003e5 	mov	x5, x0
    9608:	90000020 	adrp	x0, d000 <_DYNAMIC>
    960c:	9111a000 	add	x0, x0, #0x468
bpool_foreach_iterator_init():
/home/xiang/rockpi4-android/optee_os/lib/libutils/isoc/bget_malloc.c:359
    9610:	d2800006 	mov	x6, #0x0                   	// #0
bpool_foreach_pool():
/home/xiang/rockpi4-android/optee_os/lib/libutils/isoc/bget_malloc.c:369
    9614:	d2f0000b 	mov	x11, #0x8000000000000000    	// #-9223372036854775808
bget_buf_size():
/home/xiang/rockpi4-android/optee_os/lib/libutils/isoc/bget_malloc.c:207
    9618:	928001e9 	mov	x9, #0xfffffffffffffff0    	// #-16
bpool_foreach():
/home/xiang/rockpi4-android/optee_os/lib/libutils/isoc/bget_malloc.c:406
    961c:	a943a807 	ldp	x7, x10, [x0,#56]
bpool_foreach_iterator_init():
/home/xiang/rockpi4-android/optee_os/lib/libutils/isoc/bget_malloc.c:360
    9620:	f94000e3 	ldr	x3, [x7]
bpool_foreach_pool():
/home/xiang/rockpi4-android/optee_os/lib/libutils/isoc/bget_malloc.c:367
    9624:	f9400462 	ldr	x2, [x3,#8]
bpool_foreach():
/home/xiang/rockpi4-android/optee_os/lib/libutils/isoc/bget_malloc.c:410
    9628:	aa0303e4 	mov	x4, x3
bpool_foreach_pool():
/home/xiang/rockpi4-android/optee_os/lib/libutils/isoc/bget_malloc.c:369
    962c:	eb0b005f 	cmp	x2, x11
    9630:	54000880 	b.eq	9740 <malloc_buffer_is_within_alloced+0x148>
malloc_buffer_is_within_alloced():
/home/xiang/rockpi4-android/optee_os/lib/libutils/isoc/bget_malloc.c:982
    9634:	a9bf7bfd 	stp	x29, x30, [sp,#-16]!
    9638:	910003fd 	mov	x29, sp
    963c:	1400000d 	b	9670 <malloc_buffer_is_within_alloced+0x78>
bpool_foreach_pool():
/home/xiang/rockpi4-android/optee_os/lib/libutils/isoc/bget_malloc.c:386
    9640:	91004084 	add	x4, x4, #0x10
gen_malloc_buffer_is_within_alloced():
/home/xiang/rockpi4-android/optee_os/lib/libutils/isoc/bget_malloc.c:907
    9644:	8b020082 	add	x2, x4, x2
/home/xiang/rockpi4-android/optee_os/lib/libutils/isoc/bget_malloc.c:909
    9648:	eb02003f 	cmp	x1, x2
    964c:	1a9f87e2 	cset	w2, ls
    9650:	eb0400bf 	cmp	x5, x4
    9654:	1a9f37e0 	cset	w0, cs
    9658:	6a000040 	ands	w0, w2, w0
    965c:	54000681 	b.ne	972c <malloc_buffer_is_within_alloced+0x134>
bpool_foreach_pool():
/home/xiang/rockpi4-android/optee_os/lib/libutils/isoc/bget_malloc.c:367
    9660:	f9400462 	ldr	x2, [x3,#8]
bpool_foreach():
/home/xiang/rockpi4-android/optee_os/lib/libutils/isoc/bget_malloc.c:410
    9664:	aa0303e4 	mov	x4, x3
bpool_foreach_pool():
/home/xiang/rockpi4-android/optee_os/lib/libutils/isoc/bget_malloc.c:369
    9668:	eb0b005f 	cmp	x2, x11
    966c:	54000580 	b.eq	971c <malloc_buffer_is_within_alloced+0x124>
/home/xiang/rockpi4-android/optee_os/lib/libutils/isoc/bget_malloc.c:372
    9670:	b6f80122 	tbz	x2, #63, 9694 <malloc_buffer_is_within_alloced+0x9c>
/home/xiang/rockpi4-android/optee_os/lib/libutils/isoc/bget_malloc.c:374
    9674:	cb0203e8 	neg	x8, x2
/home/xiang/rockpi4-android/optee_os/lib/libutils/isoc/bget_malloc.c:376
    9678:	52800000 	mov	w0, #0x0                   	// #0
/home/xiang/rockpi4-android/optee_os/lib/libutils/isoc/bget_malloc.c:389
    967c:	8b080063 	add	x3, x3, x8
bpool_foreach():
/home/xiang/rockpi4-android/optee_os/lib/libutils/isoc/bget_malloc.c:401
    9680:	35ffff00 	cbnz	w0, 9660 <malloc_buffer_is_within_alloced+0x68>
bget_buf_size():
/home/xiang/rockpi4-android/optee_os/lib/libutils/isoc/bget_malloc.c:207
    9684:	cb020122 	sub	x2, x9, x2
/home/xiang/rockpi4-android/optee_os/lib/libutils/isoc/bget_malloc.c:208
    9688:	f100005f 	cmp	x2, #0x0
    968c:	54fffdac 	b.gt	9640 <malloc_buffer_is_within_alloced+0x48>
    9690:	9400004c 	bl	97c0 <bget_buf_size.part.7>
bpool_foreach_pool():
/home/xiang/rockpi4-android/optee_os/lib/libutils/isoc/bget_malloc.c:382
    9694:	f9400c60 	ldr	x0, [x3,#24]
    9698:	f9400800 	ldr	x0, [x0,#16]
    969c:	eb00007f 	cmp	x3, x0
    96a0:	54000160 	b.eq	96cc <malloc_buffer_is_within_alloced+0xd4>
    96a4:	d0000003 	adrp	x3, b000 <small_prime+0x140>
    96a8:	91062063 	add	x3, x3, #0x188
    96ac:	91016063 	add	x3, x3, #0x58
    96b0:	d0000001 	adrp	x1, b000 <small_prime+0x140>
    96b4:	d0000000 	adrp	x0, b000 <small_prime+0x140>
    96b8:	91293421 	add	x1, x1, #0xa4d
    96bc:	912ac000 	add	x0, x0, #0xab0
    96c0:	52802fc2 	mov	w2, #0x17e                 	// #382
    96c4:	97ffea11 	bl	3f08 <_assert_log>
    96c8:	97ffea21 	bl	3f4c <_assert_break>
/home/xiang/rockpi4-android/optee_os/lib/libutils/isoc/bget_malloc.c:383
    96cc:	f9400860 	ldr	x0, [x3,#16]
    96d0:	f9400c00 	ldr	x0, [x0,#24]
    96d4:	eb00007f 	cmp	x3, x0
    96d8:	54000160 	b.eq	9704 <malloc_buffer_is_within_alloced+0x10c>
    96dc:	d0000003 	adrp	x3, b000 <small_prime+0x140>
    96e0:	91062063 	add	x3, x3, #0x188
    96e4:	91016063 	add	x3, x3, #0x58
    96e8:	d0000001 	adrp	x1, b000 <small_prime+0x140>
    96ec:	d0000000 	adrp	x0, b000 <small_prime+0x140>
    96f0:	91293421 	add	x1, x1, #0xa4d
    96f4:	912b2c00 	add	x0, x0, #0xacb
    96f8:	52802fe2 	mov	w2, #0x17f                 	// #383
    96fc:	97ffea03 	bl	3f08 <_assert_log>
    9700:	97ffea13 	bl	3f4c <_assert_break>
    9704:	aa0203e8 	mov	x8, x2
/home/xiang/rockpi4-android/optee_os/lib/libutils/isoc/bget_malloc.c:379
    9708:	52800020 	mov	w0, #0x1                   	// #1
    970c:	17ffffdc 	b	967c <malloc_buffer_is_within_alloced+0x84>
bpool_foreach():
/home/xiang/rockpi4-android/optee_os/lib/libutils/isoc/bget_malloc.c:410
    9710:	d37cecc0 	lsl	x0, x6, #4
    9714:	f86068e3 	ldr	x3, [x7,x0]
    9718:	17ffffd2 	b	9660 <malloc_buffer_is_within_alloced+0x68>
/home/xiang/rockpi4-android/optee_os/lib/libutils/isoc/bget_malloc.c:406
    971c:	910004c6 	add	x6, x6, #0x1
    9720:	eb0a00df 	cmp	x6, x10
    9724:	54ffff63 	b.cc	9710 <malloc_buffer_is_within_alloced+0x118>
gen_malloc_buffer_is_within_alloced():
/home/xiang/rockpi4-android/optee_os/lib/libutils/isoc/bget_malloc.c:892
    9728:	52800000 	mov	w0, #0x0                   	// #0
malloc_buffer_is_within_alloced():
/home/xiang/rockpi4-android/optee_os/lib/libutils/isoc/bget_malloc.c:984
    972c:	a8c17bfd 	ldp	x29, x30, [sp],#16
    9730:	d65f03c0 	ret
bpool_foreach():
/home/xiang/rockpi4-android/optee_os/lib/libutils/isoc/bget_malloc.c:410
    9734:	d37cecc0 	lsl	x0, x6, #4
    9738:	f86068e3 	ldr	x3, [x7,x0]
    973c:	17ffffba 	b	9624 <malloc_buffer_is_within_alloced+0x2c>
/home/xiang/rockpi4-android/optee_os/lib/libutils/isoc/bget_malloc.c:406
    9740:	910004c6 	add	x6, x6, #0x1
    9744:	eb0a00df 	cmp	x6, x10
    9748:	54ffff63 	b.cc	9734 <malloc_buffer_is_within_alloced+0x13c>
gen_malloc_buffer_is_within_alloced():
/home/xiang/rockpi4-android/optee_os/lib/libutils/isoc/bget_malloc.c:892
    974c:	52800000 	mov	w0, #0x0                   	// #0
malloc_buffer_is_within_alloced():
/home/xiang/rockpi4-android/optee_os/lib/libutils/isoc/bget_malloc.c:983
    9750:	d65f03c0 	ret

0000000000009754 <malloc_buffer_overlaps_heap>:
gen_malloc_buffer_overlaps_heap():
/home/xiang/rockpi4-android/optee_os/lib/libutils/isoc/bget_malloc.c:932
    9754:	90000022 	adrp	x2, d000 <_DYNAMIC>
    9758:	9111a042 	add	x2, x2, #0x468
/home/xiang/rockpi4-android/optee_os/lib/libutils/isoc/bget_malloc.c:925
    975c:	8b010001 	add	x1, x0, x1
/home/xiang/rockpi4-android/optee_os/lib/libutils/isoc/bget_malloc.c:932
    9760:	d2800005 	mov	x5, #0x0                   	// #0
    9764:	a9439c43 	ldp	x3, x7, [x2,#56]
    9768:	eb0700bf 	cmp	x5, x7
    976c:	54000081 	b.ne	977c <malloc_buffer_overlaps_heap+0x28>
/home/xiang/rockpi4-android/optee_os/lib/libutils/isoc/bget_malloc.c:927
    9770:	52800002 	mov	w2, #0x0                   	// #0
malloc_buffer_overlaps_heap():
/home/xiang/rockpi4-android/optee_os/lib/libutils/isoc/bget_malloc.c:989
    9774:	2a0203e0 	mov	w0, w2
    9778:	d65f03c0 	ret
gen_malloc_buffer_overlaps_heap():
/home/xiang/rockpi4-android/optee_os/lib/libutils/isoc/bget_malloc.c:934
    977c:	a9401066 	ldp	x6, x4, [x3]
/home/xiang/rockpi4-android/optee_os/lib/libutils/isoc/bget_malloc.c:936
    9780:	eb01001f 	cmp	x0, x1
    9784:	1a9f97e2 	cset	w2, hi
/home/xiang/rockpi4-android/optee_os/lib/libutils/isoc/bget_malloc.c:934
    9788:	8b0400c4 	add	x4, x6, x4
/home/xiang/rockpi4-android/optee_os/lib/libutils/isoc/bget_malloc.c:936
    978c:	eb0400df 	cmp	x6, x4
    9790:	1a9f97e8 	cset	w8, hi
    9794:	2a080042 	orr	w2, w2, w8
    9798:	35fffee2 	cbnz	w2, 9774 <malloc_buffer_overlaps_heap+0x20>
/home/xiang/rockpi4-android/optee_os/lib/libutils/isoc/bget_malloc.c:941
    979c:	eb06003f 	cmp	x1, x6
    97a0:	91004063 	add	x3, x3, #0x10
    97a4:	1a9f97e2 	cset	w2, hi
    97a8:	eb04001f 	cmp	x0, x4
    97ac:	1a9f27e4 	cset	w4, cc
    97b0:	2a040042 	orr	w2, w2, w4
    97b4:	35fffe02 	cbnz	w2, 9774 <malloc_buffer_overlaps_heap+0x20>
/home/xiang/rockpi4-android/optee_os/lib/libutils/isoc/bget_malloc.c:932
    97b8:	910004a5 	add	x5, x5, #0x1
    97bc:	17ffffeb 	b	9768 <malloc_buffer_overlaps_heap+0x14>

00000000000097c0 <bget_buf_size.part.7>:
bget_buf_size():
/home/xiang/rockpi4-android/optee_os/lib/libutils/isoc/bget_malloc.c:208
    97c0:	d0000003 	adrp	x3, b000 <small_prime+0x140>
    97c4:	d0000001 	adrp	x1, b000 <small_prime+0x140>
    97c8:	91062063 	add	x3, x3, #0x188
    97cc:	91293421 	add	x1, x1, #0xa4d
    97d0:	d0000000 	adrp	x0, b000 <small_prime+0x140>
    97d4:	9129b400 	add	x0, x0, #0xa6d
/home/xiang/rockpi4-android/optee_os/lib/libutils/isoc/bget_malloc.c:191
    97d8:	a9bf7bfd 	stp	x29, x30, [sp,#-16]!
/home/xiang/rockpi4-android/optee_os/lib/libutils/isoc/bget_malloc.c:208
    97dc:	52801a02 	mov	w2, #0xd0                  	// #208
/home/xiang/rockpi4-android/optee_os/lib/libutils/isoc/bget_malloc.c:191
    97e0:	910003fd 	mov	x29, sp
/home/xiang/rockpi4-android/optee_os/lib/libutils/isoc/bget_malloc.c:208
    97e4:	97ffe9c9 	bl	3f08 <_assert_log>
    97e8:	97ffe9d9 	bl	3f4c <_assert_break>

00000000000097ec <snprintf>:
snprintf():
/home/xiang/rockpi4-android/optee_os/lib/libutils/isoc/snprintf.c:10
    97ec:	a9b07bfd 	stp	x29, x30, [sp,#-256]!
    97f0:	910003fd 	mov	x29, sp
    97f4:	a90d93a3 	stp	x3, x4, [x29,#216]
/home/xiang/rockpi4-android/optee_os/lib/libutils/isoc/snprintf.c:14
    97f8:	910403a3 	add	x3, x29, #0x100
    97fc:	a9030fa3 	stp	x3, x3, [x29,#48]
    9800:	910343a3 	add	x3, x29, #0xd0
    9804:	f90023a3 	str	x3, [x29,#64]
    9808:	128004e3 	mov	w3, #0xffffffd8            	// #-40
    980c:	b9004ba3 	str	w3, [x29,#72]
    9810:	12800fe3 	mov	w3, #0xffffff80            	// #-128
    9814:	b9004fa3 	str	w3, [x29,#76]
/home/xiang/rockpi4-android/optee_os/lib/libutils/isoc/snprintf.c:15
    9818:	910043a3 	add	x3, x29, #0x10
/home/xiang/rockpi4-android/optee_os/lib/libutils/isoc/snprintf.c:10
    981c:	a90e9ba5 	stp	x5, x6, [x29,#232]
/home/xiang/rockpi4-android/optee_os/lib/libutils/isoc/snprintf.c:15
    9820:	a94317a4 	ldp	x4, x5, [x29,#48]
    9824:	a90117a4 	stp	x4, x5, [x29,#16]
    9828:	a94417a4 	ldp	x4, x5, [x29,#64]
    982c:	a90217a4 	stp	x4, x5, [x29,#32]
/home/xiang/rockpi4-android/optee_os/lib/libutils/isoc/snprintf.c:10
    9830:	3d8017a0 	str	q0, [x29,#80]
/home/xiang/rockpi4-android/optee_os/lib/libutils/isoc/snprintf.c:15
    9834:	52800004 	mov	w4, #0x0                   	// #0
/home/xiang/rockpi4-android/optee_os/lib/libutils/isoc/snprintf.c:10
    9838:	3d801ba1 	str	q1, [x29,#96]
    983c:	3d801fa2 	str	q2, [x29,#112]
    9840:	3d8023a3 	str	q3, [x29,#128]
    9844:	3d8027a4 	str	q4, [x29,#144]
    9848:	3d802ba5 	str	q5, [x29,#160]
    984c:	3d802fa6 	str	q6, [x29,#176]
    9850:	3d8033a7 	str	q7, [x29,#192]
    9854:	f9007fa7 	str	x7, [x29,#248]
/home/xiang/rockpi4-android/optee_os/lib/libutils/isoc/snprintf.c:15
    9858:	94000045 	bl	996c <__vsnprintf>
/home/xiang/rockpi4-android/optee_os/lib/libutils/isoc/snprintf.c:19
    985c:	a8d07bfd 	ldp	x29, x30, [sp],#256
    9860:	d65f03c0 	ret

0000000000009864 <vsnprintf>:
vsnprintf():
/home/xiang/rockpi4-android/optee_os/lib/libutils/isoc/snprintf.c:22
    9864:	a9bb7bfd 	stp	x29, x30, [sp,#-80]!
    9868:	910003fd 	mov	x29, sp
    986c:	a90153f3 	stp	x19, x20, [sp,#16]
    9870:	aa0003f3 	mov	x19, x0
    9874:	f90013f5 	str	x21, [sp,#32]
    9878:	aa0103f4 	mov	x20, x1
    987c:	aa0203f5 	mov	x21, x2
/home/xiang/rockpi4-android/optee_os/lib/libutils/isoc/snprintf.c:23
    9880:	aa0303e1 	mov	x1, x3
    9884:	9100c3a0 	add	x0, x29, #0x30
    9888:	d2800402 	mov	x2, #0x20                  	// #32
    988c:	97ffd9e5 	bl	20 <memcpy>
    9890:	aa0003e3 	mov	x3, x0
    9894:	aa1503e2 	mov	x2, x21
    9898:	aa1403e1 	mov	x1, x20
    989c:	52800004 	mov	w4, #0x0                   	// #0
    98a0:	aa1303e0 	mov	x0, x19
    98a4:	94000032 	bl	996c <__vsnprintf>
/home/xiang/rockpi4-android/optee_os/lib/libutils/isoc/snprintf.c:24
    98a8:	f94013f5 	ldr	x21, [sp,#32]
    98ac:	a94153f3 	ldp	x19, x20, [sp,#16]
    98b0:	a8c57bfd 	ldp	x29, x30, [sp],#80
    98b4:	d65f03c0 	ret

00000000000098b8 <memmove>:
memmove():
/home/xiang/rockpi4-android/optee_os/lib/libutils/isoc/newlib/memmove.c:96
    98b8:	eb01001f 	cmp	x0, x1
    98bc:	54000089 	b.ls	98cc <memmove+0x14>
/home/xiang/rockpi4-android/optee_os/lib/libutils/isoc/newlib/memmove.c:96 (discriminator 1)
    98c0:	8b020023 	add	x3, x1, x2
    98c4:	eb03001f 	cmp	x0, x3
    98c8:	540000e3 	b.cc	98e4 <memmove+0x2c>
    98cc:	d2800003 	mov	x3, #0x0                   	// #0
/home/xiang/rockpi4-android/optee_os/lib/libutils/isoc/newlib/memmove.c:103
    98d0:	eb03005f 	cmp	x2, x3
    98d4:	54000101 	b.ne	98f4 <memmove+0x3c>
/home/xiang/rockpi4-android/optee_os/lib/libutils/isoc/newlib/memmove.c:157
    98d8:	d65f03c0 	ret
/home/xiang/rockpi4-android/optee_os/lib/libutils/isoc/newlib/memmove.c:101
    98dc:	38626823 	ldrb	w3, [x1,x2]
    98e0:	38226803 	strb	w3, [x0,x2]
/home/xiang/rockpi4-android/optee_os/lib/libutils/isoc/newlib/memmove.c:100
    98e4:	d1000442 	sub	x2, x2, #0x1
    98e8:	b100045f 	cmn	x2, #0x1
    98ec:	54ffff81 	b.ne	98dc <memmove+0x24>
    98f0:	d65f03c0 	ret
/home/xiang/rockpi4-android/optee_os/lib/libutils/isoc/newlib/memmove.c:104
    98f4:	38636824 	ldrb	w4, [x1,x3]
    98f8:	38236804 	strb	w4, [x0,x3]
    98fc:	91000463 	add	x3, x3, #0x1
    9900:	17fffff4 	b	98d0 <memmove+0x18>

0000000000009904 <memset>:
memset():
/home/xiang/rockpi4-android/optee_os/lib/libutils/isoc/newlib/memset.c:125
    9904:	d2800003 	mov	x3, #0x0                   	// #0
    9908:	eb03005f 	cmp	x2, x3
    990c:	54000041 	b.ne	9914 <memset+0x10>
/home/xiang/rockpi4-android/optee_os/lib/libutils/isoc/newlib/memset.c:129
    9910:	d65f03c0 	ret
/home/xiang/rockpi4-android/optee_os/lib/libutils/isoc/newlib/memset.c:126
    9914:	38236801 	strb	w1, [x0,x3]
    9918:	91000463 	add	x3, x3, #0x1
    991c:	17fffffb 	b	9908 <memset+0x4>

0000000000009920 <strcmp>:
strcmp():
/home/xiang/rockpi4-android/optee_os/lib/libutils/isoc/newlib/strcmp.c:99
    9920:	d2800002 	mov	x2, #0x0                   	// #0
    9924:	38626803 	ldrb	w3, [x0,x2]
    9928:	8b020024 	add	x4, x1, x2
    992c:	340000c3 	cbz	w3, 9944 <strcmp+0x24>
    9930:	91000442 	add	x2, x2, #0x1
/home/xiang/rockpi4-android/optee_os/lib/libutils/isoc/newlib/strcmp.c:99 (discriminator 1)
    9934:	8b020025 	add	x5, x1, x2
    9938:	385ff0a5 	ldurb	w5, [x5,#-1]
    993c:	6b0300bf 	cmp	w5, w3
    9940:	54ffff20 	b.eq	9924 <strcmp+0x4>
/home/xiang/rockpi4-android/optee_os/lib/libutils/isoc/newlib/strcmp.c:104
    9944:	39400080 	ldrb	w0, [x4]
/home/xiang/rockpi4-android/optee_os/lib/libutils/isoc/newlib/strcmp.c:142
    9948:	4b000060 	sub	w0, w3, w0
    994c:	d65f03c0 	ret

0000000000009950 <strlen>:
strlen():
/home/xiang/rockpi4-android/optee_os/lib/libutils/isoc/newlib/strlen.c:117
    9950:	aa0003e1 	mov	x1, x0
    9954:	39400022 	ldrb	w2, [x1]
    9958:	35000062 	cbnz	w2, 9964 <strlen+0x14>
/home/xiang/rockpi4-android/optee_os/lib/libutils/isoc/newlib/strlen.c:120
    995c:	cb000020 	sub	x0, x1, x0
    9960:	d65f03c0 	ret
/home/xiang/rockpi4-android/optee_os/lib/libutils/isoc/newlib/strlen.c:118
    9964:	91000421 	add	x1, x1, #0x1
    9968:	17fffffb 	b	9954 <strlen+0x4>

000000000000996c <__vsnprintf>:
__vsnprintf():
/home/xiang/rockpi4-android/optee_os/lib/libutils/ext/snprintk.c:138
    996c:	a9b97bfd 	stp	x29, x30, [sp,#-112]!
    9970:	910003fd 	mov	x29, sp
    9974:	a90153f3 	stp	x19, x20, [sp,#16]
    9978:	aa0003f3 	mov	x19, x0
    997c:	a9025bf5 	stp	x21, x22, [sp,#32]
    9980:	aa0103f4 	mov	x20, x1
/home/xiang/rockpi4-android/optee_os/lib/libutils/ext/snprintk.c:142
    9984:	8b010015 	add	x21, x0, x1
/home/xiang/rockpi4-android/optee_os/lib/libutils/ext/snprintk.c:138
    9988:	aa0203f6 	mov	x22, x2
/home/xiang/rockpi4-android/optee_os/lib/libutils/ext/snprintk.c:143
    998c:	aa0303e1 	mov	x1, x3
    9990:	d2800402 	mov	x2, #0x20                  	// #32
/home/xiang/rockpi4-android/optee_os/lib/libutils/ext/snprintk.c:138
    9994:	f9001bf7 	str	x23, [sp,#48]
/home/xiang/rockpi4-android/optee_os/lib/libutils/ext/snprintk.c:143
    9998:	910103a0 	add	x0, x29, #0x40
/home/xiang/rockpi4-android/optee_os/lib/libutils/ext/snprintk.c:138
    999c:	12001c97 	and	w23, w4, #0xff
/home/xiang/rockpi4-android/optee_os/lib/libutils/ext/snprintk.c:142
    99a0:	f90037b5 	str	x21, [x29,#104]
/home/xiang/rockpi4-android/optee_os/lib/libutils/ext/snprintk.c:143
    99a4:	97ffd99f 	bl	20 <memcpy>
    99a8:	aa0003e3 	mov	x3, x0
    99ac:	2a1703e4 	mov	w4, w23
    99b0:	aa1303e2 	mov	x2, x19
    99b4:	9101a3a1 	add	x1, x29, #0x68
    99b8:	aa1603e0 	mov	x0, x22
    99bc:	94000041 	bl	9ac0 <kprintf.constprop.0>
/home/xiang/rockpi4-android/optee_os/lib/libutils/ext/snprintk.c:144
    99c0:	f100027f 	cmp	x19, #0x0
    99c4:	fa401a84 	ccmp	x20, #0x0, #0x4, ne
    99c8:	540000a0 	b.eq	99dc <__vsnprintf+0x70>
/home/xiang/rockpi4-android/optee_os/lib/libutils/ext/snprintk.c:146
    99cc:	93407c01 	sxtw	x1, w0
    99d0:	eb01029f 	cmp	x20, x1
    99d4:	540000e8 	b.hi	99f0 <__vsnprintf+0x84>
/home/xiang/rockpi4-android/optee_os/lib/libutils/ext/snprintk.c:147
    99d8:	381ff2bf 	sturb	wzr, [x21,#-1]
/home/xiang/rockpi4-android/optee_os/lib/libutils/ext/snprintk.c:152
    99dc:	a94153f3 	ldp	x19, x20, [sp,#16]
    99e0:	a9425bf5 	ldp	x21, x22, [sp,#32]
    99e4:	f9401bf7 	ldr	x23, [sp,#48]
    99e8:	a8c77bfd 	ldp	x29, x30, [sp],#112
    99ec:	d65f03c0 	ret
/home/xiang/rockpi4-android/optee_os/lib/libutils/ext/snprintk.c:149
    99f0:	38216a7f 	strb	wzr, [x19,x1]
/home/xiang/rockpi4-android/optee_os/lib/libutils/ext/snprintk.c:151
    99f4:	17fffffa 	b	99dc <__vsnprintf+0x70>

00000000000099f8 <vsnprintk>:
vsnprintk():
/home/xiang/rockpi4-android/optee_os/lib/libutils/ext/snprintk.c:130
    99f8:	a9bb7bfd 	stp	x29, x30, [sp,#-80]!
    99fc:	910003fd 	mov	x29, sp
    9a00:	a90153f3 	stp	x19, x20, [sp,#16]
    9a04:	aa0003f3 	mov	x19, x0
    9a08:	f90013f5 	str	x21, [sp,#32]
    9a0c:	aa0103f4 	mov	x20, x1
    9a10:	aa0203f5 	mov	x21, x2
/home/xiang/rockpi4-android/optee_os/lib/libutils/ext/snprintk.c:131
    9a14:	aa0303e1 	mov	x1, x3
    9a18:	9100c3a0 	add	x0, x29, #0x30
    9a1c:	d2800402 	mov	x2, #0x20                  	// #32
    9a20:	97ffd980 	bl	20 <memcpy>
    9a24:	aa0003e3 	mov	x3, x0
    9a28:	aa1503e2 	mov	x2, x21
    9a2c:	aa1403e1 	mov	x1, x20
    9a30:	52800024 	mov	w4, #0x1                   	// #1
    9a34:	aa1303e0 	mov	x0, x19
    9a38:	97ffffcd 	bl	996c <__vsnprintf>
/home/xiang/rockpi4-android/optee_os/lib/libutils/ext/snprintk.c:132
    9a3c:	f94013f5 	ldr	x21, [sp,#32]
    9a40:	a94153f3 	ldp	x19, x20, [sp,#16]
    9a44:	a8c57bfd 	ldp	x29, x30, [sp],#80
    9a48:	d65f03c0 	ret

0000000000009a4c <snprintk>:
snprintk():
/home/xiang/rockpi4-android/optee_os/lib/libutils/ext/snprintk.c:113
    9a4c:	a9b07bfd 	stp	x29, x30, [sp,#-256]!
    9a50:	910003fd 	mov	x29, sp
    9a54:	a90d93a3 	stp	x3, x4, [x29,#216]
/home/xiang/rockpi4-android/optee_os/lib/libutils/ext/snprintk.c:117
    9a58:	910403a3 	add	x3, x29, #0x100
    9a5c:	a9030fa3 	stp	x3, x3, [x29,#48]
    9a60:	910343a3 	add	x3, x29, #0xd0
    9a64:	f90023a3 	str	x3, [x29,#64]
    9a68:	128004e3 	mov	w3, #0xffffffd8            	// #-40
    9a6c:	b9004ba3 	str	w3, [x29,#72]
    9a70:	12800fe3 	mov	w3, #0xffffff80            	// #-128
    9a74:	b9004fa3 	str	w3, [x29,#76]
/home/xiang/rockpi4-android/optee_os/lib/libutils/ext/snprintk.c:118
    9a78:	910043a3 	add	x3, x29, #0x10
/home/xiang/rockpi4-android/optee_os/lib/libutils/ext/snprintk.c:113
    9a7c:	a90e9ba5 	stp	x5, x6, [x29,#232]
/home/xiang/rockpi4-android/optee_os/lib/libutils/ext/snprintk.c:118
    9a80:	a94317a4 	ldp	x4, x5, [x29,#48]
    9a84:	a90117a4 	stp	x4, x5, [x29,#16]
    9a88:	a94417a4 	ldp	x4, x5, [x29,#64]
/home/xiang/rockpi4-android/optee_os/lib/libutils/ext/snprintk.c:113
    9a8c:	3d8017a0 	str	q0, [x29,#80]
    9a90:	3d801ba1 	str	q1, [x29,#96]
    9a94:	3d801fa2 	str	q2, [x29,#112]
    9a98:	3d8023a3 	str	q3, [x29,#128]
    9a9c:	3d8027a4 	str	q4, [x29,#144]
    9aa0:	3d802ba5 	str	q5, [x29,#160]
    9aa4:	3d802fa6 	str	q6, [x29,#176]
    9aa8:	3d8033a7 	str	q7, [x29,#192]
    9aac:	f9007fa7 	str	x7, [x29,#248]
/home/xiang/rockpi4-android/optee_os/lib/libutils/ext/snprintk.c:118
    9ab0:	a90217a4 	stp	x4, x5, [x29,#32]
    9ab4:	97ffffd1 	bl	99f8 <vsnprintk>
/home/xiang/rockpi4-android/optee_os/lib/libutils/ext/snprintk.c:122
    9ab8:	a8d07bfd 	ldp	x29, x30, [sp],#256
    9abc:	d65f03c0 	ret

0000000000009ac0 <kprintf.constprop.0>:
kprintf():
/home/xiang/rockpi4-android/optee_os/lib/libutils/ext/snprintk.c:242
    9ac0:	d103c3ff 	sub	sp, sp, #0xf0
    9ac4:	aa0003e8 	mov	x8, x0
    9ac8:	12001c80 	and	w0, w4, #0xff
    9acc:	a9037bfd 	stp	x29, x30, [sp,#48]
    9ad0:	9100c3fd 	add	x29, sp, #0x30
    9ad4:	a90453f3 	stp	x19, x20, [sp,#64]
    9ad8:	a9055bf5 	stp	x21, x22, [sp,#80]
    9adc:	aa0203f6 	mov	x22, x2
    9ae0:	a90663f7 	stp	x23, x24, [sp,#96]
    9ae4:	a9076bf9 	stp	x25, x26, [sp,#112]
    9ae8:	aa0103fa 	mov	x26, x1
    9aec:	a90873fb 	stp	x27, x28, [sp,#128]
    9af0:	b9008fa0 	str	w0, [x29,#140]
    9af4:	b9401874 	ldr	w20, [x3,#24]
    9af8:	a9405c73 	ldp	x19, x23, [x3]
/home/xiang/rockpi4-android/optee_os/lib/libutils/ext/snprintk.c:264
    9afc:	b40004c1 	cbz	x1, 9b94 <kprintf.constprop.0+0xd4>
/home/xiang/rockpi4-android/optee_os/lib/libutils/ext/snprintk.c:265
    9b00:	f940002c 	ldr	x12, [x1]
    9b04:	910263ad 	add	x13, x29, #0x98
/home/xiang/rockpi4-android/optee_os/lib/libutils/ext/snprintk.c:275
    9b08:	d2800019 	mov	x25, #0x0                   	// #0
/home/xiang/rockpi4-android/optee_os/lib/libutils/ext/snprintk.c:273
    9b0c:	5280001b 	mov	w27, #0x0                   	// #0
/home/xiang/rockpi4-android/optee_os/lib/libutils/ext/snprintk.c:281
    9b10:	39400100 	ldrb	w0, [x8]
    9b14:	7100941f 	cmp	w0, #0x25
    9b18:	7a401804 	ccmp	w0, #0x0, #0x4, ne
    9b1c:	54000401 	b.ne	9b9c <kprintf.constprop.0+0xdc>
/home/xiang/rockpi4-android/optee_os/lib/libutils/ext/snprintk.c:285
    9b20:	34005cc0 	cbz	w0, a6b8 <kprintf.constprop.0+0xbf8>
/home/xiang/rockpi4-android/optee_os/lib/libutils/ext/snprintk.c:293
    9b24:	12800003 	mov	w3, #0xffffffff            	// #-1
/home/xiang/rockpi4-android/optee_os/lib/libutils/ext/snprintk.c:288
    9b28:	91000502 	add	x2, x8, #0x1
    9b2c:	2a1403e0 	mov	w0, w20
/home/xiang/rockpi4-android/optee_os/lib/libutils/ext/snprintk.c:330
    9b30:	2a0303e5 	mov	w5, w3
/home/xiang/rockpi4-android/optee_os/lib/libutils/ext/snprintk.c:294
    9b34:	52800001 	mov	w1, #0x0                   	// #0
/home/xiang/rockpi4-android/optee_os/lib/libutils/ext/snprintk.c:292
    9b38:	52800009 	mov	w9, #0x0                   	// #0
/home/xiang/rockpi4-android/optee_os/lib/libutils/ext/snprintk.c:290
    9b3c:	52800015 	mov	w21, #0x0                   	// #0
/home/xiang/rockpi4-android/optee_os/lib/libutils/ext/snprintk.c:305
    9b40:	52800406 	mov	w6, #0x20                  	// #32
/home/xiang/rockpi4-android/optee_os/lib/libutils/ext/snprintk.c:296
    9b44:	39400058 	ldrb	w24, [x2]
    9b48:	91000448 	add	x8, x2, #0x1
/home/xiang/rockpi4-android/optee_os/lib/libutils/ext/snprintk.c:297
    9b4c:	71018f1f 	cmp	w24, #0x63
    9b50:	54001c20 	b.eq	9ed4 <kprintf.constprop.0+0x414>
    9b54:	5400086c 	b.gt	9c60 <kprintf.constprop.0+0x1a0>
    9b58:	7100c31f 	cmp	w24, #0x30
    9b5c:	54001a00 	b.eq	9e9c <kprintf.constprop.0+0x3dc>
    9b60:	5400042c 	b.gt	9be4 <kprintf.constprop.0+0x124>
    9b64:	7100ab1f 	cmp	w24, #0x2a
    9b68:	54001340 	b.eq	9dd0 <kprintf.constprop.0+0x310>
    9b6c:	540002ac 	b.gt	9bc0 <kprintf.constprop.0+0x100>
    9b70:	7100831f 	cmp	w24, #0x20
    9b74:	54001240 	b.eq	9dbc <kprintf.constprop.0+0x2fc>
    9b78:	71008f1f 	cmp	w24, #0x23
    9b7c:	54001260 	b.eq	9dc8 <kprintf.constprop.0+0x308>
/home/xiang/rockpi4-android/optee_os/lib/libutils/ext/snprintk.c:547
    9b80:	340059d8 	cbz	w24, a6b8 <kprintf.constprop.0+0xbf8>
/home/xiang/rockpi4-android/optee_os/lib/libutils/ext/snprintk.c:551
    9b84:	910303bc 	add	x28, x29, #0xc0
    9b88:	2a0003f4 	mov	w20, w0
    9b8c:	381d8f98 	strb	w24, [x28,#-40]!
    9b90:	140000d9 	b	9ef4 <kprintf.constprop.0+0x434>
/home/xiang/rockpi4-android/optee_os/lib/libutils/ext/snprintk.c:267
    9b94:	d280000c 	mov	x12, #0x0                   	// #0
    9b98:	17ffffdb 	b	9b04 <kprintf.constprop.0+0x44>
/home/xiang/rockpi4-android/optee_os/lib/libutils/ext/snprintk.c:282
    9b9c:	1100077b 	add	w27, w27, #0x1
/home/xiang/rockpi4-android/optee_os/lib/libutils/ext/snprintk.c:283
    9ba0:	b40000d6 	cbz	x22, 9bb8 <kprintf.constprop.0+0xf8>
    9ba4:	f100035f 	cmp	x26, #0x0
    9ba8:	fa4c12c0 	ccmp	x22, x12, #0x0, ne
    9bac:	54000062 	b.cs	9bb8 <kprintf.constprop.0+0xf8>
    9bb0:	390002c0 	strb	w0, [x22]
    9bb4:	910006d6 	add	x22, x22, #0x1
/home/xiang/rockpi4-android/optee_os/lib/libutils/ext/snprintk.c:281
    9bb8:	91000508 	add	x8, x8, #0x1
    9bbc:	17ffffd5 	b	9b10 <kprintf.constprop.0+0x50>
/home/xiang/rockpi4-android/optee_os/lib/libutils/ext/snprintk.c:297
    9bc0:	7100b71f 	cmp	w24, #0x2d
    9bc4:	54001140 	b.eq	9dec <kprintf.constprop.0+0x32c>
    9bc8:	7100bb1f 	cmp	w24, #0x2e
    9bcc:	540012a0 	b.eq	9e20 <kprintf.constprop.0+0x360>
    9bd0:	7100af1f 	cmp	w24, #0x2b
    9bd4:	54fffd61 	b.ne	9b80 <kprintf.constprop.0+0xc0>
/home/xiang/rockpi4-android/optee_os/lib/libutils/ext/snprintk.c:325
    9bd8:	2a1803e1 	mov	w1, w24
/home/xiang/rockpi4-android/optee_os/lib/libutils/ext/snprintk.c:328
    9bdc:	aa0803e2 	mov	x2, x8
    9be0:	17ffffd9 	b	9b44 <kprintf.constprop.0+0x84>
/home/xiang/rockpi4-android/optee_os/lib/libutils/ext/snprintk.c:297
    9be4:	7101131f 	cmp	w24, #0x44
    9be8:	54001980 	b.eq	9f18 <kprintf.constprop.0+0x458>
    9bec:	5400018c 	b.gt	9c1c <kprintf.constprop.0+0x15c>
    9bf0:	7100e71f 	cmp	w24, #0x39
    9bf4:	54fffc6c 	b.gt	9b80 <kprintf.constprop.0+0xc0>
    9bf8:	52800009 	mov	w9, #0x0                   	// #0
/home/xiang/rockpi4-android/optee_os/lib/libutils/ext/snprintk.c:352
    9bfc:	5100c318 	sub	w24, w24, #0x30
    9c00:	52800142 	mov	w2, #0xa                   	// #10
    9c04:	1b026129 	madd	w9, w9, w2, w24
/home/xiang/rockpi4-android/optee_os/lib/libutils/ext/snprintk.c:353
    9c08:	38401518 	ldrb	w24, [x8],#1
/home/xiang/rockpi4-android/optee_os/lib/libutils/ext/snprintk.c:354
    9c0c:	5100c302 	sub	w2, w24, #0x30
    9c10:	7100245f 	cmp	w2, #0x9
    9c14:	54ffff49 	b.ls	9bfc <kprintf.constprop.0+0x13c>
    9c18:	17ffffcd 	b	9b4c <kprintf.constprop.0+0x8c>
/home/xiang/rockpi4-android/optee_os/lib/libutils/ext/snprintk.c:297
    9c1c:	7101571f 	cmp	w24, #0x55
    9c20:	54003e40 	b.eq	a3e8 <kprintf.constprop.0+0x928>
    9c24:	7101631f 	cmp	w24, #0x58
    9c28:	54000ae0 	b.eq	9d84 <kprintf.constprop.0+0x2c4>
    9c2c:	71013f1f 	cmp	w24, #0x4f
    9c30:	54fffa81 	b.ne	9b80 <kprintf.constprop.0+0xc0>
/home/xiang/rockpi4-android/optee_os/lib/libutils/ext/snprintk.c:414
    9c34:	321c02b5 	orr	w21, w21, #0x10
/home/xiang/rockpi4-android/optee_os/lib/libutils/ext/snprintk.c:417
    9c38:	36382775 	tbz	w21, #7, a124 <kprintf.constprop.0+0x664>
    9c3c:	37f828c0 	tbnz	w0, #31, a154 <kprintf.constprop.0+0x694>
    9c40:	91003e61 	add	x1, x19, #0xf
    9c44:	2a0003f4 	mov	w20, w0
    9c48:	aa1303e0 	mov	x0, x19
    9c4c:	927df033 	and	x19, x1, #0xfffffffffffffff8
    9c50:	f9400004 	ldr	x4, [x0]
/home/xiang/rockpi4-android/optee_os/lib/libutils/ext/snprintk.c:418
    9c54:	52800000 	mov	w0, #0x0                   	// #0
/home/xiang/rockpi4-android/optee_os/lib/libutils/ext/snprintk.c:488
    9c58:	52800001 	mov	w1, #0x0                   	// #0
    9c5c:	140000bb 	b	9f48 <kprintf.constprop.0+0x488>
/home/xiang/rockpi4-android/optee_os/lib/libutils/ext/snprintk.c:297
    9c60:	7101bf1f 	cmp	w24, #0x6f
    9c64:	54fffea0 	b.eq	9c38 <kprintf.constprop.0+0x178>
    9c68:	5400024c 	b.gt	9cb0 <kprintf.constprop.0+0x1f0>
    9c6c:	7101a71f 	cmp	w24, #0x69
    9c70:	54001560 	b.eq	9f1c <kprintf.constprop.0+0x45c>
    9c74:	540000ec 	b.gt	9c90 <kprintf.constprop.0+0x1d0>
    9c78:	7101931f 	cmp	w24, #0x64
    9c7c:	54001500 	b.eq	9f1c <kprintf.constprop.0+0x45c>
    9c80:	7101a31f 	cmp	w24, #0x68
    9c84:	54fff7e1 	b.ne	9b80 <kprintf.constprop.0+0xc0>
/home/xiang/rockpi4-android/optee_os/lib/libutils/ext/snprintk.c:358
    9c88:	321a02b5 	orr	w21, w21, #0x40
    9c8c:	17ffffd4 	b	9bdc <kprintf.constprop.0+0x11c>
/home/xiang/rockpi4-android/optee_os/lib/libutils/ext/snprintk.c:297
    9c90:	7101b31f 	cmp	w24, #0x6c
    9c94:	54001080 	b.eq	9ea4 <kprintf.constprop.0+0x3e4>
    9c98:	7101bb1f 	cmp	w24, #0x6e
    9c9c:	54001dc0 	b.eq	a054 <kprintf.constprop.0+0x594>
    9ca0:	7101ab1f 	cmp	w24, #0x6a
    9ca4:	54fff6e1 	b.ne	9b80 <kprintf.constprop.0+0xc0>
/home/xiang/rockpi4-android/optee_os/lib/libutils/ext/snprintk.c:361
    9ca8:	321902b5 	orr	w21, w21, #0x80
    9cac:	17ffffcc 	b	9bdc <kprintf.constprop.0+0x11c>
/home/xiang/rockpi4-android/optee_os/lib/libutils/ext/snprintk.c:297
    9cb0:	7101d31f 	cmp	w24, #0x74
    9cb4:	54001080 	b.eq	9ec4 <kprintf.constprop.0+0x404>
    9cb8:	5400048c 	b.gt	9d48 <kprintf.constprop.0+0x288>
    9cbc:	7101c71f 	cmp	w24, #0x71
    9cc0:	54000fa0 	b.eq	9eb4 <kprintf.constprop.0+0x3f4>
    9cc4:	5400280b 	b.lt	a1c4 <kprintf.constprop.0+0x704>
    9cc8:	7101cf1f 	cmp	w24, #0x73
    9ccc:	54fff5a1 	b.ne	9b80 <kprintf.constprop.0+0xc0>
/home/xiang/rockpi4-android/optee_os/lib/libutils/ext/snprintk.c:448
    9cd0:	37f83660 	tbnz	w0, #31, a39c <kprintf.constprop.0+0x8dc>
    9cd4:	91003e61 	add	x1, x19, #0xf
    9cd8:	2a0003f4 	mov	w20, w0
    9cdc:	aa1303e0 	mov	x0, x19
    9ce0:	927df033 	and	x19, x1, #0xfffffffffffffff8
    9ce4:	f940001c 	ldr	x28, [x0]
    9ce8:	b500007c 	cbnz	x28, 9cf4 <kprintf.constprop.0+0x234>
/home/xiang/rockpi4-android/optee_os/lib/libutils/ext/snprintk.c:450
    9cec:	d000001c 	adrp	x28, b000 <small_prime+0x140>
    9cf0:	91341b9c 	add	x28, x28, #0xd06
/home/xiang/rockpi4-android/optee_os/lib/libutils/ext/snprintk.c:451
    9cf4:	3100047f 	cmn	w3, #0x1
    9cf8:	54003600 	b.eq	a3b8 <kprintf.constprop.0+0x8f8>
/home/xiang/rockpi4-android/optee_os/lib/libutils/ext/snprintk.c:457
    9cfc:	93407c62 	sxtw	x2, w3
    9d00:	a90623ad 	stp	x13, x8, [x29,#96]
    9d04:	f9003bac 	str	x12, [x29,#112]
    9d08:	52800001 	mov	w1, #0x0                   	// #0
    9d0c:	b9007ba9 	str	w9, [x29,#120]
    9d10:	aa1c03e0 	mov	x0, x28
    9d14:	b90083a3 	str	w3, [x29,#128]
    9d18:	940003ba 	bl	ac00 <memchr>
/home/xiang/rockpi4-android/optee_os/lib/libutils/ext/snprintk.c:459
    9d1c:	b9407ba9 	ldr	w9, [x29,#120]
    9d20:	b94083a3 	ldr	w3, [x29,#128]
    9d24:	a94623ad 	ldp	x13, x8, [x29,#96]
    9d28:	f9403bac 	ldr	x12, [x29,#112]
    9d2c:	b4000080 	cbz	x0, 9d3c <kprintf.constprop.0+0x27c>
/home/xiang/rockpi4-android/optee_os/lib/libutils/ext/snprintk.c:460
    9d30:	cb1c0000 	sub	x0, x0, x28
    9d34:	6b00007f 	cmp	w3, w0
    9d38:	1a80d063 	csel	w3, w3, w0, le
/home/xiang/rockpi4-android/optee_os/lib/libutils/ext/snprintk.c:291
    9d3c:	52800000 	mov	w0, #0x0                   	// #0
/home/xiang/rockpi4-android/optee_os/lib/libutils/ext/snprintk.c:467
    9d40:	52800001 	mov	w1, #0x0                   	// #0
    9d44:	1400014f 	b	a280 <kprintf.constprop.0+0x7c0>
/home/xiang/rockpi4-android/optee_os/lib/libutils/ext/snprintk.c:297
    9d48:	7101e31f 	cmp	w24, #0x78
    9d4c:	54003a20 	b.eq	a490 <kprintf.constprop.0+0x9d0>
    9d50:	7101eb1f 	cmp	w24, #0x7a
    9d54:	54000bc0 	b.eq	9ecc <kprintf.constprop.0+0x40c>
    9d58:	7101d71f 	cmp	w24, #0x75
    9d5c:	54fff121 	b.ne	9b80 <kprintf.constprop.0+0xc0>
/home/xiang/rockpi4-android/optee_os/lib/libutils/ext/snprintk.c:473
    9d60:	36383495 	tbz	w21, #7, a3f0 <kprintf.constprop.0+0x930>
    9d64:	37f835e0 	tbnz	w0, #31, a420 <kprintf.constprop.0+0x960>
    9d68:	91003e61 	add	x1, x19, #0xf
    9d6c:	2a0003f4 	mov	w20, w0
    9d70:	aa1303e0 	mov	x0, x19
    9d74:	927df033 	and	x19, x1, #0xfffffffffffffff8
    9d78:	f9400004 	ldr	x4, [x0]
/home/xiang/rockpi4-android/optee_os/lib/libutils/ext/snprintk.c:474
    9d7c:	52800020 	mov	w0, #0x1                   	// #1
    9d80:	17ffffb6 	b	9c58 <kprintf.constprop.0+0x198>
/home/xiang/rockpi4-android/optee_os/lib/libutils/ext/snprintk.c:477
    9d84:	d0000019 	adrp	x25, b000 <small_prime+0x140>
    9d88:	9107e339 	add	x25, x25, #0x1f8
/home/xiang/rockpi4-android/optee_os/lib/libutils/ext/snprintk.c:481
    9d8c:	363838b5 	tbz	w21, #7, a4a0 <kprintf.constprop.0+0x9e0>
    9d90:	37f83a00 	tbnz	w0, #31, a4d0 <kprintf.constprop.0+0xa10>
    9d94:	91003e61 	add	x1, x19, #0xf
    9d98:	2a0003f4 	mov	w20, w0
    9d9c:	aa1303e0 	mov	x0, x19
    9da0:	927df033 	and	x19, x1, #0xfffffffffffffff8
    9da4:	f9400004 	ldr	x4, [x0]
/home/xiang/rockpi4-android/optee_os/lib/libutils/ext/snprintk.c:484
    9da8:	36000075 	tbz	w21, #0, 9db4 <kprintf.constprop.0+0x2f4>
    9dac:	b4000044 	cbz	x4, 9db4 <kprintf.constprop.0+0x2f4>
/home/xiang/rockpi4-android/optee_os/lib/libutils/ext/snprintk.c:485
    9db0:	321f02b5 	orr	w21, w21, #0x2
/home/xiang/rockpi4-android/optee_os/lib/libutils/ext/snprintk.c:482
    9db4:	52800040 	mov	w0, #0x2                   	// #2
    9db8:	17ffffa8 	b	9c58 <kprintf.constprop.0+0x198>
/home/xiang/rockpi4-android/optee_os/lib/libutils/ext/snprintk.c:305
    9dbc:	7100003f 	cmp	w1, #0x0
    9dc0:	1a861021 	csel	w1, w1, w6, ne
    9dc4:	17ffff86 	b	9bdc <kprintf.constprop.0+0x11c>
/home/xiang/rockpi4-android/optee_os/lib/libutils/ext/snprintk.c:308
    9dc8:	320002b5 	orr	w21, w21, #0x1
    9dcc:	17ffff84 	b	9bdc <kprintf.constprop.0+0x11c>
/home/xiang/rockpi4-android/optee_os/lib/libutils/ext/snprintk.c:317
    9dd0:	37f80120 	tbnz	w0, #31, 9df4 <kprintf.constprop.0+0x334>
    9dd4:	91002e64 	add	x4, x19, #0xb
    9dd8:	aa1303e2 	mov	x2, x19
    9ddc:	927df093 	and	x19, x4, #0xfffffffffffffff8
    9de0:	b9400049 	ldr	w9, [x2]
    9de4:	36ffefc9 	tbz	w9, #31, 9bdc <kprintf.constprop.0+0x11c>
/home/xiang/rockpi4-android/optee_os/lib/libutils/ext/snprintk.c:319
    9de8:	4b0903e9 	neg	w9, w9
/home/xiang/rockpi4-android/optee_os/lib/libutils/ext/snprintk.c:322
    9dec:	321e02b5 	orr	w21, w21, #0x4
    9df0:	17ffff7b 	b	9bdc <kprintf.constprop.0+0x11c>
/home/xiang/rockpi4-android/optee_os/lib/libutils/ext/snprintk.c:317
    9df4:	11002004 	add	w4, w0, #0x8
    9df8:	7100009f 	cmp	w4, #0x0
    9dfc:	540000cd 	b.le	9e14 <kprintf.constprop.0+0x354>
    9e00:	91002e67 	add	x7, x19, #0xb
    9e04:	aa1303e2 	mov	x2, x19
    9e08:	2a0403e0 	mov	w0, w4
    9e0c:	927df0f3 	and	x19, x7, #0xfffffffffffffff8
    9e10:	17fffff4 	b	9de0 <kprintf.constprop.0+0x320>
    9e14:	8b20c2e2 	add	x2, x23, w0, sxtw
    9e18:	2a0403e0 	mov	w0, w4
    9e1c:	17fffff1 	b	9de0 <kprintf.constprop.0+0x320>
/home/xiang/rockpi4-android/optee_os/lib/libutils/ext/snprintk.c:328
    9e20:	39400118 	ldrb	w24, [x8]
    9e24:	91000504 	add	x4, x8, #0x1
    9e28:	7100ab1f 	cmp	w24, #0x2a
    9e2c:	54000140 	b.eq	9e54 <kprintf.constprop.0+0x394>
    9e30:	aa0403e8 	mov	x8, x4
    9e34:	52800003 	mov	w3, #0x0                   	// #0
/home/xiang/rockpi4-android/optee_os/lib/libutils/ext/snprintk.c:334
    9e38:	5100c302 	sub	w2, w24, #0x30
    9e3c:	7100245f 	cmp	w2, #0x9
    9e40:	54ffe868 	b.hi	9b4c <kprintf.constprop.0+0x8c>
/home/xiang/rockpi4-android/optee_os/lib/libutils/ext/snprintk.c:335
    9e44:	52800144 	mov	w4, #0xa                   	// #10
/home/xiang/rockpi4-android/optee_os/lib/libutils/ext/snprintk.c:336
    9e48:	38401518 	ldrb	w24, [x8],#1
/home/xiang/rockpi4-android/optee_os/lib/libutils/ext/snprintk.c:335
    9e4c:	1b040863 	madd	w3, w3, w4, w2
    9e50:	17fffffa 	b	9e38 <kprintf.constprop.0+0x378>
/home/xiang/rockpi4-android/optee_os/lib/libutils/ext/snprintk.c:329
    9e54:	37f80160 	tbnz	w0, #31, 9e80 <kprintf.constprop.0+0x3c0>
    9e58:	91002e63 	add	x3, x19, #0xb
    9e5c:	2a0003e2 	mov	w2, w0
    9e60:	aa1303e0 	mov	x0, x19
    9e64:	927df073 	and	x19, x3, #0xfffffffffffffff8
/home/xiang/rockpi4-android/optee_os/lib/libutils/ext/snprintk.c:330
    9e68:	b9400003 	ldr	w3, [x0]
/home/xiang/rockpi4-android/optee_os/lib/libutils/ext/snprintk.c:328
    9e6c:	aa0403e8 	mov	x8, x4
/home/xiang/rockpi4-android/optee_os/lib/libutils/ext/snprintk.c:330
    9e70:	2a0203e0 	mov	w0, w2
    9e74:	7100007f 	cmp	w3, #0x0
    9e78:	1a85a063 	csel	w3, w3, w5, ge
    9e7c:	17ffff58 	b	9bdc <kprintf.constprop.0+0x11c>
/home/xiang/rockpi4-android/optee_os/lib/libutils/ext/snprintk.c:329
    9e80:	11002002 	add	w2, w0, #0x8
    9e84:	7100005f 	cmp	w2, #0x0
    9e88:	5400006d 	b.le	9e94 <kprintf.constprop.0+0x3d4>
    9e8c:	91002e63 	add	x3, x19, #0xb
    9e90:	17fffff4 	b	9e60 <kprintf.constprop.0+0x3a0>
    9e94:	8b20c2e0 	add	x0, x23, w0, sxtw
    9e98:	17fffff4 	b	9e68 <kprintf.constprop.0+0x3a8>
/home/xiang/rockpi4-android/optee_os/lib/libutils/ext/snprintk.c:346
    9e9c:	321602b5 	orr	w21, w21, #0x400
    9ea0:	17ffff4f 	b	9bdc <kprintf.constprop.0+0x11c>
/home/xiang/rockpi4-android/optee_os/lib/libutils/ext/snprintk.c:364
    9ea4:	39400102 	ldrb	w2, [x8]
    9ea8:	7101b05f 	cmp	w2, #0x6c
    9eac:	54000081 	b.ne	9ebc <kprintf.constprop.0+0x3fc>
/home/xiang/rockpi4-android/optee_os/lib/libutils/ext/snprintk.c:365
    9eb0:	91000508 	add	x8, x8, #0x1
/home/xiang/rockpi4-android/optee_os/lib/libutils/ext/snprintk.c:372
    9eb4:	321b02b5 	orr	w21, w21, #0x20
    9eb8:	17ffff49 	b	9bdc <kprintf.constprop.0+0x11c>
/home/xiang/rockpi4-android/optee_os/lib/libutils/ext/snprintk.c:368
    9ebc:	321c02b5 	orr	w21, w21, #0x10
    9ec0:	17ffff47 	b	9bdc <kprintf.constprop.0+0x11c>
/home/xiang/rockpi4-android/optee_os/lib/libutils/ext/snprintk.c:375
    9ec4:	321802b5 	orr	w21, w21, #0x100
    9ec8:	17ffff45 	b	9bdc <kprintf.constprop.0+0x11c>
/home/xiang/rockpi4-android/optee_os/lib/libutils/ext/snprintk.c:378
    9ecc:	321702b5 	orr	w21, w21, #0x200
    9ed0:	17ffff43 	b	9bdc <kprintf.constprop.0+0x11c>
/home/xiang/rockpi4-android/optee_os/lib/libutils/ext/snprintk.c:381
    9ed4:	37f80140 	tbnz	w0, #31, 9efc <kprintf.constprop.0+0x43c>
    9ed8:	91002e61 	add	x1, x19, #0xb
    9edc:	2a0003f4 	mov	w20, w0
    9ee0:	aa1303e0 	mov	x0, x19
    9ee4:	927df033 	and	x19, x1, #0xfffffffffffffff8
    9ee8:	910303bc 	add	x28, x29, #0xc0
    9eec:	b9400000 	ldr	w0, [x0]
    9ef0:	381d8f80 	strb	w0, [x28,#-40]!
/home/xiang/rockpi4-android/optee_os/lib/libutils/ext/snprintk.c:552
    9ef4:	52800023 	mov	w3, #0x1                   	// #1
    9ef8:	17ffff91 	b	9d3c <kprintf.constprop.0+0x27c>
/home/xiang/rockpi4-android/optee_os/lib/libutils/ext/snprintk.c:381
    9efc:	11002014 	add	w20, w0, #0x8
    9f00:	7100029f 	cmp	w20, #0x0
    9f04:	5400006d 	b.le	9f10 <kprintf.constprop.0+0x450>
    9f08:	91002e61 	add	x1, x19, #0xb
    9f0c:	17fffff5 	b	9ee0 <kprintf.constprop.0+0x420>
    9f10:	8b20c2e0 	add	x0, x23, w0, sxtw
    9f14:	17fffff5 	b	9ee8 <kprintf.constprop.0+0x428>
/home/xiang/rockpi4-android/optee_os/lib/libutils/ext/snprintk.c:386
    9f18:	321c02b5 	orr	w21, w21, #0x10
/home/xiang/rockpi4-android/optee_os/lib/libutils/ext/snprintk.c:390
    9f1c:	363804d5 	tbz	w21, #7, 9fb4 <kprintf.constprop.0+0x4f4>
    9f20:	37f80620 	tbnz	w0, #31, 9fe4 <kprintf.constprop.0+0x524>
    9f24:	91003e62 	add	x2, x19, #0xf
    9f28:	2a0003f4 	mov	w20, w0
    9f2c:	aa1303e0 	mov	x0, x19
    9f30:	927df053 	and	x19, x2, #0xfffffffffffffff8
    9f34:	f9400004 	ldr	x4, [x0]
/home/xiang/rockpi4-android/optee_os/lib/libutils/ext/snprintk.c:391
    9f38:	b6f83044 	tbz	x4, #63, a540 <kprintf.constprop.0+0xa80>
/home/xiang/rockpi4-android/optee_os/lib/libutils/ext/snprintk.c:392
    9f3c:	cb0403e4 	neg	x4, x4
/home/xiang/rockpi4-android/optee_os/lib/libutils/ext/snprintk.c:395
    9f40:	52800020 	mov	w0, #0x1                   	// #1
/home/xiang/rockpi4-android/optee_os/lib/libutils/ext/snprintk.c:393
    9f44:	528005a1 	mov	w1, #0x2d                  	// #45
/home/xiang/rockpi4-android/optee_os/lib/libutils/ext/snprintk.c:495
    9f48:	3100047f 	cmn	w3, #0x1
    9f4c:	12157aa2 	and	w2, w21, #0xfffffbff
    9f50:	1a951055 	csel	w21, w2, w21, ne
/home/xiang/rockpi4-android/optee_os/lib/libutils/ext/snprintk.c:503
    9f54:	f100009f 	cmp	x4, #0x0
    9f58:	7a400860 	ccmp	w3, #0x0, #0x0, eq
    9f5c:	54003260 	b.eq	a5a8 <kprintf.constprop.0+0xae8>
/home/xiang/rockpi4-android/optee_os/lib/libutils/ext/snprintk.c:509
    9f60:	7100041f 	cmp	w0, #0x1
    9f64:	54002f20 	b.eq	a548 <kprintf.constprop.0+0xa88>
    9f68:	7100081f 	cmp	w0, #0x2
    9f6c:	54003100 	b.eq	a58c <kprintf.constprop.0+0xacc>
    9f70:	910095a0 	add	x0, x13, #0x25
/home/xiang/rockpi4-android/optee_os/lib/libutils/ext/snprintk.c:512
    9f74:	12000882 	and	w2, w4, #0x7
    9f78:	d100041c 	sub	x28, x0, #0x1
    9f7c:	1100c042 	add	w2, w2, #0x30
    9f80:	381ff002 	sturb	w2, [x0,#-1]
/home/xiang/rockpi4-android/optee_os/lib/libutils/ext/snprintk.c:513
    9f84:	d343fc84 	lsr	x4, x4, #3
/home/xiang/rockpi4-android/optee_os/lib/libutils/ext/snprintk.c:514
    9f88:	b5002f04 	cbnz	x4, a568 <kprintf.constprop.0+0xaa8>
/home/xiang/rockpi4-android/optee_os/lib/libutils/ext/snprintk.c:516
    9f8c:	360000d5 	tbz	w21, #0, 9fa4 <kprintf.constprop.0+0x4e4>
    9f90:	7100c05f 	cmp	w2, #0x30
    9f94:	54000080 	b.eq	9fa4 <kprintf.constprop.0+0x4e4>
/home/xiang/rockpi4-android/optee_os/lib/libutils/ext/snprintk.c:517
    9f98:	52800602 	mov	w2, #0x30                  	// #48
    9f9c:	381ff382 	sturb	w2, [x28,#-1]
    9fa0:	d100081c 	sub	x28, x0, #0x2
/home/xiang/rockpi4-android/optee_os/lib/libutils/ext/snprintk.c:543
    9fa4:	910095a2 	add	x2, x13, #0x25
    9fa8:	2a0303e0 	mov	w0, w3
    9fac:	4b1c0043 	sub	w3, w2, w28
    9fb0:	140000b4 	b	a280 <kprintf.constprop.0+0x7c0>
/home/xiang/rockpi4-android/optee_os/lib/libutils/ext/snprintk.c:390
    9fb4:	3747fb75 	tbnz	w21, #8, 9f20 <kprintf.constprop.0+0x460>
    9fb8:	374ffb55 	tbnz	w21, #9, 9f20 <kprintf.constprop.0+0x460>
    9fbc:	372ffb35 	tbnz	w21, #5, 9f20 <kprintf.constprop.0+0x460>
    9fc0:	3727fb15 	tbnz	w21, #4, 9f20 <kprintf.constprop.0+0x460>
    9fc4:	363002d5 	tbz	w21, #6, a01c <kprintf.constprop.0+0x55c>
    9fc8:	37f801c0 	tbnz	w0, #31, a000 <kprintf.constprop.0+0x540>
    9fcc:	91002e62 	add	x2, x19, #0xb
    9fd0:	2a0003f4 	mov	w20, w0
    9fd4:	aa1303e0 	mov	x0, x19
    9fd8:	927df053 	and	x19, x2, #0xfffffffffffffff8
    9fdc:	79800004 	ldrsh	x4, [x0]
    9fe0:	17ffffd6 	b	9f38 <kprintf.constprop.0+0x478>
    9fe4:	11002014 	add	w20, w0, #0x8
    9fe8:	7100029f 	cmp	w20, #0x0
    9fec:	5400006d 	b.le	9ff8 <kprintf.constprop.0+0x538>
    9ff0:	91003e62 	add	x2, x19, #0xf
    9ff4:	17ffffce 	b	9f2c <kprintf.constprop.0+0x46c>
    9ff8:	8b20c2e0 	add	x0, x23, w0, sxtw
    9ffc:	17ffffce 	b	9f34 <kprintf.constprop.0+0x474>
    a000:	11002014 	add	w20, w0, #0x8
    a004:	7100029f 	cmp	w20, #0x0
    a008:	5400006d 	b.le	a014 <kprintf.constprop.0+0x554>
    a00c:	91002e62 	add	x2, x19, #0xb
    a010:	17fffff1 	b	9fd4 <kprintf.constprop.0+0x514>
    a014:	8b20c2e0 	add	x0, x23, w0, sxtw
    a018:	17fffff1 	b	9fdc <kprintf.constprop.0+0x51c>
    a01c:	37f800e0 	tbnz	w0, #31, a038 <kprintf.constprop.0+0x578>
    a020:	91002e62 	add	x2, x19, #0xb
    a024:	2a0003f4 	mov	w20, w0
    a028:	aa1303e0 	mov	x0, x19
    a02c:	927df053 	and	x19, x2, #0xfffffffffffffff8
    a030:	b9800004 	ldrsw	x4, [x0]
    a034:	17ffffc1 	b	9f38 <kprintf.constprop.0+0x478>
    a038:	11002014 	add	w20, w0, #0x8
    a03c:	7100029f 	cmp	w20, #0x0
    a040:	5400006d 	b.le	a04c <kprintf.constprop.0+0x58c>
    a044:	91002e62 	add	x2, x19, #0xb
    a048:	17fffff8 	b	a028 <kprintf.constprop.0+0x568>
    a04c:	8b20c2e0 	add	x0, x23, w0, sxtw
    a050:	17fffff8 	b	a030 <kprintf.constprop.0+0x570>
/home/xiang/rockpi4-android/optee_os/lib/libutils/ext/snprintk.c:398
    a054:	36380155 	tbz	w21, #7, a07c <kprintf.constprop.0+0x5bc>
/home/xiang/rockpi4-android/optee_os/lib/libutils/ext/snprintk.c:407
    a058:	37f802c0 	tbnz	w0, #31, a0b0 <kprintf.constprop.0+0x5f0>
    a05c:	91003e61 	add	x1, x19, #0xf
    a060:	2a0003f4 	mov	w20, w0
    a064:	aa1303e0 	mov	x0, x19
    a068:	927df033 	and	x19, x1, #0xfffffffffffffff8
    a06c:	f9400000 	ldr	x0, [x0]
    a070:	93407f61 	sxtw	x1, w27
    a074:	f9000001 	str	x1, [x0]
    a078:	17fffea6 	b	9b10 <kprintf.constprop.0+0x50>
/home/xiang/rockpi4-android/optee_os/lib/libutils/ext/snprintk.c:400
    a07c:	3747fef5 	tbnz	w21, #8, a058 <kprintf.constprop.0+0x598>
/home/xiang/rockpi4-android/optee_os/lib/libutils/ext/snprintk.c:402
    a080:	374ffed5 	tbnz	w21, #9, a058 <kprintf.constprop.0+0x598>
/home/xiang/rockpi4-android/optee_os/lib/libutils/ext/snprintk.c:404
    a084:	372ffeb5 	tbnz	w21, #5, a058 <kprintf.constprop.0+0x598>
/home/xiang/rockpi4-android/optee_os/lib/libutils/ext/snprintk.c:406
    a088:	3727fe95 	tbnz	w21, #4, a058 <kprintf.constprop.0+0x598>
/home/xiang/rockpi4-android/optee_os/lib/libutils/ext/snprintk.c:408
    a08c:	363002f5 	tbz	w21, #6, a0e8 <kprintf.constprop.0+0x628>
/home/xiang/rockpi4-android/optee_os/lib/libutils/ext/snprintk.c:409
    a090:	37f801e0 	tbnz	w0, #31, a0cc <kprintf.constprop.0+0x60c>
    a094:	91003e61 	add	x1, x19, #0xf
    a098:	2a0003f4 	mov	w20, w0
    a09c:	aa1303e0 	mov	x0, x19
    a0a0:	927df033 	and	x19, x1, #0xfffffffffffffff8
    a0a4:	f9400000 	ldr	x0, [x0]
    a0a8:	7900001b 	strh	w27, [x0]
    a0ac:	17fffe99 	b	9b10 <kprintf.constprop.0+0x50>
/home/xiang/rockpi4-android/optee_os/lib/libutils/ext/snprintk.c:407
    a0b0:	11002014 	add	w20, w0, #0x8
    a0b4:	7100029f 	cmp	w20, #0x0
    a0b8:	5400006d 	b.le	a0c4 <kprintf.constprop.0+0x604>
    a0bc:	91003e61 	add	x1, x19, #0xf
    a0c0:	17ffffe9 	b	a064 <kprintf.constprop.0+0x5a4>
    a0c4:	8b20c2e0 	add	x0, x23, w0, sxtw
    a0c8:	17ffffe9 	b	a06c <kprintf.constprop.0+0x5ac>
/home/xiang/rockpi4-android/optee_os/lib/libutils/ext/snprintk.c:409
    a0cc:	11002014 	add	w20, w0, #0x8
    a0d0:	7100029f 	cmp	w20, #0x0
    a0d4:	5400006d 	b.le	a0e0 <kprintf.constprop.0+0x620>
    a0d8:	91003e61 	add	x1, x19, #0xf
    a0dc:	17fffff0 	b	a09c <kprintf.constprop.0+0x5dc>
    a0e0:	8b20c2e0 	add	x0, x23, w0, sxtw
    a0e4:	17fffff0 	b	a0a4 <kprintf.constprop.0+0x5e4>
/home/xiang/rockpi4-android/optee_os/lib/libutils/ext/snprintk.c:411
    a0e8:	37f80100 	tbnz	w0, #31, a108 <kprintf.constprop.0+0x648>
    a0ec:	91003e61 	add	x1, x19, #0xf
    a0f0:	2a0003f4 	mov	w20, w0
    a0f4:	aa1303e0 	mov	x0, x19
    a0f8:	927df033 	and	x19, x1, #0xfffffffffffffff8
    a0fc:	f9400000 	ldr	x0, [x0]
    a100:	b900001b 	str	w27, [x0]
    a104:	17fffe83 	b	9b10 <kprintf.constprop.0+0x50>
    a108:	11002014 	add	w20, w0, #0x8
    a10c:	7100029f 	cmp	w20, #0x0
    a110:	5400006d 	b.le	a11c <kprintf.constprop.0+0x65c>
    a114:	91003e61 	add	x1, x19, #0xf
    a118:	17fffff7 	b	a0f4 <kprintf.constprop.0+0x634>
    a11c:	8b20c2e0 	add	x0, x23, w0, sxtw
    a120:	17fffff7 	b	a0fc <kprintf.constprop.0+0x63c>
/home/xiang/rockpi4-android/optee_os/lib/libutils/ext/snprintk.c:417
    a124:	3747d8d5 	tbnz	w21, #8, 9c3c <kprintf.constprop.0+0x17c>
    a128:	374fd8b5 	tbnz	w21, #9, 9c3c <kprintf.constprop.0+0x17c>
    a12c:	372fd895 	tbnz	w21, #5, 9c3c <kprintf.constprop.0+0x17c>
    a130:	3727d875 	tbnz	w21, #4, 9c3c <kprintf.constprop.0+0x17c>
    a134:	363002d5 	tbz	w21, #6, a18c <kprintf.constprop.0+0x6cc>
    a138:	37f801c0 	tbnz	w0, #31, a170 <kprintf.constprop.0+0x6b0>
    a13c:	91002e61 	add	x1, x19, #0xb
    a140:	2a0003f4 	mov	w20, w0
    a144:	aa1303e0 	mov	x0, x19
    a148:	927df033 	and	x19, x1, #0xfffffffffffffff8
    a14c:	79400004 	ldrh	w4, [x0]
    a150:	17fffec1 	b	9c54 <kprintf.constprop.0+0x194>
    a154:	11002014 	add	w20, w0, #0x8
    a158:	7100029f 	cmp	w20, #0x0
    a15c:	5400006d 	b.le	a168 <kprintf.constprop.0+0x6a8>
    a160:	91003e61 	add	x1, x19, #0xf
    a164:	17fffeb9 	b	9c48 <kprintf.constprop.0+0x188>
    a168:	8b20c2e0 	add	x0, x23, w0, sxtw
    a16c:	17fffeb9 	b	9c50 <kprintf.constprop.0+0x190>
    a170:	11002014 	add	w20, w0, #0x8
    a174:	7100029f 	cmp	w20, #0x0
    a178:	5400006d 	b.le	a184 <kprintf.constprop.0+0x6c4>
    a17c:	91002e61 	add	x1, x19, #0xb
    a180:	17fffff1 	b	a144 <kprintf.constprop.0+0x684>
    a184:	8b20c2e0 	add	x0, x23, w0, sxtw
    a188:	17fffff1 	b	a14c <kprintf.constprop.0+0x68c>
    a18c:	37f800e0 	tbnz	w0, #31, a1a8 <kprintf.constprop.0+0x6e8>
    a190:	91002e61 	add	x1, x19, #0xb
    a194:	2a0003f4 	mov	w20, w0
    a198:	aa1303e0 	mov	x0, x19
    a19c:	927df033 	and	x19, x1, #0xfffffffffffffff8
    a1a0:	b9400004 	ldr	w4, [x0]
    a1a4:	17fffeac 	b	9c54 <kprintf.constprop.0+0x194>
    a1a8:	11002014 	add	w20, w0, #0x8
    a1ac:	7100029f 	cmp	w20, #0x0
    a1b0:	5400006d 	b.le	a1bc <kprintf.constprop.0+0x6fc>
    a1b4:	91002e61 	add	x1, x19, #0xb
    a1b8:	17fffff8 	b	a198 <kprintf.constprop.0+0x6d8>
    a1bc:	8b20c2e0 	add	x0, x23, w0, sxtw
    a1c0:	17fffff8 	b	a1a0 <kprintf.constprop.0+0x6e0>
/home/xiang/rockpi4-android/optee_os/lib/libutils/ext/snprintk.c:421
    a1c4:	b9408fa1 	ldr	w1, [x29,#140]
    a1c8:	34000c01 	cbz	w1, a348 <kprintf.constprop.0+0x888>
    a1cc:	39400101 	ldrb	w1, [x8]
    a1d0:	7101543f 	cmp	w1, #0x55
    a1d4:	54000ba1 	b.ne	a348 <kprintf.constprop.0+0x888>
    a1d8:	39400501 	ldrb	w1, [x8,#1]
    a1dc:	7101b03f 	cmp	w1, #0x6c
    a1e0:	54000b41 	b.ne	a348 <kprintf.constprop.0+0x888>
/home/xiang/rockpi4-android/optee_os/lib/libutils/ext/snprintk.c:426
    a1e4:	91000908 	add	x8, x8, #0x2
/home/xiang/rockpi4-android/optee_os/lib/libutils/ext/snprintk.c:427
    a1e8:	37f80a20 	tbnz	w0, #31, a32c <kprintf.constprop.0+0x86c>
    a1ec:	91003e61 	add	x1, x19, #0xf
    a1f0:	2a0003f4 	mov	w20, w0
    a1f4:	aa1303e0 	mov	x0, x19
    a1f8:	927df033 	and	x19, x1, #0xfffffffffffffff8
    a1fc:	f9400000 	ldr	x0, [x0]
uuid2str():
/home/xiang/rockpi4-android/optee_os/lib/libutils/ext/snprintk.c:229
    a200:	b0000002 	adrp	x2, b000 <small_prime+0x140>
    a204:	a906b3a8 	stp	x8, x12, [x29,#104]
    a208:	91343442 	add	x2, x2, #0xd0d
    a20c:	b9007ba9 	str	w9, [x29,#120]
    a210:	f90043ad 	str	x13, [x29,#128]
    a214:	39403c01 	ldrb	w1, [x0,#15]
    a218:	39402407 	ldrb	w7, [x0,#9]
    a21c:	39402006 	ldrb	w6, [x0,#8]
    a220:	79400c05 	ldrh	w5, [x0,#6]
    a224:	79400804 	ldrh	w4, [x0,#4]
    a228:	b9002be1 	str	w1, [sp,#40]
    a22c:	39403801 	ldrb	w1, [x0,#14]
    a230:	b90023e1 	str	w1, [sp,#32]
    a234:	39403401 	ldrb	w1, [x0,#13]
    a238:	b9001be1 	str	w1, [sp,#24]
    a23c:	39403001 	ldrb	w1, [x0,#12]
    a240:	b90013e1 	str	w1, [sp,#16]
    a244:	39402c01 	ldrb	w1, [x0,#11]
    a248:	b9000be1 	str	w1, [sp,#8]
    a24c:	39402801 	ldrb	w1, [x0,#10]
    a250:	b90003e1 	str	w1, [sp]
    a254:	d28004a1 	mov	x1, #0x25                  	// #37
    a258:	b9400003 	ldr	w3, [x0]
    a25c:	aa0d03e0 	mov	x0, x13
    a260:	97fffdfb 	bl	9a4c <snprintk>
    a264:	2a0003e3 	mov	w3, w0
kprintf():
/home/xiang/rockpi4-android/optee_os/lib/libutils/ext/snprintk.c:429
    a268:	f94043ad 	ldr	x13, [x29,#128]
/home/xiang/rockpi4-android/optee_os/lib/libutils/ext/snprintk.c:291
    a26c:	52800000 	mov	w0, #0x0                   	// #0
    a270:	b9407ba9 	ldr	w9, [x29,#120]
/home/xiang/rockpi4-android/optee_os/lib/libutils/ext/snprintk.c:430
    a274:	52800001 	mov	w1, #0x0                   	// #0
    a278:	a946b3a8 	ldp	x8, x12, [x29,#104]
/home/xiang/rockpi4-android/optee_os/lib/libutils/ext/snprintk.c:429
    a27c:	aa0d03fc 	mov	x28, x13
/home/xiang/rockpi4-android/optee_os/lib/libutils/ext/snprintk.c:571
    a280:	6b03001f 	cmp	w0, w3
    a284:	1a83a002 	csel	w2, w0, w3, ge
/home/xiang/rockpi4-android/optee_os/lib/libutils/ext/snprintk.c:572
    a288:	34001941 	cbz	w1, a5b0 <kprintf.constprop.0+0xaf0>
/home/xiang/rockpi4-android/optee_os/lib/libutils/ext/snprintk.c:573
    a28c:	11000442 	add	w2, w2, #0x1
/home/xiang/rockpi4-android/optee_os/lib/libutils/ext/snprintk.c:578
    a290:	6b02013f 	cmp	w9, w2
    a294:	1a82a124 	csel	w4, w9, w2, ge
    a298:	0b04037b 	add	w27, w27, w4
/home/xiang/rockpi4-android/optee_os/lib/libutils/ext/snprintk.c:581
    a29c:	52808084 	mov	w4, #0x404                 	// #1028
    a2a0:	6a0402a4 	ands	w4, w21, w4
    a2a4:	540000a1 	b.ne	a2b8 <kprintf.constprop.0+0x7f8>
/home/xiang/rockpi4-android/optee_os/lib/libutils/ext/snprintk.c:582
    a2a8:	4b020125 	sub	w5, w9, w2
/home/xiang/rockpi4-android/optee_os/lib/libutils/ext/snprintk.c:584
    a2ac:	52800406 	mov	w6, #0x20                  	// #32
/home/xiang/rockpi4-android/optee_os/lib/libutils/ext/snprintk.c:583
    a2b0:	710000bf 	cmp	w5, #0x0
    a2b4:	5400186c 	b.gt	a5c0 <kprintf.constprop.0+0xb00>
/home/xiang/rockpi4-android/optee_os/lib/libutils/ext/snprintk.c:588
    a2b8:	34001a01 	cbz	w1, a5f8 <kprintf.constprop.0+0xb38>
/home/xiang/rockpi4-android/optee_os/lib/libutils/ext/snprintk.c:589
    a2bc:	b5001936 	cbnz	x22, a5e0 <kprintf.constprop.0+0xb20>
/home/xiang/rockpi4-android/optee_os/lib/libutils/ext/snprintk.c:591
    a2c0:	d2800016 	mov	x22, #0x0                   	// #0
/home/xiang/rockpi4-android/optee_os/lib/libutils/ext/snprintk.c:596
    a2c4:	7110009f 	cmp	w4, #0x400
    a2c8:	540000a1 	b.ne	a2dc <kprintf.constprop.0+0x81c>
/home/xiang/rockpi4-android/optee_os/lib/libutils/ext/snprintk.c:597
    a2cc:	4b020121 	sub	w1, w9, w2
/home/xiang/rockpi4-android/optee_os/lib/libutils/ext/snprintk.c:599
    a2d0:	52800604 	mov	w4, #0x30                  	// #48
/home/xiang/rockpi4-android/optee_os/lib/libutils/ext/snprintk.c:598
    a2d4:	7100003f 	cmp	w1, #0x0
    a2d8:	54001bec 	b.gt	a654 <kprintf.constprop.0+0xb94>
/home/xiang/rockpi4-android/optee_os/lib/libutils/ext/snprintk.c:603
    a2dc:	4b030000 	sub	w0, w0, w3
/home/xiang/rockpi4-android/optee_os/lib/libutils/ext/snprintk.c:605
    a2e0:	52800601 	mov	w1, #0x30                  	// #48
/home/xiang/rockpi4-android/optee_os/lib/libutils/ext/snprintk.c:604
    a2e4:	7100001f 	cmp	w0, #0x0
    a2e8:	54001c6c 	b.gt	a674 <kprintf.constprop.0+0xbb4>
    a2ec:	8b234383 	add	x3, x28, w3, uxtw
/home/xiang/rockpi4-android/optee_os/lib/libutils/ext/snprintk.c:608
    a2f0:	eb03039f 	cmp	x28, x3
    a2f4:	54001d01 	b.ne	a694 <kprintf.constprop.0+0xbd4>
/home/xiang/rockpi4-android/optee_os/lib/libutils/ext/snprintk.c:611
    a2f8:	3617c0d5 	tbz	w21, #2, 9b10 <kprintf.constprop.0+0x50>
/home/xiang/rockpi4-android/optee_os/lib/libutils/ext/snprintk.c:612
    a2fc:	4b020129 	sub	w9, w9, w2
/home/xiang/rockpi4-android/optee_os/lib/libutils/ext/snprintk.c:614
    a300:	52800400 	mov	w0, #0x20                  	// #32
/home/xiang/rockpi4-android/optee_os/lib/libutils/ext/snprintk.c:613
    a304:	7100013f 	cmp	w9, #0x0
    a308:	54ffc04d 	b.le	9b10 <kprintf.constprop.0+0x50>
/home/xiang/rockpi4-android/optee_os/lib/libutils/ext/snprintk.c:614
    a30c:	b40000d6 	cbz	x22, a324 <kprintf.constprop.0+0x864>
    a310:	f100035f 	cmp	x26, #0x0
    a314:	fa561182 	ccmp	x12, x22, #0x2, ne
    a318:	54000069 	b.ls	a324 <kprintf.constprop.0+0x864>
    a31c:	390002c0 	strb	w0, [x22]
    a320:	910006d6 	add	x22, x22, #0x1
    a324:	51000529 	sub	w9, w9, #0x1
    a328:	17fffff7 	b	a304 <kprintf.constprop.0+0x844>
/home/xiang/rockpi4-android/optee_os/lib/libutils/ext/snprintk.c:427
    a32c:	11002014 	add	w20, w0, #0x8
    a330:	7100029f 	cmp	w20, #0x0
    a334:	5400006d 	b.le	a340 <kprintf.constprop.0+0x880>
    a338:	91003e61 	add	x1, x19, #0xf
    a33c:	17ffffae 	b	a1f4 <kprintf.constprop.0+0x734>
    a340:	8b20c2e0 	add	x0, x23, w0, sxtw
    a344:	17ffffae 	b	a1fc <kprintf.constprop.0+0x73c>
/home/xiang/rockpi4-android/optee_os/lib/libutils/ext/snprintk.c:441
    a348:	37f801c0 	tbnz	w0, #31, a380 <kprintf.constprop.0+0x8c0>
    a34c:	91003e61 	add	x1, x19, #0xf
    a350:	2a0003f4 	mov	w20, w0
    a354:	aa1303e0 	mov	x0, x19
    a358:	927df033 	and	x19, x1, #0xfffffffffffffff8
/home/xiang/rockpi4-android/optee_os/lib/libutils/ext/snprintk.c:443
    a35c:	b0000019 	adrp	x25, b000 <small_prime+0x140>
    a360:	9107e339 	add	x25, x25, #0x1f8
/home/xiang/rockpi4-android/optee_os/lib/libutils/ext/snprintk.c:441
    a364:	f9400004 	ldr	x4, [x0]
/home/xiang/rockpi4-android/optee_os/lib/libutils/ext/snprintk.c:444
    a368:	321f02b5 	orr	w21, w21, #0x2
/home/xiang/rockpi4-android/optee_os/lib/libutils/ext/snprintk.c:443
    a36c:	91006339 	add	x25, x25, #0x18
/home/xiang/rockpi4-android/optee_os/lib/libutils/ext/snprintk.c:488
    a370:	52800001 	mov	w1, #0x0                   	// #0
/home/xiang/rockpi4-android/optee_os/lib/libutils/ext/snprintk.c:445
    a374:	52800f18 	mov	w24, #0x78                  	// #120
/home/xiang/rockpi4-android/optee_os/lib/libutils/ext/snprintk.c:442
    a378:	52800040 	mov	w0, #0x2                   	// #2
    a37c:	17fffef3 	b	9f48 <kprintf.constprop.0+0x488>
/home/xiang/rockpi4-android/optee_os/lib/libutils/ext/snprintk.c:441
    a380:	11002014 	add	w20, w0, #0x8
    a384:	7100029f 	cmp	w20, #0x0
    a388:	5400006d 	b.le	a394 <kprintf.constprop.0+0x8d4>
    a38c:	91003e61 	add	x1, x19, #0xf
    a390:	17fffff1 	b	a354 <kprintf.constprop.0+0x894>
    a394:	8b20c2e0 	add	x0, x23, w0, sxtw
    a398:	17fffff1 	b	a35c <kprintf.constprop.0+0x89c>
/home/xiang/rockpi4-android/optee_os/lib/libutils/ext/snprintk.c:448
    a39c:	11002014 	add	w20, w0, #0x8
    a3a0:	7100029f 	cmp	w20, #0x0
    a3a4:	5400006d 	b.le	a3b0 <kprintf.constprop.0+0x8f0>
    a3a8:	91003e61 	add	x1, x19, #0xf
    a3ac:	17fffe4c 	b	9cdc <kprintf.constprop.0+0x21c>
    a3b0:	8b20c2e0 	add	x0, x23, w0, sxtw
    a3b4:	17fffe4c 	b	9ce4 <kprintf.constprop.0+0x224>
    a3b8:	a906a3ad 	stp	x13, x8, [x29,#104]
/home/xiang/rockpi4-android/optee_os/lib/libutils/ext/snprintk.c:466
    a3bc:	aa1c03e0 	mov	x0, x28
    a3c0:	f9003fac 	str	x12, [x29,#120]
    a3c4:	b90083a9 	str	w9, [x29,#128]
    a3c8:	97fffd62 	bl	9950 <strlen>
/home/xiang/rockpi4-android/optee_os/lib/libutils/ext/snprintk.c:467
    a3cc:	52800001 	mov	w1, #0x0                   	// #0
/home/xiang/rockpi4-android/optee_os/lib/libutils/ext/snprintk.c:466
    a3d0:	2a0003e3 	mov	w3, w0
    a3d4:	b94083a9 	ldr	w9, [x29,#128]
/home/xiang/rockpi4-android/optee_os/lib/libutils/ext/snprintk.c:291
    a3d8:	52800000 	mov	w0, #0x0                   	// #0
    a3dc:	a946a3ad 	ldp	x13, x8, [x29,#104]
    a3e0:	f9403fac 	ldr	x12, [x29,#120]
    a3e4:	17ffffa7 	b	a280 <kprintf.constprop.0+0x7c0>
/home/xiang/rockpi4-android/optee_os/lib/libutils/ext/snprintk.c:470
    a3e8:	321c02b5 	orr	w21, w21, #0x10
    a3ec:	17fffe5d 	b	9d60 <kprintf.constprop.0+0x2a0>
/home/xiang/rockpi4-android/optee_os/lib/libutils/ext/snprintk.c:473
    a3f0:	3747cbb5 	tbnz	w21, #8, 9d64 <kprintf.constprop.0+0x2a4>
    a3f4:	374fcb95 	tbnz	w21, #9, 9d64 <kprintf.constprop.0+0x2a4>
    a3f8:	372fcb75 	tbnz	w21, #5, 9d64 <kprintf.constprop.0+0x2a4>
    a3fc:	3727cb55 	tbnz	w21, #4, 9d64 <kprintf.constprop.0+0x2a4>
    a400:	363002d5 	tbz	w21, #6, a458 <kprintf.constprop.0+0x998>
    a404:	37f801c0 	tbnz	w0, #31, a43c <kprintf.constprop.0+0x97c>
    a408:	91002e61 	add	x1, x19, #0xb
    a40c:	2a0003f4 	mov	w20, w0
    a410:	aa1303e0 	mov	x0, x19
    a414:	927df033 	and	x19, x1, #0xfffffffffffffff8
    a418:	79400004 	ldrh	w4, [x0]
    a41c:	17fffe58 	b	9d7c <kprintf.constprop.0+0x2bc>
    a420:	11002014 	add	w20, w0, #0x8
    a424:	7100029f 	cmp	w20, #0x0
    a428:	5400006d 	b.le	a434 <kprintf.constprop.0+0x974>
    a42c:	91003e61 	add	x1, x19, #0xf
    a430:	17fffe50 	b	9d70 <kprintf.constprop.0+0x2b0>
    a434:	8b20c2e0 	add	x0, x23, w0, sxtw
    a438:	17fffe50 	b	9d78 <kprintf.constprop.0+0x2b8>
    a43c:	11002014 	add	w20, w0, #0x8
    a440:	7100029f 	cmp	w20, #0x0
    a444:	5400006d 	b.le	a450 <kprintf.constprop.0+0x990>
    a448:	91002e61 	add	x1, x19, #0xb
    a44c:	17fffff1 	b	a410 <kprintf.constprop.0+0x950>
    a450:	8b20c2e0 	add	x0, x23, w0, sxtw
    a454:	17fffff1 	b	a418 <kprintf.constprop.0+0x958>
    a458:	37f800e0 	tbnz	w0, #31, a474 <kprintf.constprop.0+0x9b4>
    a45c:	91002e61 	add	x1, x19, #0xb
    a460:	2a0003f4 	mov	w20, w0
    a464:	aa1303e0 	mov	x0, x19
    a468:	927df033 	and	x19, x1, #0xfffffffffffffff8
    a46c:	b9400004 	ldr	w4, [x0]
    a470:	17fffe43 	b	9d7c <kprintf.constprop.0+0x2bc>
    a474:	11002014 	add	w20, w0, #0x8
    a478:	7100029f 	cmp	w20, #0x0
    a47c:	5400006d 	b.le	a488 <kprintf.constprop.0+0x9c8>
    a480:	91002e61 	add	x1, x19, #0xb
    a484:	17fffff8 	b	a464 <kprintf.constprop.0+0x9a4>
    a488:	8b20c2e0 	add	x0, x23, w0, sxtw
    a48c:	17fffff8 	b	a46c <kprintf.constprop.0+0x9ac>
/home/xiang/rockpi4-android/optee_os/lib/libutils/ext/snprintk.c:480
    a490:	b0000019 	adrp	x25, b000 <small_prime+0x140>
    a494:	9107e339 	add	x25, x25, #0x1f8
    a498:	91006339 	add	x25, x25, #0x18
    a49c:	17fffe3c 	b	9d8c <kprintf.constprop.0+0x2cc>
/home/xiang/rockpi4-android/optee_os/lib/libutils/ext/snprintk.c:481
    a4a0:	3747c795 	tbnz	w21, #8, 9d90 <kprintf.constprop.0+0x2d0>
    a4a4:	374fc775 	tbnz	w21, #9, 9d90 <kprintf.constprop.0+0x2d0>
    a4a8:	372fc755 	tbnz	w21, #5, 9d90 <kprintf.constprop.0+0x2d0>
    a4ac:	3727c735 	tbnz	w21, #4, 9d90 <kprintf.constprop.0+0x2d0>
    a4b0:	363002d5 	tbz	w21, #6, a508 <kprintf.constprop.0+0xa48>
    a4b4:	37f801c0 	tbnz	w0, #31, a4ec <kprintf.constprop.0+0xa2c>
    a4b8:	91002e61 	add	x1, x19, #0xb
    a4bc:	2a0003f4 	mov	w20, w0
    a4c0:	aa1303e0 	mov	x0, x19
    a4c4:	927df033 	and	x19, x1, #0xfffffffffffffff8
    a4c8:	79400004 	ldrh	w4, [x0]
    a4cc:	17fffe37 	b	9da8 <kprintf.constprop.0+0x2e8>
    a4d0:	11002014 	add	w20, w0, #0x8
    a4d4:	7100029f 	cmp	w20, #0x0
    a4d8:	5400006d 	b.le	a4e4 <kprintf.constprop.0+0xa24>
    a4dc:	91003e61 	add	x1, x19, #0xf
    a4e0:	17fffe2f 	b	9d9c <kprintf.constprop.0+0x2dc>
    a4e4:	8b20c2e0 	add	x0, x23, w0, sxtw
    a4e8:	17fffe2f 	b	9da4 <kprintf.constprop.0+0x2e4>
    a4ec:	11002014 	add	w20, w0, #0x8
    a4f0:	7100029f 	cmp	w20, #0x0
    a4f4:	5400006d 	b.le	a500 <kprintf.constprop.0+0xa40>
    a4f8:	91002e61 	add	x1, x19, #0xb
    a4fc:	17fffff1 	b	a4c0 <kprintf.constprop.0+0xa00>
    a500:	8b20c2e0 	add	x0, x23, w0, sxtw
    a504:	17fffff1 	b	a4c8 <kprintf.constprop.0+0xa08>
    a508:	37f800e0 	tbnz	w0, #31, a524 <kprintf.constprop.0+0xa64>
    a50c:	91002e61 	add	x1, x19, #0xb
    a510:	2a0003f4 	mov	w20, w0
    a514:	aa1303e0 	mov	x0, x19
    a518:	927df033 	and	x19, x1, #0xfffffffffffffff8
    a51c:	b9400004 	ldr	w4, [x0]
    a520:	17fffe22 	b	9da8 <kprintf.constprop.0+0x2e8>
    a524:	11002014 	add	w20, w0, #0x8
    a528:	7100029f 	cmp	w20, #0x0
    a52c:	5400006d 	b.le	a538 <kprintf.constprop.0+0xa78>
    a530:	91002e61 	add	x1, x19, #0xb
    a534:	17fffff8 	b	a514 <kprintf.constprop.0+0xa54>
    a538:	8b20c2e0 	add	x0, x23, w0, sxtw
    a53c:	17fffff8 	b	a51c <kprintf.constprop.0+0xa5c>
/home/xiang/rockpi4-android/optee_os/lib/libutils/ext/snprintk.c:395
    a540:	52800020 	mov	w0, #0x1                   	// #1
    a544:	17fffe81 	b	9f48 <kprintf.constprop.0+0x488>
/home/xiang/rockpi4-android/optee_os/lib/libutils/ext/snprintk.c:509
    a548:	910095a0 	add	x0, x13, #0x25
/home/xiang/rockpi4-android/optee_os/lib/libutils/ext/snprintk.c:523
    a54c:	d2800145 	mov	x5, #0xa                   	// #10
/home/xiang/rockpi4-android/optee_os/lib/libutils/ext/snprintk.c:522
    a550:	f100249f 	cmp	x4, #0x9
    a554:	d100041c 	sub	x28, x0, #0x1
    a558:	540000c8 	b.hi	a570 <kprintf.constprop.0+0xab0>
/home/xiang/rockpi4-android/optee_os/lib/libutils/ext/snprintk.c:526
    a55c:	1100c082 	add	w2, w4, #0x30
    a560:	381ff002 	sturb	w2, [x0,#-1]
    a564:	17fffe90 	b	9fa4 <kprintf.constprop.0+0x4e4>
/home/xiang/rockpi4-android/optee_os/lib/libutils/ext/snprintk.c:514
    a568:	aa1c03e0 	mov	x0, x28
    a56c:	17fffe82 	b	9f74 <kprintf.constprop.0+0x4b4>
/home/xiang/rockpi4-android/optee_os/lib/libutils/ext/snprintk.c:523
    a570:	9ac50886 	udiv	x6, x4, x5
    a574:	aa1c03e0 	mov	x0, x28
    a578:	9b0590c2 	msub	x2, x6, x5, x4
/home/xiang/rockpi4-android/optee_os/lib/libutils/ext/snprintk.c:524
    a57c:	aa0603e4 	mov	x4, x6
/home/xiang/rockpi4-android/optee_os/lib/libutils/ext/snprintk.c:523
    a580:	1100c042 	add	w2, w2, #0x30
    a584:	39000382 	strb	w2, [x28]
    a588:	17fffff2 	b	a550 <kprintf.constprop.0+0xa90>
/home/xiang/rockpi4-android/optee_os/lib/libutils/ext/snprintk.c:509
    a58c:	910095bc 	add	x28, x13, #0x25
/home/xiang/rockpi4-android/optee_os/lib/libutils/ext/snprintk.c:531
    a590:	92400c80 	and	x0, x4, #0xf
/home/xiang/rockpi4-android/optee_os/lib/libutils/ext/snprintk.c:532
    a594:	d344fc84 	lsr	x4, x4, #4
/home/xiang/rockpi4-android/optee_os/lib/libutils/ext/snprintk.c:531
    a598:	38606b20 	ldrb	w0, [x25,x0]
    a59c:	381fff80 	strb	w0, [x28,#-1]!
/home/xiang/rockpi4-android/optee_os/lib/libutils/ext/snprintk.c:533
    a5a0:	b5ffff84 	cbnz	x4, a590 <kprintf.constprop.0+0xad0>
    a5a4:	17fffe80 	b	9fa4 <kprintf.constprop.0+0x4e4>
/home/xiang/rockpi4-android/optee_os/lib/libutils/ext/snprintk.c:502
    a5a8:	910095bc 	add	x28, x13, #0x25
    a5ac:	17fffe7e 	b	9fa4 <kprintf.constprop.0+0x4e4>
/home/xiang/rockpi4-android/optee_os/lib/libutils/ext/snprintk.c:575
    a5b0:	11000844 	add	w4, w2, #0x2
    a5b4:	f27f02bf 	tst	x21, #0x2
    a5b8:	1a821082 	csel	w2, w4, w2, ne
    a5bc:	17ffff35 	b	a290 <kprintf.constprop.0+0x7d0>
/home/xiang/rockpi4-android/optee_os/lib/libutils/ext/snprintk.c:584
    a5c0:	b40000d6 	cbz	x22, a5d8 <kprintf.constprop.0+0xb18>
    a5c4:	f100035f 	cmp	x26, #0x0
    a5c8:	fa561182 	ccmp	x12, x22, #0x2, ne
    a5cc:	54000069 	b.ls	a5d8 <kprintf.constprop.0+0xb18>
    a5d0:	390002c6 	strb	w6, [x22]
    a5d4:	910006d6 	add	x22, x22, #0x1
    a5d8:	510004a5 	sub	w5, w5, #0x1
    a5dc:	17ffff35 	b	a2b0 <kprintf.constprop.0+0x7f0>
/home/xiang/rockpi4-android/optee_os/lib/libutils/ext/snprintk.c:589
    a5e0:	f100035f 	cmp	x26, #0x0
    a5e4:	fa561182 	ccmp	x12, x22, #0x2, ne
    a5e8:	54ffe6e9 	b.ls	a2c4 <kprintf.constprop.0+0x804>
    a5ec:	390002c1 	strb	w1, [x22]
    a5f0:	910006d6 	add	x22, x22, #0x1
    a5f4:	17ffff34 	b	a2c4 <kprintf.constprop.0+0x804>
/home/xiang/rockpi4-android/optee_os/lib/libutils/ext/snprintk.c:590
    a5f8:	360fe675 	tbz	w21, #1, a2c4 <kprintf.constprop.0+0x804>
/home/xiang/rockpi4-android/optee_os/lib/libutils/ext/snprintk.c:591
    a5fc:	b4ffe636 	cbz	x22, a2c0 <kprintf.constprop.0+0x800>
    a600:	f100035f 	cmp	x26, #0x0
    a604:	1a9f17e5 	cset	w5, eq
    a608:	eb16019f 	cmp	x12, x22
    a60c:	1a9f97e1 	cset	w1, hi
    a610:	2a0100a1 	orr	w1, w5, w1
    a614:	34000181 	cbz	w1, a644 <kprintf.constprop.0+0xb84>
    a618:	52800601 	mov	w1, #0x30                  	// #48
    a61c:	390002c1 	strb	w1, [x22]
/home/xiang/rockpi4-android/optee_os/lib/libutils/ext/snprintk.c:592
    a620:	b10006c1 	adds	x1, x22, #0x1
    a624:	54ffe4e0 	b.eq	a2c0 <kprintf.constprop.0+0x800>
    a628:	eb01019f 	cmp	x12, x1
    a62c:	1a9f97e6 	cset	w6, hi
    a630:	2a0600a5 	orr	w5, w5, w6
    a634:	340000c5 	cbz	w5, a64c <kprintf.constprop.0+0xb8c>
    a638:	91000436 	add	x22, x1, #0x1
    a63c:	39000038 	strb	w24, [x1]
    a640:	17ffff21 	b	a2c4 <kprintf.constprop.0+0x804>
/home/xiang/rockpi4-android/optee_os/lib/libutils/ext/snprintk.c:591
    a644:	aa1603e1 	mov	x1, x22
    a648:	17fffff8 	b	a628 <kprintf.constprop.0+0xb68>
/home/xiang/rockpi4-android/optee_os/lib/libutils/ext/snprintk.c:592
    a64c:	aa0103f6 	mov	x22, x1
    a650:	17ffff1d 	b	a2c4 <kprintf.constprop.0+0x804>
/home/xiang/rockpi4-android/optee_os/lib/libutils/ext/snprintk.c:599
    a654:	b40000d6 	cbz	x22, a66c <kprintf.constprop.0+0xbac>
    a658:	f100035f 	cmp	x26, #0x0
    a65c:	fa561182 	ccmp	x12, x22, #0x2, ne
    a660:	54000069 	b.ls	a66c <kprintf.constprop.0+0xbac>
    a664:	390002c4 	strb	w4, [x22]
    a668:	910006d6 	add	x22, x22, #0x1
    a66c:	51000421 	sub	w1, w1, #0x1
    a670:	17ffff19 	b	a2d4 <kprintf.constprop.0+0x814>
/home/xiang/rockpi4-android/optee_os/lib/libutils/ext/snprintk.c:605
    a674:	b40000d6 	cbz	x22, a68c <kprintf.constprop.0+0xbcc>
    a678:	f100035f 	cmp	x26, #0x0
    a67c:	fa561182 	ccmp	x12, x22, #0x2, ne
    a680:	54000069 	b.ls	a68c <kprintf.constprop.0+0xbcc>
    a684:	390002c1 	strb	w1, [x22]
    a688:	910006d6 	add	x22, x22, #0x1
    a68c:	51000400 	sub	w0, w0, #0x1
    a690:	17ffff15 	b	a2e4 <kprintf.constprop.0+0x824>
/home/xiang/rockpi4-android/optee_os/lib/libutils/ext/snprintk.c:609
    a694:	b40000f6 	cbz	x22, a6b0 <kprintf.constprop.0+0xbf0>
    a698:	f100035f 	cmp	x26, #0x0
    a69c:	fa561182 	ccmp	x12, x22, #0x2, ne
    a6a0:	54000089 	b.ls	a6b0 <kprintf.constprop.0+0xbf0>
    a6a4:	39400380 	ldrb	w0, [x28]
    a6a8:	910006d6 	add	x22, x22, #0x1
    a6ac:	381ff2c0 	sturb	w0, [x22,#-1]
/home/xiang/rockpi4-android/optee_os/lib/libutils/ext/snprintk.c:608
    a6b0:	9100079c 	add	x28, x28, #0x1
    a6b4:	17ffff0f 	b	a2f0 <kprintf.constprop.0+0x830>
/home/xiang/rockpi4-android/optee_os/lib/libutils/ext/snprintk.c:619
    a6b8:	b400005a 	cbz	x26, a6c0 <kprintf.constprop.0+0xc00>
/home/xiang/rockpi4-android/optee_os/lib/libutils/ext/snprintk.c:620
    a6bc:	f9000356 	str	x22, [x26]
/home/xiang/rockpi4-android/optee_os/lib/libutils/ext/snprintk.c:622
    a6c0:	2a1b03e0 	mov	w0, w27
    a6c4:	a94453f3 	ldp	x19, x20, [sp,#64]
    a6c8:	a9455bf5 	ldp	x21, x22, [sp,#80]
    a6cc:	a94663f7 	ldp	x23, x24, [sp,#96]
    a6d0:	a9476bf9 	ldp	x25, x26, [sp,#112]
    a6d4:	a94873fb 	ldp	x27, x28, [sp,#128]
    a6d8:	a9437bfd 	ldp	x29, x30, [sp,#48]
    a6dc:	9103c3ff 	add	sp, sp, #0xf0
    a6e0:	d65f03c0 	ret

000000000000a6e4 <__vsprintf>:
__vsprintf():
/home/xiang/rockpi4-android/optee_os/lib/libutils/ext/snprintk.c:155
    a6e4:	a9bc7bfd 	stp	x29, x30, [sp,#-64]!
    a6e8:	910003fd 	mov	x29, sp
/home/xiang/rockpi4-android/optee_os/lib/libutils/ext/snprintk.c:156
    a6ec:	910083a3 	add	x3, x29, #0x20
/home/xiang/rockpi4-android/optee_os/lib/libutils/ext/snprintk.c:155
    a6f0:	a90153f3 	stp	x19, x20, [sp,#16]
    a6f4:	aa0003f4 	mov	x20, x0
    a6f8:	aa0103f3 	mov	x19, x1
/home/xiang/rockpi4-android/optee_os/lib/libutils/ext/snprintk.c:156
    a6fc:	aa0303e0 	mov	x0, x3
/home/xiang/rockpi4-android/optee_os/lib/libutils/ext/snprintk.c:155
    a700:	aa0203e1 	mov	x1, x2
/home/xiang/rockpi4-android/optee_os/lib/libutils/ext/snprintk.c:156
    a704:	d2800402 	mov	x2, #0x20                  	// #32
    a708:	97ffd646 	bl	20 <memcpy>
    a70c:	aa1403e2 	mov	x2, x20
    a710:	aa0003e3 	mov	x3, x0
    a714:	52800004 	mov	w4, #0x0                   	// #0
    a718:	d2800001 	mov	x1, #0x0                   	// #0
    a71c:	aa1303e0 	mov	x0, x19
    a720:	97fffce8 	bl	9ac0 <kprintf.constprop.0>
/home/xiang/rockpi4-android/optee_os/lib/libutils/ext/snprintk.c:157
    a724:	a94153f3 	ldp	x19, x20, [sp,#16]
    a728:	a8c47bfd 	ldp	x29, x30, [sp],#64
    a72c:	d65f03c0 	ret

000000000000a730 <strlcpy>:
strlcpy():
/home/xiang/rockpi4-android/optee_os/lib/libutils/ext/strlcpy.c:47
    a730:	aa0103e3 	mov	x3, x1
/home/xiang/rockpi4-android/optee_os/lib/libutils/ext/strlcpy.c:53
    a734:	b4000142 	cbz	x2, a75c <strlcpy+0x2c>
/home/xiang/rockpi4-android/optee_os/lib/libutils/ext/strlcpy.c:53 (discriminator 1)
    a738:	f1000442 	subs	x2, x2, #0x1
    a73c:	540000e0 	b.eq	a758 <strlcpy+0x28>
/home/xiang/rockpi4-android/optee_os/lib/libutils/ext/strlcpy.c:55
    a740:	38401464 	ldrb	w4, [x3],#1
    a744:	38001404 	strb	w4, [x0],#1
    a748:	35ffff84 	cbnz	w4, a738 <strlcpy+0x8>
/home/xiang/rockpi4-android/optee_os/lib/libutils/ext/strlcpy.c:68
    a74c:	cb010060 	sub	x0, x3, x1
    a750:	d1000400 	sub	x0, x0, #0x1
/home/xiang/rockpi4-android/optee_os/lib/libutils/ext/strlcpy.c:69
    a754:	d65f03c0 	ret
/home/xiang/rockpi4-android/optee_os/lib/libutils/ext/strlcpy.c:63
    a758:	3900001f 	strb	wzr, [x0]
/home/xiang/rockpi4-android/optee_os/lib/libutils/ext/strlcpy.c:64 (discriminator 1)
    a75c:	38401460 	ldrb	w0, [x3],#1
    a760:	35ffffe0 	cbnz	w0, a75c <strlcpy+0x2c>
    a764:	17fffffa 	b	a74c <strlcpy+0x1c>

000000000000a768 <trace_set_level>:
trace_set_level():
/home/xiang/rockpi4-android/optee_os/lib/libutils/ext/trace.c:25
    a768:	7100101f 	cmp	w0, #0x4
    a76c:	f0000001 	adrp	x1, d000 <_DYNAMIC>
    a770:	54000088 	b.hi	a780 <trace_set_level+0x18>
/home/xiang/rockpi4-android/optee_os/lib/libutils/ext/trace.c:28
    a774:	f9409821 	ldr	x1, [x1,#304]
    a778:	b9000020 	str	w0, [x1]
    a77c:	d65f03c0 	ret
    a780:	52800080 	mov	w0, #0x4                   	// #4
    a784:	17fffffc 	b	a774 <trace_set_level+0xc>

000000000000a788 <trace_get_level>:
trace_get_level():
/home/xiang/rockpi4-android/optee_os/lib/libutils/ext/trace.c:34
    a788:	f0000000 	adrp	x0, d000 <_DYNAMIC>
    a78c:	f9409800 	ldr	x0, [x0,#304]
    a790:	b9400000 	ldr	w0, [x0]
    a794:	d65f03c0 	ret

000000000000a798 <trace_vprintf>:
trace_vprintf():
/home/xiang/rockpi4-android/optee_os/lib/libutils/ext/trace.c:113
    a798:	a9a87bfd 	stp	x29, x30, [sp,#-384]!
    a79c:	910003fd 	mov	x29, sp
    a7a0:	a9046bf9 	stp	x25, x26, [sp,#64]
/home/xiang/rockpi4-android/optee_os/lib/libutils/ext/trace.c:118
    a7a4:	72001c7a 	ands	w26, w3, #0xff
/home/xiang/rockpi4-android/optee_os/lib/libutils/ext/trace.c:113
    a7a8:	a90153f3 	stp	x19, x20, [sp,#16]
    a7ac:	a9025bf5 	stp	x21, x22, [sp,#32]
    a7b0:	a90363f7 	stp	x23, x24, [sp,#48]
    a7b4:	f9002bfb 	str	x27, [sp,#80]
/home/xiang/rockpi4-android/optee_os/lib/libutils/ext/trace.c:118
    a7b8:	54000c20 	b.eq	a93c <trace_vprintf+0x1a4>
/home/xiang/rockpi4-android/optee_os/lib/libutils/ext/trace.c:118 (discriminator 1)
    a7bc:	f0000003 	adrp	x3, d000 <_DYNAMIC>
    a7c0:	f9409863 	ldr	x3, [x3,#304]
    a7c4:	b9400063 	ldr	w3, [x3]
    a7c8:	6b02007f 	cmp	w3, w2
    a7cc:	54000aab 	b.lt	a920 <trace_vprintf+0x188>
trace_level_to_string():
/home/xiang/rockpi4-android/optee_os/lib/libutils/ext/trace.c:51
    a7d0:	7100105f 	cmp	w2, #0x4
/home/xiang/rockpi4-android/optee_os/lib/libutils/ext/trace.c:54
    a7d4:	b0000003 	adrp	x3, b000 <small_prime+0x140>
/home/xiang/rockpi4-android/optee_os/lib/libutils/ext/trace.c:51
    a7d8:	1a9f9046 	csel	w6, w2, wzr, ls
/home/xiang/rockpi4-android/optee_os/lib/libutils/ext/trace.c:54
    a7dc:	9108a063 	add	x3, x3, #0x228
    a7e0:	3866c863 	ldrb	w3, [x3,w6,sxtw]
trace_vprintf():
/home/xiang/rockpi4-android/optee_os/lib/libutils/ext/trace.c:122
    a7e4:	910203b4 	add	x20, x29, #0x80
    a7e8:	2a0203f3 	mov	w19, w2
    a7ec:	2a0103f9 	mov	w25, w1
    a7f0:	aa0003f6 	mov	x22, x0
    a7f4:	b0000002 	adrp	x2, b000 <small_prime+0x140>
    a7f8:	aa0503f8 	mov	x24, x5
    a7fc:	aa0403f7 	mov	x23, x4
    a800:	9134f842 	add	x2, x2, #0xd3e
    a804:	d2802001 	mov	x1, #0x100                 	// #256
    a808:	aa1403e0 	mov	x0, x20
    a80c:	97fffc90 	bl	9a4c <snprintk>
/home/xiang/rockpi4-android/optee_os/lib/libutils/ext/trace.c:124
    a810:	37f80880 	tbnz	w0, #31, a920 <trace_vprintf+0x188>
/home/xiang/rockpi4-android/optee_os/lib/libutils/ext/trace.c:129
    a814:	f0000003 	adrp	x3, d000 <_DYNAMIC>
/home/xiang/rockpi4-android/optee_os/lib/libutils/ext/trace.c:126
    a818:	93407c15 	sxtw	x21, w0
/home/xiang/rockpi4-android/optee_os/lib/libutils/ext/trace.c:129
    a81c:	d280201b 	mov	x27, #0x100                 	// #256
    a820:	b0000002 	adrp	x2, b000 <small_prime+0x140>
    a824:	f940a063 	ldr	x3, [x3,#320]
    a828:	91350842 	add	x2, x2, #0xd42
    a82c:	cb150361 	sub	x1, x27, x21
    a830:	8b150280 	add	x0, x20, x21
    a834:	97fffc86 	bl	9a4c <snprintk>
/home/xiang/rockpi4-android/optee_os/lib/libutils/ext/trace.c:131
    a838:	37f80740 	tbnz	w0, #31, a920 <trace_vprintf+0x188>
/home/xiang/rockpi4-android/optee_os/lib/libutils/ext/trace.c:133
    a83c:	8b20c2b5 	add	x21, x21, w0, sxtw
/home/xiang/rockpi4-android/optee_os/lib/libutils/ext/trace.c:135
    a840:	3400095a 	cbz	w26, a968 <trace_vprintf+0x1d0>
/home/xiang/rockpi4-android/optee_os/lib/libutils/ext/trace.c:135 (discriminator 1)
    a844:	52800342 	mov	w2, #0x1a                  	// #26
    a848:	1ad32440 	lsr	w0, w2, w19
    a84c:	360008e0 	tbz	w0, #0, a968 <trace_vprintf+0x1d0>
/home/xiang/rockpi4-android/optee_os/lib/libutils/ext/trace.c:137
    a850:	8b15029a 	add	x26, x20, x21
    a854:	cb15037b 	sub	x27, x27, x21
print_thread_id():
/home/xiang/rockpi4-android/optee_os/lib/libutils/ext/trace.c:66
    a858:	97ffd8b2 	bl	b20 <trace_ext_get_thread_id>
/home/xiang/rockpi4-android/optee_os/lib/libutils/ext/trace.c:68
    a85c:	37f80740 	tbnz	w0, #31, a944 <trace_vprintf+0x1ac>
/home/xiang/rockpi4-android/optee_os/lib/libutils/ext/trace.c:69
    a860:	2a0003e4 	mov	w4, w0
    a864:	b0000002 	adrp	x2, b000 <small_prime+0x140>
    a868:	52800023 	mov	w3, #0x1                   	// #1
    a86c:	91351842 	add	x2, x2, #0xd46
    a870:	aa1b03e1 	mov	x1, x27
    a874:	aa1a03e0 	mov	x0, x26
    a878:	97fffc75 	bl	9a4c <snprintk>
trace_vprintf():
/home/xiang/rockpi4-android/optee_os/lib/libutils/ext/trace.c:144
    a87c:	37f80520 	tbnz	w0, #31, a920 <trace_vprintf+0x188>
/home/xiang/rockpi4-android/optee_os/lib/libutils/ext/trace.c:146
    a880:	8b20c2b3 	add	x19, x21, w0, sxtw
/home/xiang/rockpi4-android/optee_os/lib/libutils/ext/trace.c:148
    a884:	b4000176 	cbz	x22, a8b0 <trace_vprintf+0x118>
/home/xiang/rockpi4-android/optee_os/lib/libutils/ext/trace.c:149
    a888:	b0000002 	adrp	x2, b000 <small_prime+0x140>
    a88c:	d2802001 	mov	x1, #0x100                 	// #256
    a890:	2a1903e4 	mov	w4, w25
    a894:	aa1603e3 	mov	x3, x22
    a898:	91354442 	add	x2, x2, #0xd51
    a89c:	cb130021 	sub	x1, x1, x19
    a8a0:	8b130280 	add	x0, x20, x19
    a8a4:	97fffc6a 	bl	9a4c <snprintk>
/home/xiang/rockpi4-android/optee_os/lib/libutils/ext/trace.c:151
    a8a8:	37f803c0 	tbnz	w0, #31, a920 <trace_vprintf+0x188>
/home/xiang/rockpi4-android/optee_os/lib/libutils/ext/trace.c:153
    a8ac:	8b20c273 	add	x19, x19, w0, sxtw
/home/xiang/rockpi4-android/optee_os/lib/libutils/ext/trace.c:163
    a8b0:	910183a3 	add	x3, x29, #0x60
    a8b4:	d2800402 	mov	x2, #0x20                  	// #32
    a8b8:	aa1803e1 	mov	x1, x24
    a8bc:	aa0303e0 	mov	x0, x3
    a8c0:	97ffd5d8 	bl	20 <memcpy>
    a8c4:	aa0003e3 	mov	x3, x0
    a8c8:	aa1703e2 	mov	x2, x23
    a8cc:	8b130280 	add	x0, x20, x19
    a8d0:	d2802001 	mov	x1, #0x100                 	// #256
    a8d4:	cb130021 	sub	x1, x1, x19
    a8d8:	97fffc48 	bl	99f8 <vsnprintk>
/home/xiang/rockpi4-android/optee_os/lib/libutils/ext/trace.c:164
    a8dc:	7100001f 	cmp	w0, #0x0
/home/xiang/rockpi4-android/optee_os/lib/libutils/ext/trace.c:165
    a8e0:	aa1303e1 	mov	x1, x19
    a8e4:	8b20c273 	add	x19, x19, w0, sxtw
    a8e8:	9a81c273 	csel	x19, x19, x1, gt
    a8ec:	d2801fc0 	mov	x0, #0xfe                  	// #254
    a8f0:	f103fa7f 	cmp	x19, #0xfe
    a8f4:	9a809273 	csel	x19, x19, x0, ls
/home/xiang/rockpi4-android/optee_os/lib/libutils/ext/trace.c:170
    a8f8:	52800140 	mov	w0, #0xa                   	// #10
    a8fc:	38336a80 	strb	w0, [x20,x19]
/home/xiang/rockpi4-android/optee_os/lib/libutils/ext/trace.c:171
    a900:	b4000093 	cbz	x19, a910 <trace_vprintf+0x178>
/home/xiang/rockpi4-android/optee_os/lib/libutils/ext/trace.c:171 (discriminator 1)
    a904:	38736a80 	ldrb	w0, [x20,x19]
    a908:	7100281f 	cmp	w0, #0xa
    a90c:	540003c0 	b.eq	a984 <trace_vprintf+0x1ec>
/home/xiang/rockpi4-android/optee_os/lib/libutils/ext/trace.c:174
    a910:	91020ba0 	add	x0, x29, #0x82
    a914:	3833681f 	strb	wzr, [x0,x19]
/home/xiang/rockpi4-android/optee_os/lib/libutils/ext/trace.c:176
    a918:	aa1403e0 	mov	x0, x20
    a91c:	97ffd877 	bl	af8 <trace_ext_puts>
/home/xiang/rockpi4-android/optee_os/lib/libutils/ext/trace.c:177
    a920:	a94153f3 	ldp	x19, x20, [sp,#16]
    a924:	a9425bf5 	ldp	x21, x22, [sp,#32]
    a928:	a94363f7 	ldp	x23, x24, [sp,#48]
    a92c:	a9446bf9 	ldp	x25, x26, [sp,#64]
    a930:	f9402bfb 	ldr	x27, [sp,#80]
    a934:	a8d87bfd 	ldp	x29, x30, [sp],#384
    a938:	d65f03c0 	ret
trace_level_to_string():
/home/xiang/rockpi4-android/optee_os/lib/libutils/ext/trace.c:49
    a93c:	528009a3 	mov	w3, #0x4d                  	// #77
    a940:	17ffffa9 	b	a7e4 <trace_vprintf+0x4c>
print_thread_id():
/home/xiang/rockpi4-android/optee_os/lib/libutils/ext/trace.c:71
    a944:	b0000004 	adrp	x4, b000 <small_prime+0x140>
    a948:	52800023 	mov	w3, #0x1                   	// #1
    a94c:	91293084 	add	x4, x4, #0xa4c
    a950:	b0000002 	adrp	x2, b000 <small_prime+0x140>
    a954:	aa1b03e1 	mov	x1, x27
    a958:	91353042 	add	x2, x2, #0xd4c
    a95c:	aa1a03e0 	mov	x0, x26
    a960:	97fffc3b 	bl	9a4c <snprintk>
    a964:	17ffffc6 	b	a87c <trace_vprintf+0xe4>
trace_vprintf():
/home/xiang/rockpi4-android/optee_os/lib/libutils/ext/trace.c:157
    a968:	f103fabf 	cmp	x21, #0xfe
    a96c:	54fffda8 	b.hi	a920 <trace_vprintf+0x188>
/home/xiang/rockpi4-android/optee_os/lib/libutils/ext/trace.c:159
    a970:	910006b3 	add	x19, x21, #0x1
    a974:	52800400 	mov	w0, #0x20                  	// #32
    a978:	38356a80 	strb	w0, [x20,x21]
/home/xiang/rockpi4-android/optee_os/lib/libutils/ext/trace.c:160
    a97c:	38336a9f 	strb	wzr, [x20,x19]
    a980:	17ffffcc 	b	a8b0 <trace_vprintf+0x118>
/home/xiang/rockpi4-android/optee_os/lib/libutils/ext/trace.c:172
    a984:	d1000673 	sub	x19, x19, #0x1
    a988:	17ffffde 	b	a900 <trace_vprintf+0x168>

000000000000a98c <trace_printf>:
trace_printf():
/home/xiang/rockpi4-android/optee_os/lib/libutils/ext/trace.c:104
    a98c:	a9b17bfd 	stp	x29, x30, [sp,#-240]!
    a990:	910003fd 	mov	x29, sp
    a994:	a90d9ba5 	stp	x5, x6, [x29,#216]
/home/xiang/rockpi4-android/optee_os/lib/libutils/ext/trace.c:107
    a998:	9103c3a5 	add	x5, x29, #0xf0
    a99c:	a90317a5 	stp	x5, x5, [x29,#48]
    a9a0:	910343a5 	add	x5, x29, #0xd0
    a9a4:	f90023a5 	str	x5, [x29,#64]
    a9a8:	128002e5 	mov	w5, #0xffffffe8            	// #-24
    a9ac:	b9004ba5 	str	w5, [x29,#72]
    a9b0:	12800fe5 	mov	w5, #0xffffff80            	// #-128
    a9b4:	b9004fa5 	str	w5, [x29,#76]
/home/xiang/rockpi4-android/optee_os/lib/libutils/ext/trace.c:108
    a9b8:	910043a5 	add	x5, x29, #0x10
/home/xiang/rockpi4-android/optee_os/lib/libutils/ext/trace.c:104
    a9bc:	f90077a7 	str	x7, [x29,#232]
/home/xiang/rockpi4-android/optee_os/lib/libutils/ext/trace.c:108
    a9c0:	a9431fa6 	ldp	x6, x7, [x29,#48]
    a9c4:	a9011fa6 	stp	x6, x7, [x29,#16]
    a9c8:	a9441fa6 	ldp	x6, x7, [x29,#64]
/home/xiang/rockpi4-android/optee_os/lib/libutils/ext/trace.c:104
    a9cc:	3d8017a0 	str	q0, [x29,#80]
    a9d0:	3d801ba1 	str	q1, [x29,#96]
    a9d4:	3d801fa2 	str	q2, [x29,#112]
    a9d8:	3d8023a3 	str	q3, [x29,#128]
    a9dc:	3d8027a4 	str	q4, [x29,#144]
    a9e0:	3d802ba5 	str	q5, [x29,#160]
    a9e4:	3d802fa6 	str	q6, [x29,#176]
    a9e8:	3d8033a7 	str	q7, [x29,#192]
/home/xiang/rockpi4-android/optee_os/lib/libutils/ext/trace.c:108
    a9ec:	a9021fa6 	stp	x6, x7, [x29,#32]
    a9f0:	97ffff6a 	bl	a798 <trace_vprintf>
/home/xiang/rockpi4-android/optee_os/lib/libutils/ext/trace.c:110
    a9f4:	a8cf7bfd 	ldp	x29, x30, [sp],#240
    a9f8:	d65f03c0 	ret

000000000000a9fc <dhex_dump>:
dhex_dump():
/home/xiang/rockpi4-android/optee_os/lib/libutils/ext/trace.c:286
    a9fc:	d65f03c0 	ret

000000000000aa00 <mempool_alloc_pool>:
mempool_alloc_pool():
/home/xiang/rockpi4-android/optee_os/lib/libutils/ext/mempool.c:120
    aa00:	a9bd7bfd 	stp	x29, x30, [sp,#-48]!
    aa04:	910003fd 	mov	x29, sp
    aa08:	f90013f5 	str	x21, [sp,#32]
    aa0c:	aa0003f5 	mov	x21, x0
    aa10:	a90153f3 	stp	x19, x20, [sp,#16]
/home/xiang/rockpi4-android/optee_os/lib/libutils/ext/mempool.c:121
    aa14:	d2800020 	mov	x0, #0x1                   	// #1
/home/xiang/rockpi4-android/optee_os/lib/libutils/ext/mempool.c:120
    aa18:	aa0103f3 	mov	x19, x1
/home/xiang/rockpi4-android/optee_os/lib/libutils/ext/mempool.c:121
    aa1c:	d2800301 	mov	x1, #0x18                  	// #24
    aa20:	97fffab8 	bl	9500 <calloc>
/home/xiang/rockpi4-android/optee_os/lib/libutils/ext/mempool.c:124
    aa24:	f2400abf 	tst	x21, #0x7
    aa28:	54000140 	b.eq	aa50 <mempool_alloc_pool+0x50>
/home/xiang/rockpi4-android/optee_os/lib/libutils/ext/mempool.c:124 (discriminator 1)
    aa2c:	b0000003 	adrp	x3, b000 <small_prime+0x140>
    aa30:	b0000001 	adrp	x1, b000 <small_prime+0x140>
    aa34:	b0000000 	adrp	x0, b000 <small_prime+0x140>
    aa38:	9108c063 	add	x3, x3, #0x230
    aa3c:	91356021 	add	x1, x1, #0xd58
    aa40:	9135cc00 	add	x0, x0, #0xd73
    aa44:	52800f82 	mov	w2, #0x7c                  	// #124
init_mpool():
/home/xiang/rockpi4-android/optee_os/lib/libutils/ext/mempool.c:84
    aa48:	97ffe530 	bl	3f08 <_assert_log>
    aa4c:	97ffe540 	bl	3f4c <_assert_break>
    aa50:	aa0003f4 	mov	x20, x0
mempool_alloc_pool():
/home/xiang/rockpi4-android/optee_os/lib/libutils/ext/mempool.c:126
    aa54:	b4000300 	cbz	x0, aab4 <mempool_alloc_pool+0xb4>
/home/xiang/rockpi4-android/optee_os/lib/libutils/ext/mempool.c:128
    aa58:	a9005413 	stp	x19, x21, [x0]
init_mpool():
/home/xiang/rockpi4-android/optee_os/lib/libutils/ext/mempool.c:74
    aa5c:	97fffac5 	bl	9570 <raw_malloc_get_ctx_size>
/home/xiang/rockpi4-android/optee_os/lib/libutils/ext/mempool.c:75
    aa60:	f9400681 	ldr	x1, [x20,#8]
    aa64:	8b010273 	add	x19, x19, x1
    aa68:	cb000273 	sub	x19, x19, x0
    aa6c:	927cee73 	and	x19, x19, #0xfffffffffffffff0
/home/xiang/rockpi4-android/optee_os/lib/libutils/ext/mempool.c:84
    aa70:	eb13003f 	cmp	x1, x19
    aa74:	54000143 	b.cc	aa9c <mempool_alloc_pool+0x9c>
    aa78:	b0000003 	adrp	x3, b000 <small_prime+0x140>
    aa7c:	9108c063 	add	x3, x3, #0x230
    aa80:	b0000001 	adrp	x1, b000 <small_prime+0x140>
    aa84:	b0000000 	adrp	x0, b000 <small_prime+0x140>
    aa88:	91006063 	add	x3, x3, #0x18
    aa8c:	52800a82 	mov	w2, #0x54                  	// #84
    aa90:	91356021 	add	x1, x1, #0xd58
    aa94:	91366800 	add	x0, x0, #0xd9a
    aa98:	17ffffec 	b	aa48 <mempool_alloc_pool+0x48>
/home/xiang/rockpi4-android/optee_os/lib/libutils/ext/mempool.c:85
    aa9c:	f9000a93 	str	x19, [x20,#16]
/home/xiang/rockpi4-android/optee_os/lib/libutils/ext/mempool.c:86
    aaa0:	aa1303e0 	mov	x0, x19
    aaa4:	97fffab5 	bl	9578 <raw_malloc_init_ctx>
/home/xiang/rockpi4-android/optee_os/lib/libutils/ext/mempool.c:87
    aaa8:	a9408281 	ldp	x1, x0, [x20,#8]
    aaac:	cb010262 	sub	x2, x19, x1
    aab0:	97fffabd 	bl	95a4 <raw_malloc_add_pool>
mempool_alloc_pool():
/home/xiang/rockpi4-android/optee_os/lib/libutils/ext/mempool.c:138
    aab4:	aa1403e0 	mov	x0, x20
    aab8:	f94013f5 	ldr	x21, [sp,#32]
    aabc:	a94153f3 	ldp	x19, x20, [sp,#16]
    aac0:	a8c37bfd 	ldp	x29, x30, [sp],#48
    aac4:	d65f03c0 	ret

000000000000aac8 <mempool_alloc>:
mempool_alloc():
/home/xiang/rockpi4-android/optee_os/lib/libutils/ext/mempool.c:141
    aac8:	a9be7bfd 	stp	x29, x30, [sp,#-32]!
/home/xiang/rockpi4-android/optee_os/lib/libutils/ext/mempool.c:146
    aacc:	aa0103e2 	mov	x2, x1
/home/xiang/rockpi4-android/optee_os/lib/libutils/ext/mempool.c:141
    aad0:	910003fd 	mov	x29, sp
/home/xiang/rockpi4-android/optee_os/lib/libutils/ext/mempool.c:146
    aad4:	f9400803 	ldr	x3, [x0,#16]
    aad8:	d2800000 	mov	x0, #0x0                   	// #0
/home/xiang/rockpi4-android/optee_os/lib/libutils/ext/mempool.c:141
    aadc:	a90153f3 	stp	x19, x20, [sp,#16]
    aae0:	aa0103f4 	mov	x20, x1
/home/xiang/rockpi4-android/optee_os/lib/libutils/ext/mempool.c:146
    aae4:	d2800001 	mov	x1, #0x0                   	// #0
    aae8:	97fff9e8 	bl	9288 <raw_malloc>
    aaec:	aa0003f3 	mov	x19, x0
/home/xiang/rockpi4-android/optee_os/lib/libutils/ext/mempool.c:147
    aaf0:	b5000160 	cbnz	x0, ab1c <mempool_alloc+0x54>
/home/xiang/rockpi4-android/optee_os/lib/libutils/ext/mempool.c:161
    aaf4:	b0000000 	adrp	x0, b000 <small_prime+0x140>
    aaf8:	9108c000 	add	x0, x0, #0x230
    aafc:	b0000004 	adrp	x4, b000 <small_prime+0x140>
    ab00:	aa1403e5 	mov	x5, x20
    ab04:	9136a484 	add	x4, x4, #0xda9
    ab08:	52800023 	mov	w3, #0x1                   	// #1
    ab0c:	52800022 	mov	w2, #0x1                   	// #1
    ab10:	52801421 	mov	w1, #0xa1                  	// #161
    ab14:	9100a000 	add	x0, x0, #0x28
    ab18:	97ffff9d 	bl	a98c <trace_printf>
/home/xiang/rockpi4-android/optee_os/lib/libutils/ext/mempool.c:164
    ab1c:	aa1303e0 	mov	x0, x19
    ab20:	a94153f3 	ldp	x19, x20, [sp,#16]
    ab24:	a8c27bfd 	ldp	x29, x30, [sp],#32
    ab28:	d65f03c0 	ret

000000000000ab2c <mempool_calloc>:
mempool_calloc():
/home/xiang/rockpi4-android/optee_os/lib/libutils/ext/mempool.c:167
    ab2c:	a9be7bfd 	stp	x29, x30, [sp,#-32]!
    ab30:	910003fd 	mov	x29, sp
    ab34:	a90153f3 	stp	x19, x20, [sp,#16]
/home/xiang/rockpi4-android/optee_os/lib/libutils/ext/mempool.c:171
    ab38:	9b027c34 	mul	x20, x1, x2
    ab3c:	9bc27c21 	umulh	x1, x1, x2
    ab40:	b5000121 	cbnz	x1, ab64 <mempool_calloc+0x38>
/home/xiang/rockpi4-android/optee_os/lib/libutils/ext/mempool.c:174
    ab44:	aa1403e1 	mov	x1, x20
    ab48:	97ffffe0 	bl	aac8 <mempool_alloc>
    ab4c:	aa0003f3 	mov	x19, x0
/home/xiang/rockpi4-android/optee_os/lib/libutils/ext/mempool.c:175
    ab50:	b50000e0 	cbnz	x0, ab6c <mempool_calloc+0x40>
/home/xiang/rockpi4-android/optee_os/lib/libutils/ext/mempool.c:179
    ab54:	aa1303e0 	mov	x0, x19
    ab58:	a94153f3 	ldp	x19, x20, [sp,#16]
    ab5c:	a8c27bfd 	ldp	x29, x30, [sp],#32
    ab60:	d65f03c0 	ret
/home/xiang/rockpi4-android/optee_os/lib/libutils/ext/mempool.c:172
    ab64:	d2800013 	mov	x19, #0x0                   	// #0
    ab68:	17fffffb 	b	ab54 <mempool_calloc+0x28>
/home/xiang/rockpi4-android/optee_os/lib/libutils/ext/mempool.c:176
    ab6c:	aa1403e2 	mov	x2, x20
    ab70:	52800001 	mov	w1, #0x0                   	// #0
    ab74:	97fffb64 	bl	9904 <memset>
    ab78:	17fffff7 	b	ab54 <mempool_calloc+0x28>

000000000000ab7c <mempool_free>:
mempool_free():
/home/xiang/rockpi4-android/optee_os/lib/libutils/ext/mempool.c:182
    ab7c:	aa0103e3 	mov	x3, x1
/home/xiang/rockpi4-android/optee_os/lib/libutils/ext/mempool.c:183
    ab80:	f9400801 	ldr	x1, [x0,#16]
    ab84:	52800002 	mov	w2, #0x0                   	// #0
    ab88:	aa0303e0 	mov	x0, x3
    ab8c:	17fff9c3 	b	9298 <raw_free>

000000000000ab90 <consttime_memcmp>:
consttime_memcmp():
/home/xiang/rockpi4-android/optee_os/lib/libutils/ext/consttime_memcmp.c:36
    ab90:	d10043ff 	sub	sp, sp, #0x10
/home/xiang/rockpi4-android/optee_os/lib/libutils/ext/consttime_memcmp.c:41
    ab94:	52802003 	mov	w3, #0x100                 	// #256
/home/xiang/rockpi4-android/optee_os/lib/libutils/ext/consttime_memcmp.c:43
    ab98:	d2800005 	mov	x5, #0x0                   	// #0
/home/xiang/rockpi4-android/optee_os/lib/libutils/ext/consttime_memcmp.c:39
    ab9c:	52800006 	mov	w6, #0x0                   	// #0
/home/xiang/rockpi4-android/optee_os/lib/libutils/ext/consttime_memcmp.c:41
    aba0:	b9000fe3 	str	w3, [sp,#12]
/home/xiang/rockpi4-android/optee_os/lib/libutils/ext/consttime_memcmp.c:40
    aba4:	52800003 	mov	w3, #0x0                   	// #0
/home/xiang/rockpi4-android/optee_os/lib/libutils/ext/consttime_memcmp.c:43 (discriminator 1)
    aba8:	eb05005f 	cmp	x2, x5
    abac:	540000a1 	b.ne	abc0 <consttime_memcmp+0x30>
/home/xiang/rockpi4-android/optee_os/lib/libutils/ext/consttime_memcmp.c:50
    abb0:	53087c63 	lsr	w3, w3, #8
/home/xiang/rockpi4-android/optee_os/lib/libutils/ext/consttime_memcmp.c:51
    abb4:	4b462060 	sub	w0, w3, w6, lsr #8
    abb8:	910043ff 	add	sp, sp, #0x10
    abbc:	d65f03c0 	ret
/home/xiang/rockpi4-android/optee_os/lib/libutils/ext/consttime_memcmp.c:45 (discriminator 2)
    abc0:	38656808 	ldrb	w8, [x0,x5]
    abc4:	38656824 	ldrb	w4, [x1,x5]
    abc8:	910004a5 	add	x5, x5, #0x1
/home/xiang/rockpi4-android/optee_os/lib/libutils/ext/consttime_memcmp.c:44 (discriminator 2)
    abcc:	b9400fe9 	ldr	w9, [sp,#12]
/home/xiang/rockpi4-android/optee_os/lib/libutils/ext/consttime_memcmp.c:45 (discriminator 2)
    abd0:	4b040107 	sub	w7, w8, w4
/home/xiang/rockpi4-android/optee_os/lib/libutils/ext/consttime_memcmp.c:47 (discriminator 2)
    abd4:	4b080084 	sub	w4, w4, w8
/home/xiang/rockpi4-android/optee_os/lib/libutils/ext/consttime_memcmp.c:44 (discriminator 2)
    abd8:	0a0900e7 	and	w7, w7, w9
    abdc:	2a0700c6 	orr	w6, w6, w7
/home/xiang/rockpi4-android/optee_os/lib/libutils/ext/consttime_memcmp.c:46 (discriminator 2)
    abe0:	b9400fe7 	ldr	w7, [sp,#12]
    abe4:	0a070084 	and	w4, w4, w7
/home/xiang/rockpi4-android/optee_os/lib/libutils/ext/consttime_memcmp.c:48 (discriminator 2)
    abe8:	b9400fe7 	ldr	w7, [sp,#12]
/home/xiang/rockpi4-android/optee_os/lib/libutils/ext/consttime_memcmp.c:46 (discriminator 2)
    abec:	2a040063 	orr	w3, w3, w4
/home/xiang/rockpi4-android/optee_os/lib/libutils/ext/consttime_memcmp.c:48 (discriminator 2)
    abf0:	2a0300c4 	orr	w4, w6, w3
    abf4:	0a2400e4 	bic	w4, w7, w4
    abf8:	b9000fe4 	str	w4, [sp,#12]
    abfc:	17ffffeb 	b	aba8 <consttime_memcmp+0x18>

000000000000ac00 <memchr>:
memchr():
/home/xiang/rockpi4-android/optee_os/lib/libutils/isoc/newlib/memchr.c:109
    ac00:	12001c21 	and	w1, w1, #0xff
    ac04:	8b020002 	add	x2, x0, x2
/home/xiang/rockpi4-android/optee_os/lib/libutils/isoc/newlib/memchr.c:153
    ac08:	eb02001f 	cmp	x0, x2
    ac0c:	54000061 	b.ne	ac18 <memchr+0x18>
/home/xiang/rockpi4-android/optee_os/lib/libutils/isoc/newlib/memchr.c:159
    ac10:	d2800000 	mov	x0, #0x0                   	// #0
/home/xiang/rockpi4-android/optee_os/lib/libutils/isoc/newlib/memchr.c:160
    ac14:	d65f03c0 	ret
/home/xiang/rockpi4-android/optee_os/lib/libutils/isoc/newlib/memchr.c:154
    ac18:	39400003 	ldrb	w3, [x0]
    ac1c:	6b01007f 	cmp	w3, w1
    ac20:	54ffffa0 	b.eq	ac14 <memchr+0x14>
/home/xiang/rockpi4-android/optee_os/lib/libutils/isoc/newlib/memchr.c:156
    ac24:	91000400 	add	x0, x0, #0x1
    ac28:	17fffff8 	b	ac08 <memchr+0x8>
